GAS LISTING /tmp/ccCGSzyp.s 			page 1


   1              		.file	"_sem.cpp"
   2              		.option pic
   3              		.option norelax
   4              		.text
   5              	.Ltext0:
   6              		.align	2
   7              		.globl	_ZN4_sem5closeEv
   9              	_ZN4_sem5closeEv:
  10              	.LFB62:
  11              		.file 1 "src/_sem.cpp"
   1:src/_sem.cpp  **** #include "../h/_sem.hpp"
   2:src/_sem.cpp  **** #include "../lib/mem.h"
   3:src/_sem.cpp  **** #include "../h/tcb.hpp"
   4:src/_sem.cpp  **** #include "../h/riscv.hpp"
   5:src/_sem.cpp  **** #include "../h/syscall_c.h"
   6:src/_sem.cpp  **** 
   7:src/_sem.cpp  **** int _sem::wait() {
   8:src/_sem.cpp  ****     val--;
   9:src/_sem.cpp  ****     if (val<0){
  10:src/_sem.cpp  ****         block();
  11:src/_sem.cpp  ****     }
  12:src/_sem.cpp  ****     if (!closed)
  13:src/_sem.cpp  ****         return 0;
  14:src/_sem.cpp  ****     else {                              //Ako je semafor zatvoren NE VRACA -1 UVEK!
  15:src/_sem.cpp  ****         if (NumOfBlockedThreads == 0)   // Ako je broj blokiranih niti 0 to znaci da se nit prvo os
  16:src/_sem.cpp  ****             return 0;                   // pa je tek onda zatvoren semafor (sto je regularno).
  17:src/_sem.cpp  ****         else {
  18:src/_sem.cpp  ****             NumOfBlockedThreads--;
  19:src/_sem.cpp  ****             return -1;
  20:src/_sem.cpp  ****         }
  21:src/_sem.cpp  ****     }
  22:src/_sem.cpp  **** }
  23:src/_sem.cpp  **** 
  24:src/_sem.cpp  **** int _sem::signal() {
  25:src/_sem.cpp  ****     if (closed) {
  26:src/_sem.cpp  ****         return -1;
  27:src/_sem.cpp  ****     }
  28:src/_sem.cpp  ****     val++;
  29:src/_sem.cpp  ****     if (val<=0) {
  30:src/_sem.cpp  ****         deblock();
  31:src/_sem.cpp  ****     }
  32:src/_sem.cpp  ****     return 0;
  33:src/_sem.cpp  **** }
  34:src/_sem.cpp  **** 
  35:src/_sem.cpp  **** int _sem::close() {
  12              		.loc 1 35 19
  13              		.cfi_startproc
  14              	.LVL0:
  36:src/_sem.cpp  ****     if (closed)
  15              		.loc 1 36 5
  16              		.loc 1 36 9 is_stmt 0
  17 0000 83470500 		lbu	a5,0(a0)
  18              		.loc 1 36 5
  19 0004 6390070E 		bnez	a5,.L9
  35:src/_sem.cpp  ****     if (closed)
  20              		.loc 1 35 19
  21 0008 130101FE 		addi	sp,sp,-32
GAS LISTING /tmp/ccCGSzyp.s 			page 2


  22              		.cfi_def_cfa_offset 32
  23 000c 233C1100 		sd	ra,24(sp)
  24 0010 23388100 		sd	s0,16(sp)
  25 0014 23349100 		sd	s1,8(sp)
  26 0018 23302101 		sd	s2,0(sp)
  27              		.cfi_offset 1, -8
  28              		.cfi_offset 8, -16
  29              		.cfi_offset 9, -24
  30              		.cfi_offset 18, -32
  31 001c 13040102 		addi	s0,sp,32
  32              		.cfi_def_cfa 8, 0
  33 0020 93040500 		mv	s1,a0
  37:src/_sem.cpp  ****         return -1;
  38:src/_sem.cpp  ****     closed = true;
  34              		.loc 1 38 5 is_stmt 1
  35              		.loc 1 38 12 is_stmt 0
  36 0024 93071000 		li	a5,1
  37 0028 2300F500 		sb	a5,0(a0)
  39:src/_sem.cpp  ****     if (blocked.peekFirst() != nullptr) {
  38              		.loc 1 39 5 is_stmt 1
  39              	.LVL1:
  40              	.LBB59:
  41              	.LBB60:
  42              		.file 2 "src/../h/list.hpp"
   1:src/../h/list.hpp **** //
   2:src/../h/list.hpp **** // Created by marko on 20.4.22..
   3:src/../h/list.hpp **** //
   4:src/../h/list.hpp **** 
   5:src/../h/list.hpp **** #ifndef OS1_VEZBE07_RISCV_CONTEXT_SWITCH_2_INTERRUPT_LIST_HPP
   6:src/../h/list.hpp **** #define OS1_VEZBE07_RISCV_CONTEXT_SWITCH_2_INTERRUPT_LIST_HPP
   7:src/../h/list.hpp **** 
   8:src/../h/list.hpp **** template<typename T>
   9:src/../h/list.hpp **** class List
  10:src/../h/list.hpp **** {
  11:src/../h/list.hpp **** private:
  12:src/../h/list.hpp ****     struct Elem
  13:src/../h/list.hpp ****     {
  14:src/../h/list.hpp ****         T *data;
  15:src/../h/list.hpp ****         Elem *next;
  16:src/../h/list.hpp **** 
  17:src/../h/list.hpp ****         Elem(T *data, Elem *next) : data(data), next(next) {}
  18:src/../h/list.hpp ****     };
  19:src/../h/list.hpp **** 
  20:src/../h/list.hpp ****     Elem *head, *tail;
  21:src/../h/list.hpp **** 
  22:src/../h/list.hpp **** public:
  23:src/../h/list.hpp ****     List() : head(0), tail(0) {}
  24:src/../h/list.hpp **** 
  25:src/../h/list.hpp ****     List(const List<T> &) = delete;
  26:src/../h/list.hpp **** 
  27:src/../h/list.hpp ****     List<T> &operator=(const List<T> &) = delete;
  28:src/../h/list.hpp **** 
  29:src/../h/list.hpp ****     void addFirst(T *data)
  30:src/../h/list.hpp ****     {
  31:src/../h/list.hpp ****         Elem *elem = new Elem(data, head);
  32:src/../h/list.hpp ****         head = elem;
  33:src/../h/list.hpp ****         if (!tail) { tail = head; }
GAS LISTING /tmp/ccCGSzyp.s 			page 3


  34:src/../h/list.hpp ****     }
  35:src/../h/list.hpp **** 
  36:src/../h/list.hpp ****     void addLast(T *data)
  37:src/../h/list.hpp ****     {
  38:src/../h/list.hpp ****         Elem *elem = new Elem(data, 0);
  39:src/../h/list.hpp ****         if (tail)
  40:src/../h/list.hpp ****         {
  41:src/../h/list.hpp ****             tail->next = elem;
  42:src/../h/list.hpp ****             tail = elem;
  43:src/../h/list.hpp ****         } else
  44:src/../h/list.hpp ****         {
  45:src/../h/list.hpp ****             head = tail = elem;
  46:src/../h/list.hpp ****         }
  47:src/../h/list.hpp ****     }
  48:src/../h/list.hpp **** 
  49:src/../h/list.hpp ****     T *removeFirst()
  50:src/../h/list.hpp ****     {
  51:src/../h/list.hpp ****         if (!head) { return 0; }
  52:src/../h/list.hpp **** 
  53:src/../h/list.hpp ****         Elem *elem = head;
  54:src/../h/list.hpp ****         head = head->next;
  55:src/../h/list.hpp ****         if (!head) { tail = 0; }
  56:src/../h/list.hpp **** 
  57:src/../h/list.hpp ****         T *ret = elem->data;
  58:src/../h/list.hpp ****         delete elem;
  59:src/../h/list.hpp ****         return ret;
  60:src/../h/list.hpp ****     }
  61:src/../h/list.hpp **** 
  62:src/../h/list.hpp ****     T *peekFirst()
  63:src/../h/list.hpp ****     {
  64:src/../h/list.hpp ****         if (!head) { return 0; }
  43              		.loc 2 64 14 is_stmt 0
  44 002c 83370501 		ld	a5,16(a0)
  45              		.loc 2 64 9
  46 0030 63860700 		beqz	a5,.L3
  65:src/../h/list.hpp ****         return head->data;
  47              		.loc 2 65 22
  48 0034 83B70700 		ld	a5,0(a5)
  49              	.LVL2:
  50              	.LBE60:
  51              	.LBE59:
  52              		.loc 1 39 5
  53 0038 639E0704 		bnez	a5,.L7
  54              	.LVL3:
  55              	.L3:
  40:src/_sem.cpp  ****         while (blocked.peekFirst()) {
  41:src/_sem.cpp  ****             blocked.peekFirst()->setBlocked(false);
  42:src/_sem.cpp  ****             Scheduler::put(blocked.peekFirst());
  43:src/_sem.cpp  ****             blocked.removeFirst();
  44:src/_sem.cpp  ****         }
  45:src/_sem.cpp  ****     }
  46:src/_sem.cpp  ****     Riscv::listOfClosedSemaphores->addLast(this);
  56              		.loc 1 46 5 is_stmt 1
  57              		.loc 1 46 43 is_stmt 0
  58 003c 97070000 		la	a5,_ZN5Riscv22listOfClosedSemaphoresE
  58      83B70700 
  59 0044 03B90700 		ld	s2,0(a5)
GAS LISTING /tmp/ccCGSzyp.s 			page 4


  60              	.LVL4:
  61              	.LBB61:
  62              	.LBB62:
  38:src/../h/list.hpp ****         if (tail)
  63              		.loc 2 38 22
  64 0048 13050001 		li	a0,16
  65 004c 97000000 		call	_Znwm@plt
  65      E7800000 
  66              	.LVL5:
  67              	.LBB63:
  68              	.LBB64:
  17:src/../h/list.hpp ****     };
  69              		.loc 2 17 58
  70 0054 23309500 		sd	s1,0(a0)
  71 0058 23340500 		sd	zero,8(a0)
  72              	.LVL6:
  73              	.LBE64:
  74              	.LBE63:
  39:src/../h/list.hpp ****         {
  75              		.loc 2 39 13
  76 005c 83378900 		ld	a5,8(s2)
  39:src/../h/list.hpp ****         {
  77              		.loc 2 39 9
  78 0060 638A0706 		beqz	a5,.L8
  41:src/../h/list.hpp ****             tail = elem;
  79              		.loc 2 41 13
  80 0064 23B4A700 		sd	a0,8(a5)
  42:src/../h/list.hpp ****         } else
  81              		.loc 2 42 13
  82 0068 2334A900 		sd	a0,8(s2)
  83              	.LBE62:
  84              	.LBE61:
  47:src/_sem.cpp  ****     return 0;
  85              		.loc 1 47 12
  86 006c 13050000 		li	a0,0
  87              	.LVL7:
  88              	.L2:
  48:src/_sem.cpp  **** }
  89              		.loc 1 48 1
  90 0070 83308101 		ld	ra,24(sp)
  91              		.cfi_remember_state
  92              		.cfi_restore 1
  93 0074 03340101 		ld	s0,16(sp)
  94              		.cfi_restore 8
  95              		.cfi_def_cfa 2, 32
  96 0078 83348100 		ld	s1,8(sp)
  97              		.cfi_restore 9
  98              	.LVL8:
  99 007c 03390100 		ld	s2,0(sp)
 100              		.cfi_restore 18
 101 0080 13010102 		addi	sp,sp,32
 102              		.cfi_def_cfa_offset 0
 103 0084 67800000 		jr	ra
 104              	.LVL9:
 105              	.L14:
 106              		.cfi_restore_state
 107              	.LBB66:
GAS LISTING /tmp/ccCGSzyp.s 			page 5


 108              	.LBB67:
  55:src/../h/list.hpp **** 
 109              		.loc 2 55 22
 110 0088 23BC0400 		sd	zero,24(s1)
 111              	.L6:
 112              	.LVL10:
  58:src/../h/list.hpp ****         return ret;
 113              		.loc 2 58 9
 114 008c 97000000 		call	_ZdlPv@plt
 114      E7800000 
 115              	.LVL11:
 116              	.L7:
 117              	.LBE67:
 118              	.LBE66:
  40:src/_sem.cpp  ****             blocked.peekFirst()->setBlocked(false);
 119              		.loc 1 40 9 is_stmt 1
  40:src/_sem.cpp  ****             blocked.peekFirst()->setBlocked(false);
 120              		.loc 1 40 34
 121              	.LBB69:
 122              	.LBB70:
  64:src/../h/list.hpp ****         return head->data;
 123              		.loc 2 64 14 is_stmt 0
 124 0094 83B70401 		ld	a5,16(s1)
  64:src/../h/list.hpp ****         return head->data;
 125              		.loc 2 64 9
 126 0098 E38207FA 		beqz	a5,.L3
 127              		.loc 2 65 22
 128 009c 83B70700 		ld	a5,0(a5)
 129              	.LVL12:
 130              	.LBE70:
 131              	.LBE69:
  40:src/_sem.cpp  ****             blocked.peekFirst()->setBlocked(false);
 132              		.loc 1 40 34
 133 00a0 E38E07F8 		beqz	a5,.L3
  41:src/_sem.cpp  ****             Scheduler::put(blocked.peekFirst());
 134              		.loc 1 41 13 is_stmt 1
 135              	.LVL13:
 136              	.LBB71:
 137              	.LBB72:
 138              		.file 3 "src/../h/tcb.hpp"
   1:src/../h/tcb.hpp **** #ifndef OS1_VEZBE07_RISCV_CONTEXT_SWITCH_2_INTERRUPT_TCB_HPP
   2:src/../h/tcb.hpp **** #define OS1_VEZBE07_RISCV_CONTEXT_SWITCH_2_INTERRUPT_TCB_HPP
   3:src/../h/tcb.hpp **** 
   4:src/../h/tcb.hpp **** #include "../lib/hw.h"
   5:src/../h/tcb.hpp **** #include "scheduler.hpp"
   6:src/../h/tcb.hpp **** #include "../h/syscall_cpp.hpp"
   7:src/../h/tcb.hpp **** #include "../h/print.hpp"
   8:src/../h/tcb.hpp **** 
   9:src/../h/tcb.hpp **** // Thread Control Block
  10:src/../h/tcb.hpp **** class TCB
  11:src/../h/tcb.hpp **** {
  12:src/../h/tcb.hpp **** public:
  13:src/../h/tcb.hpp ****     virtual ~TCB() {
  14:src/../h/tcb.hpp ****         delete[] stack;
  15:src/../h/tcb.hpp ****     }
  16:src/../h/tcb.hpp **** 
  17:src/../h/tcb.hpp ****     static void outputThreadBody(void*);
GAS LISTING /tmp/ccCGSzyp.s 			page 6


  18:src/../h/tcb.hpp **** 
  19:src/../h/tcb.hpp ****     bool isFinished() const { return finished; }
  20:src/../h/tcb.hpp ****     void setFinished(bool value) { finished = value; }
  21:src/../h/tcb.hpp **** 
  22:src/../h/tcb.hpp ****     bool isSleeping() const { return sleeping; }
  23:src/../h/tcb.hpp ****     void setSleeping(bool value) { sleeping = value; }
  24:src/../h/tcb.hpp **** 
  25:src/../h/tcb.hpp ****     bool isBlocked() const { return blocked; }
  26:src/../h/tcb.hpp ****     void setBlocked(bool value) { blocked = value; }
 139              		.loc 3 26 35
 140              		.loc 3 26 43 is_stmt 0
 141 00a4 238F0702 		sb	zero,62(a5)
 142              	.LVL14:
 143              	.LBE72:
 144              	.LBE71:
  42:src/_sem.cpp  ****             blocked.removeFirst();
 145              		.loc 1 42 13 is_stmt 1
 146              	.LBB73:
 147              	.LBB74:
  64:src/../h/list.hpp ****         return head->data;
 148              		.loc 2 64 14 is_stmt 0
 149 00a8 03B50401 		ld	a0,16(s1)
  64:src/../h/list.hpp ****         return head->data;
 150              		.loc 2 64 9
 151 00ac 63040500 		beqz	a0,.L4
 152              		.loc 2 65 22
 153 00b0 03350500 		ld	a0,0(a0)
 154              	.L4:
 155              	.LVL15:
 156              	.LBE74:
 157              	.LBE73:
  42:src/_sem.cpp  ****             blocked.removeFirst();
 158              		.loc 1 42 27
 159 00b4 97000000 		call	_ZN9Scheduler3putEP3TCB@plt
 159      E7800000 
 160              	.LVL16:
  43:src/_sem.cpp  ****         }
 161              		.loc 1 43 13 is_stmt 1
 162              	.LBB75:
 163              	.LBB68:
  51:src/../h/list.hpp **** 
 164              		.loc 2 51 14 is_stmt 0
 165 00bc 03B50401 		ld	a0,16(s1)
  51:src/../h/list.hpp **** 
 166              		.loc 2 51 9
 167 00c0 E30A05FC 		beqz	a0,.L7
 168              	.LVL17:
  54:src/../h/list.hpp ****         if (!head) { tail = 0; }
 169              		.loc 2 54 22
 170 00c4 83378500 		ld	a5,8(a0)
  54:src/../h/list.hpp ****         if (!head) { tail = 0; }
 171              		.loc 2 54 9
 172 00c8 23B8F400 		sd	a5,16(s1)
  55:src/../h/list.hpp **** 
 173              		.loc 2 55 9
 174 00cc E39007FC 		bnez	a5,.L6
 175 00d0 6FF09FFB 		j	.L14
GAS LISTING /tmp/ccCGSzyp.s 			page 7


 176              	.LVL18:
 177              	.L8:
 178              	.LBE68:
 179              	.LBE75:
 180              	.LBB76:
 181              	.LBB65:
  45:src/../h/list.hpp ****         }
 182              		.loc 2 45 13
 183 00d4 2334A900 		sd	a0,8(s2)
 184 00d8 2330A900 		sd	a0,0(s2)
 185              	.LBE65:
 186              	.LBE76:
  47:src/_sem.cpp  **** }
 187              		.loc 1 47 12
 188 00dc 13050000 		li	a0,0
 189              	.LVL19:
 190 00e0 6FF01FF9 		j	.L2
 191              	.LVL20:
 192              	.L9:
 193              		.cfi_def_cfa_register 2
 194              		.cfi_restore 1
 195              		.cfi_restore 8
 196              		.cfi_restore 9
 197              		.cfi_restore 18
  37:src/_sem.cpp  ****     closed = true;
 198              		.loc 1 37 17
 199 00e4 1305F0FF 		li	a0,-1
 200              	.LVL21:
 201              		.loc 1 48 1
 202 00e8 67800000 		ret
 203              		.cfi_endproc
 204              	.LFE62:
 206              		.align	2
 207              		.globl	_ZN4_sem5blockEv
 209              	_ZN4_sem5blockEv:
 210              	.LFB63:
  49:src/_sem.cpp  **** 
  50:src/_sem.cpp  **** void _sem::block() {
 211              		.loc 1 50 20 is_stmt 1
 212              		.cfi_startproc
 213              	.LVL22:
 214 00ec 130101FE 		addi	sp,sp,-32
 215              		.cfi_def_cfa_offset 32
 216 00f0 233C1100 		sd	ra,24(sp)
 217 00f4 23388100 		sd	s0,16(sp)
 218 00f8 23349100 		sd	s1,8(sp)
 219 00fc 23302101 		sd	s2,0(sp)
 220              		.cfi_offset 1, -8
 221              		.cfi_offset 8, -16
 222              		.cfi_offset 9, -24
 223              		.cfi_offset 18, -32
 224 0100 13040102 		addi	s0,sp,32
 225              		.cfi_def_cfa 8, 0
 226 0104 93040500 		mv	s1,a0
  51:src/_sem.cpp  ****     NumOfBlockedThreads++;
 227              		.loc 1 51 5
 228 0108 83278500 		lw	a5,8(a0)
GAS LISTING /tmp/ccCGSzyp.s 			page 8


 229              		.loc 1 51 24 is_stmt 0
 230 010c 9B871700 		addiw	a5,a5,1
 231 0110 2324F500 		sw	a5,8(a0)
  52:src/_sem.cpp  ****     TCB::running->setBlocked(true);
 232              		.loc 1 52 5 is_stmt 1
 233              		.loc 1 52 29 is_stmt 0
 234 0114 97070000 		la	a5,_ZN3TCB7runningE
 234      83B70700 
 235 011c 03B90700 		ld	s2,0(a5)
 236              	.LVL23:
 237              	.LBB77:
 238              	.LBB78:
 239              		.loc 3 26 35 is_stmt 1
 240              		.loc 3 26 43 is_stmt 0
 241 0120 93071000 		li	a5,1
 242 0124 230FF902 		sb	a5,62(s2)
 243              	.LVL24:
 244              	.LBE78:
 245              	.LBE77:
  53:src/_sem.cpp  ****     blocked.addLast(TCB::running);
 246              		.loc 1 53 5 is_stmt 1
 247              	.LBB79:
 248              	.LBB80:
  38:src/../h/list.hpp ****         if (tail)
 249              		.loc 2 38 22 is_stmt 0
 250 0128 13050001 		li	a0,16
 251              	.LVL25:
 252 012c 97000000 		call	_Znwm@plt
 252      E7800000 
 253              	.LVL26:
 254              	.LBB81:
 255              	.LBB82:
  17:src/../h/list.hpp ****     };
 256              		.loc 2 17 58
 257 0134 23302501 		sd	s2,0(a0)
 258 0138 23340500 		sd	zero,8(a0)
 259              	.LVL27:
 260              	.LBE82:
 261              	.LBE81:
  39:src/../h/list.hpp ****         {
 262              		.loc 2 39 13
 263 013c 83B78401 		ld	a5,24(s1)
  39:src/../h/list.hpp ****         {
 264              		.loc 2 39 9
 265 0140 63860702 		beqz	a5,.L16
  41:src/../h/list.hpp ****             tail = elem;
 266              		.loc 2 41 13
 267 0144 23B4A700 		sd	a0,8(a5)
  42:src/../h/list.hpp ****         } else
 268              		.loc 2 42 13
 269 0148 23BCA400 		sd	a0,24(s1)
 270              	.L17:
 271              	.LVL28:
 272              	.LBE80:
 273              	.LBE79:
  54:src/_sem.cpp  ****     thread_dispatch();
 274              		.loc 1 54 5 is_stmt 1
GAS LISTING /tmp/ccCGSzyp.s 			page 9


 275              		.loc 1 54 20 is_stmt 0
 276 014c 97000000 		call	_Z15thread_dispatchv@plt
 276      E7800000 
 277              	.LVL29:
  55:src/_sem.cpp  **** }
 278              		.loc 1 55 1
 279 0154 83308101 		ld	ra,24(sp)
 280              		.cfi_remember_state
 281              		.cfi_restore 1
 282 0158 03340101 		ld	s0,16(sp)
 283              		.cfi_restore 8
 284              		.cfi_def_cfa 2, 32
 285 015c 83348100 		ld	s1,8(sp)
 286              		.cfi_restore 9
 287              	.LVL30:
 288 0160 03390100 		ld	s2,0(sp)
 289              		.cfi_restore 18
 290 0164 13010102 		addi	sp,sp,32
 291              		.cfi_def_cfa_offset 0
 292 0168 67800000 		jr	ra
 293              	.LVL31:
 294              	.L16:
 295              		.cfi_restore_state
 296              	.LBB84:
 297              	.LBB83:
  45:src/../h/list.hpp ****         }
 298              		.loc 2 45 13
 299 016c 23BCA400 		sd	a0,24(s1)
 300 0170 23B8A400 		sd	a0,16(s1)
 301 0174 6FF09FFD 		j	.L17
 302              	.LBE83:
 303              	.LBE84:
 304              		.cfi_endproc
 305              	.LFE63:
 307              		.align	2
 308              		.globl	_ZN4_sem4waitEv
 310              	_ZN4_sem4waitEv:
 311              	.LFB60:
   7:src/_sem.cpp  ****     val--;
 312              		.loc 1 7 18 is_stmt 1
 313              		.cfi_startproc
 314              	.LVL32:
 315 0178 130101FE 		addi	sp,sp,-32
 316              		.cfi_def_cfa_offset 32
 317 017c 233C1100 		sd	ra,24(sp)
 318 0180 23388100 		sd	s0,16(sp)
 319 0184 23349100 		sd	s1,8(sp)
 320              		.cfi_offset 1, -8
 321              		.cfi_offset 8, -16
 322              		.cfi_offset 9, -24
 323 0188 13040102 		addi	s0,sp,32
 324              		.cfi_def_cfa 8, 0
 325 018c 93040500 		mv	s1,a0
   8:src/_sem.cpp  ****     if (val<0){
 326              		.loc 1 8 5
 327 0190 83274500 		lw	a5,4(a0)
   8:src/_sem.cpp  ****     if (val<0){
GAS LISTING /tmp/ccCGSzyp.s 			page 10


 328              		.loc 1 8 8 is_stmt 0
 329 0194 9B87F7FF 		addiw	a5,a5,-1
 330 0198 2322F500 		sw	a5,4(a0)
   9:src/_sem.cpp  ****         block();
 331              		.loc 1 9 5 is_stmt 1
 332 019c 13970702 		slli	a4,a5,32
 333 01a0 63440702 		bltz	a4,.L24
 334              	.LVL33:
 335              	.L20:
  12:src/_sem.cpp  ****         return 0;
 336              		.loc 1 12 5
  12:src/_sem.cpp  ****         return 0;
 337              		.loc 1 12 10 is_stmt 0
 338 01a4 83C70400 		lbu	a5,0(s1)
  12:src/_sem.cpp  ****         return 0;
 339              		.loc 1 12 5
 340 01a8 638E0702 		beqz	a5,.L22
  15:src/_sem.cpp  ****             return 0;                   // pa je tek onda zatvoren semafor (sto je regularno).
 341              		.loc 1 15 9 is_stmt 1
  15:src/_sem.cpp  ****             return 0;                   // pa je tek onda zatvoren semafor (sto je regularno).
 342              		.loc 1 15 13 is_stmt 0
 343 01ac 03A58400 		lw	a0,8(s1)
  15:src/_sem.cpp  ****             return 0;                   // pa je tek onda zatvoren semafor (sto je regularno).
 344              		.loc 1 15 9
 345 01b0 63120502 		bnez	a0,.L25
 346              	.L21:
  22:src/_sem.cpp  **** 
 347              		.loc 1 22 1
 348 01b4 83308101 		ld	ra,24(sp)
 349              		.cfi_remember_state
 350              		.cfi_restore 1
 351 01b8 03340101 		ld	s0,16(sp)
 352              		.cfi_restore 8
 353              		.cfi_def_cfa 2, 32
 354 01bc 83348100 		ld	s1,8(sp)
 355              		.cfi_restore 9
 356              	.LVL34:
 357 01c0 13010102 		addi	sp,sp,32
 358              		.cfi_def_cfa_offset 0
 359 01c4 67800000 		jr	ra
 360              	.LVL35:
 361              	.L24:
 362              		.cfi_restore_state
  10:src/_sem.cpp  ****     }
 363              		.loc 1 10 9 is_stmt 1
  10:src/_sem.cpp  ****     }
 364              		.loc 1 10 14 is_stmt 0
 365 01c8 97000000 		call	_ZN4_sem5blockEv
 365      E7800000 
 366              	.LVL36:
 367 01d0 6FF05FFD 		j	.L20
 368              	.L25:
  18:src/_sem.cpp  ****             return -1;
 369              		.loc 1 18 13 is_stmt 1
  18:src/_sem.cpp  ****             return -1;
 370              		.loc 1 18 32 is_stmt 0
 371 01d4 1B05F5FF 		addiw	a0,a0,-1
GAS LISTING /tmp/ccCGSzyp.s 			page 11


 372 01d8 23A4A400 		sw	a0,8(s1)
  19:src/_sem.cpp  ****         }
 373              		.loc 1 19 13 is_stmt 1
  19:src/_sem.cpp  ****         }
 374              		.loc 1 19 21 is_stmt 0
 375 01dc 1305F0FF 		li	a0,-1
 376 01e0 6FF05FFD 		j	.L21
 377              	.L22:
  13:src/_sem.cpp  ****     else {                              //Ako je semafor zatvoren NE VRACA -1 UVEK!
 378              		.loc 1 13 16
 379 01e4 13050000 		li	a0,0
 380 01e8 6FF0DFFC 		j	.L21
 381              		.cfi_endproc
 382              	.LFE60:
 384              		.align	2
 385              		.globl	_ZN4_sem7deblockEv
 387              	_ZN4_sem7deblockEv:
 388              	.LFB64:
  56:src/_sem.cpp  **** 
  57:src/_sem.cpp  **** void _sem::deblock() {
 389              		.loc 1 57 22 is_stmt 1
 390              		.cfi_startproc
 391              	.LVL37:
 392 01ec 130101FE 		addi	sp,sp,-32
 393              		.cfi_def_cfa_offset 32
 394 01f0 233C1100 		sd	ra,24(sp)
 395 01f4 23388100 		sd	s0,16(sp)
 396 01f8 23349100 		sd	s1,8(sp)
 397              		.cfi_offset 1, -8
 398              		.cfi_offset 8, -16
 399              		.cfi_offset 9, -24
 400 01fc 13040102 		addi	s0,sp,32
 401              		.cfi_def_cfa 8, 0
 402 0200 93070500 		mv	a5,a0
  58:src/_sem.cpp  ****     NumOfBlockedThreads--;
 403              		.loc 1 58 5
 404 0204 03278500 		lw	a4,8(a0)
 405              		.loc 1 58 24 is_stmt 0
 406 0208 1B07F7FF 		addiw	a4,a4,-1
 407 020c 2324E500 		sw	a4,8(a0)
  59:src/_sem.cpp  ****     TCB* temp = blocked.removeFirst();
 408              		.loc 1 59 5 is_stmt 1
 409              	.LVL38:
 410              	.LBB85:
 411              	.LBB86:
  51:src/../h/list.hpp **** 
 412              		.loc 2 51 14 is_stmt 0
 413 0210 03350501 		ld	a0,16(a0)
 414              	.LVL39:
  51:src/../h/list.hpp **** 
 415              		.loc 2 51 9
 416 0214 63040504 		beqz	a0,.L29
 417              	.LVL40:
  54:src/../h/list.hpp ****         if (!head) { tail = 0; }
 418              		.loc 2 54 22
 419 0218 03378500 		ld	a4,8(a0)
  54:src/../h/list.hpp ****         if (!head) { tail = 0; }
GAS LISTING /tmp/ccCGSzyp.s 			page 12


 420              		.loc 2 54 9
 421 021c 23B8E700 		sd	a4,16(a5)
  55:src/../h/list.hpp **** 
 422              		.loc 2 55 9
 423 0220 630A0702 		beqz	a4,.L31
 424              	.L28:
  57:src/../h/list.hpp ****         delete elem;
 425              		.loc 2 57 12
 426 0224 83340500 		ld	s1,0(a0)
 427              	.LVL41:
  58:src/../h/list.hpp ****         return ret;
 428              		.loc 2 58 9
 429 0228 97000000 		call	_ZdlPv@plt
 429      E7800000 
 430              	.LVL42:
 431              	.L27:
 432              	.LBE86:
 433              	.LBE85:
  60:src/_sem.cpp  ****     temp->setBlocked(false);
 434              		.loc 1 60 5 is_stmt 1
 435              	.LBB88:
 436              	.LBB89:
 437              		.loc 3 26 35
 438              		.loc 3 26 43 is_stmt 0
 439 0230 238F0402 		sb	zero,62(s1)
 440              	.LVL43:
 441              	.LBE89:
 442              	.LBE88:
  61:src/_sem.cpp  ****     Scheduler::put(temp);
 443              		.loc 1 61 5 is_stmt 1
 444              		.loc 1 61 19 is_stmt 0
 445 0234 13850400 		mv	a0,s1
 446 0238 97000000 		call	_ZN9Scheduler3putEP3TCB@plt
 446      E7800000 
 447              	.LVL44:
  62:src/_sem.cpp  **** }
 448              		.loc 1 62 1
 449 0240 83308101 		ld	ra,24(sp)
 450              		.cfi_remember_state
 451              		.cfi_restore 1
 452 0244 03340101 		ld	s0,16(sp)
 453              		.cfi_restore 8
 454              		.cfi_def_cfa 2, 32
 455 0248 83348100 		ld	s1,8(sp)
 456              		.cfi_restore 9
 457              	.LVL45:
 458 024c 13010102 		addi	sp,sp,32
 459              		.cfi_def_cfa_offset 0
 460 0250 67800000 		jr	ra
 461              	.LVL46:
 462              	.L31:
 463              		.cfi_restore_state
 464              	.LBB90:
 465              	.LBB87:
  55:src/../h/list.hpp **** 
 466              		.loc 2 55 22
 467 0254 23BC0700 		sd	zero,24(a5)
GAS LISTING /tmp/ccCGSzyp.s 			page 13


 468 0258 6FF0DFFC 		j	.L28
 469              	.LVL47:
 470              	.L29:
  51:src/../h/list.hpp **** 
 471              		.loc 2 51 29
 472 025c 93040500 		mv	s1,a0
 473 0260 6FF01FFD 		j	.L27
 474              	.LBE87:
 475              	.LBE90:
 476              		.cfi_endproc
 477              	.LFE64:
 479              		.align	2
 480              		.globl	_ZN4_sem6signalEv
 482              	_ZN4_sem6signalEv:
 483              	.LFB61:
  24:src/_sem.cpp  ****     if (closed) {
 484              		.loc 1 24 20 is_stmt 1
 485              		.cfi_startproc
 486              	.LVL48:
  25:src/_sem.cpp  ****         return -1;
 487              		.loc 1 25 5
  25:src/_sem.cpp  ****         return -1;
 488              		.loc 1 25 9 is_stmt 0
 489 0264 83470500 		lbu	a5,0(a0)
  25:src/_sem.cpp  ****         return -1;
 490              		.loc 1 25 5
 491 0268 63960704 		bnez	a5,.L34
  28:src/_sem.cpp  ****     if (val<=0) {
 492              		.loc 1 28 5 is_stmt 1
 493 026c 83274500 		lw	a5,4(a0)
  28:src/_sem.cpp  ****     if (val<=0) {
 494              		.loc 1 28 8 is_stmt 0
 495 0270 9B871700 		addiw	a5,a5,1
 496 0274 1B870700 		sext.w	a4,a5
 497 0278 2322F500 		sw	a5,4(a0)
  29:src/_sem.cpp  ****         deblock();
 498              		.loc 1 29 5 is_stmt 1
 499 027c 6356E000 		blez	a4,.L40
  32:src/_sem.cpp  **** }
 500              		.loc 1 32 12 is_stmt 0
 501 0280 13050000 		li	a0,0
 502              	.LVL49:
  33:src/_sem.cpp  **** 
 503              		.loc 1 33 1
 504 0284 67800000 		ret
 505              	.LVL50:
 506              	.L40:
  24:src/_sem.cpp  ****     if (closed) {
 507              		.loc 1 24 20
 508 0288 130101FF 		addi	sp,sp,-16
 509              		.cfi_def_cfa_offset 16
 510 028c 23341100 		sd	ra,8(sp)
 511 0290 23308100 		sd	s0,0(sp)
 512              		.cfi_offset 1, -8
 513              		.cfi_offset 8, -16
 514 0294 13040101 		addi	s0,sp,16
 515              		.cfi_def_cfa 8, 0
GAS LISTING /tmp/ccCGSzyp.s 			page 14


  30:src/_sem.cpp  ****     }
 516              		.loc 1 30 9 is_stmt 1
  30:src/_sem.cpp  ****     }
 517              		.loc 1 30 16 is_stmt 0
 518 0298 97000000 		call	_ZN4_sem7deblockEv
 518      E7800000 
 519              	.LVL51:
  32:src/_sem.cpp  **** }
 520              		.loc 1 32 12
 521 02a0 13050000 		li	a0,0
  33:src/_sem.cpp  **** 
 522              		.loc 1 33 1
 523 02a4 83308100 		ld	ra,8(sp)
 524              		.cfi_restore 1
 525 02a8 03340100 		ld	s0,0(sp)
 526              		.cfi_restore 8
 527              		.cfi_def_cfa 2, 16
 528 02ac 13010101 		addi	sp,sp,16
 529              		.cfi_def_cfa_offset 0
 530 02b0 67800000 		jr	ra
 531              	.LVL52:
 532              	.L34:
  26:src/_sem.cpp  ****     }
 533              		.loc 1 26 17
 534 02b4 1305F0FF 		li	a0,-1
 535              	.LVL53:
 536 02b8 67800000 		ret
 537              		.cfi_endproc
 538              	.LFE61:
 540              		.align	2
 541              		.globl	_ZN4_sem15createSemaphoreEPPS_j
 543              	_ZN4_sem15createSemaphoreEPPS_j:
 544              	.LFB65:
  63:src/_sem.cpp  **** 
  64:src/_sem.cpp  **** _sem *_sem::createSemaphore(_sem **handle, unsigned int init) {
 545              		.loc 1 64 63 is_stmt 1
 546              		.cfi_startproc
 547              	.LVL54:
 548 02bc 130101FE 		addi	sp,sp,-32
 549              		.cfi_def_cfa_offset 32
 550 02c0 233C1100 		sd	ra,24(sp)
 551 02c4 23388100 		sd	s0,16(sp)
 552 02c8 23349100 		sd	s1,8(sp)
 553 02cc 23302101 		sd	s2,0(sp)
 554              		.cfi_offset 1, -8
 555              		.cfi_offset 8, -16
 556              		.cfi_offset 9, -24
 557              		.cfi_offset 18, -32
 558 02d0 13040102 		addi	s0,sp,32
 559              		.cfi_def_cfa 8, 0
 560 02d4 93040500 		mv	s1,a0
 561 02d8 13890500 		mv	s2,a1
  65:src/_sem.cpp  ****     *handle = new _sem(init);
 562              		.loc 1 65 5
 563              		.loc 1 65 28 is_stmt 0
 564 02dc 13050002 		li	a0,32
 565              	.LVL55:
GAS LISTING /tmp/ccCGSzyp.s 			page 15


 566 02e0 97000000 		call	_Znwm@plt
 566      E7800000 
 567              	.LVL56:
 568              	.LBB91:
 569              	.LBB92:
 570              		.file 4 "src/../h/_sem.hpp"
   1:src/../h/_sem.hpp **** //
   2:src/../h/_sem.hpp **** // Created by os on 9/7/22.
   3:src/../h/_sem.hpp **** //
   4:src/../h/_sem.hpp **** 
   5:src/../h/_sem.hpp **** #ifndef PROJECT_BASE_V1_1__SEM_HPP
   6:src/../h/_sem.hpp **** #define PROJECT_BASE_V1_1__SEM_HPP
   7:src/../h/_sem.hpp **** #include "list.hpp"
   8:src/../h/_sem.hpp **** 
   9:src/../h/_sem.hpp **** class TCB;
  10:src/../h/_sem.hpp **** 
  11:src/../h/_sem.hpp **** class _sem
  12:src/../h/_sem.hpp **** {
  13:src/../h/_sem.hpp **** public:
  14:src/../h/_sem.hpp ****     explicit _sem (int initValue=0) : closed(false), val(initValue) {}
 571              		.loc 4 14 67
 572 02e8 23000500 		sb	zero,0(a0)
 573 02ec 23222501 		sw	s2,4(a0)
 574 02f0 23240500 		sw	zero,8(a0)
 575              	.LVL57:
 576              	.LBB93:
 577              	.LBB94:
  23:src/../h/list.hpp **** 
 578              		.loc 2 23 29
 579 02f4 23380500 		sd	zero,16(a0)
 580 02f8 233C0500 		sd	zero,24(a0)
 581              	.LVL58:
 582              	.LBE94:
 583              	.LBE93:
 584              	.LBE92:
 585              	.LBE91:
 586              		.loc 1 65 13
 587 02fc 23B0A400 		sd	a0,0(s1)
  66:src/_sem.cpp  ****     return *handle;
 588              		.loc 1 66 5 is_stmt 1
  67:src/_sem.cpp  **** }
 589              		.loc 1 67 1 is_stmt 0
 590 0300 83308101 		ld	ra,24(sp)
 591              		.cfi_restore 1
 592 0304 03340101 		ld	s0,16(sp)
 593              		.cfi_restore 8
 594              		.cfi_def_cfa 2, 32
 595 0308 83348100 		ld	s1,8(sp)
 596              		.cfi_restore 9
 597              	.LVL59:
 598 030c 03390100 		ld	s2,0(sp)
 599              		.cfi_restore 18
 600 0310 13010102 		addi	sp,sp,32
 601              		.cfi_def_cfa_offset 0
 602 0314 67800000 		jr	ra
 603              		.cfi_endproc
 604              	.LFE65:
GAS LISTING /tmp/ccCGSzyp.s 			page 16


 606              		.align	2
 607              		.globl	_ZN4_semD2Ev
 609              	_ZN4_semD2Ev:
 610              	.LFB67:
  68:src/_sem.cpp  **** 
  69:src/_sem.cpp  **** _sem::~_sem(){
 611              		.loc 1 69 1 is_stmt 1
 612              		.cfi_startproc
 613              		.cfi_personality 0x9b,DW.ref.__gxx_personality_v0
 614              		.cfi_lsda 0x1b,.LLSDA67
 615              	.LVL60:
 616 0318 130101FF 		addi	sp,sp,-16
 617              		.cfi_def_cfa_offset 16
 618 031c 23341100 		sd	ra,8(sp)
 619 0320 23308100 		sd	s0,0(sp)
 620              		.cfi_offset 1, -8
 621              		.cfi_offset 8, -16
 622 0324 13040101 		addi	s0,sp,16
 623              		.cfi_def_cfa 8, 0
 624              	.LBB95:
  70:src/_sem.cpp  ****     close();
 625              		.loc 1 70 5
 626              		.loc 1 70 10 is_stmt 0
 627 0328 97000000 		call	_ZN4_sem5closeEv
 627      E7800000 
 628              	.LVL61:
 629              	.LBE95:
  71:src/_sem.cpp  **** }
 630              		.loc 1 71 1
 631 0330 83308100 		ld	ra,8(sp)
 632              		.cfi_restore 1
 633 0334 03340100 		ld	s0,0(sp)
 634              		.cfi_restore 8
 635              		.cfi_def_cfa 2, 16
 636 0338 13010101 		addi	sp,sp,16
 637              		.cfi_def_cfa_offset 0
 638 033c 67800000 		jr	ra
 639              		.cfi_endproc
 640              	.LFE67:
 641              		.globl	__gxx_personality_v0
 642              		.section	.gcc_except_table,"a",@progbits
 643              	.LLSDA67:
 644 0000 FF       		.byte	0xff
 645 0001 FF       		.byte	0xff
 646 0002 03       		.byte	0x3
 647 0003 00       		.byte	0
 648              		.text
 650              		.globl	_ZN4_semD1Ev
 651              		.set	_ZN4_semD1Ev,_ZN4_semD2Ev
 652              	.Letext0:
 653              		.file 5 "src/../lib/hw.h"
 654              		.file 6 "src/../h/scheduler.hpp"
 655              		.file 7 "src/../h/syscall_c.h"
 4401              		.align	3
 4404              	DW.ref.__gxx_personality_v0:
 4405 0000 00000000 		.dword	__gxx_personality_v0
 4405      00000000 
GAS LISTING /tmp/ccCGSzyp.s 			page 17


 4406              		.ident	"GCC: (Ubuntu 9.4.0-1ubuntu1~20.04) 9.4.0"
 4407              		.section	.note.GNU-stack,"",@progbits
GAS LISTING /tmp/ccCGSzyp.s 			page 18


DEFINED SYMBOLS
                            *ABS*:0000000000000000 _sem.cpp
     /tmp/ccCGSzyp.s:9      .text:0000000000000000 _ZN4_sem5closeEv
     /tmp/ccCGSzyp.s:13     .text:0000000000000000 .L0 
     /tmp/ccCGSzyp.s:15     .text:0000000000000000 .L0 
     /tmp/ccCGSzyp.s:16     .text:0000000000000000 .L0 
     /tmp/ccCGSzyp.s:17     .text:0000000000000000 .L0 
     /tmp/ccCGSzyp.s:19     .text:0000000000000004 .L0 
     /tmp/ccCGSzyp.s:21     .text:0000000000000008 .L0 
     /tmp/ccCGSzyp.s:22     .text:000000000000000c .L0 
     /tmp/ccCGSzyp.s:27     .text:000000000000001c .L0 
     /tmp/ccCGSzyp.s:28     .text:000000000000001c .L0 
     /tmp/ccCGSzyp.s:29     .text:000000000000001c .L0 
     /tmp/ccCGSzyp.s:30     .text:000000000000001c .L0 
     /tmp/ccCGSzyp.s:32     .text:0000000000000020 .L0 
     /tmp/ccCGSzyp.s:35     .text:0000000000000024 .L0 
     /tmp/ccCGSzyp.s:36     .text:0000000000000024 .L0 
     /tmp/ccCGSzyp.s:43     .text:000000000000002c .L0 
     /tmp/ccCGSzyp.s:44     .text:000000000000002c .L0 
     /tmp/ccCGSzyp.s:46     .text:0000000000000030 .L0 
     /tmp/ccCGSzyp.s:48     .text:0000000000000034 .L0 
     /tmp/ccCGSzyp.s:53     .text:0000000000000038 .L0 
     /tmp/ccCGSzyp.s:57     .text:000000000000003c .L0 
     /tmp/ccCGSzyp.s:58     .text:000000000000003c .L0 
     /tmp/ccCGSzyp.s:64     .text:0000000000000048 .L0 
     /tmp/ccCGSzyp.s:70     .text:0000000000000054 .L0 
     /tmp/ccCGSzyp.s:76     .text:000000000000005c .L0 
     /tmp/ccCGSzyp.s:78     .text:0000000000000060 .L0 
     /tmp/ccCGSzyp.s:80     .text:0000000000000064 .L0 
     /tmp/ccCGSzyp.s:82     .text:0000000000000068 .L0 
     /tmp/ccCGSzyp.s:86     .text:000000000000006c .L0 
     /tmp/ccCGSzyp.s:90     .text:0000000000000070 .L0 
     /tmp/ccCGSzyp.s:91     .text:0000000000000074 .L0 
     /tmp/ccCGSzyp.s:92     .text:0000000000000074 .L0 
     /tmp/ccCGSzyp.s:94     .text:0000000000000078 .L0 
     /tmp/ccCGSzyp.s:95     .text:0000000000000078 .L0 
     /tmp/ccCGSzyp.s:97     .text:000000000000007c .L0 
     /tmp/ccCGSzyp.s:100    .text:0000000000000080 .L0 
     /tmp/ccCGSzyp.s:102    .text:0000000000000084 .L0 
     /tmp/ccCGSzyp.s:106    .text:0000000000000088 .L0 
     /tmp/ccCGSzyp.s:110    .text:0000000000000088 .L0 
     /tmp/ccCGSzyp.s:114    .text:000000000000008c .L0 
     /tmp/ccCGSzyp.s:120    .text:0000000000000094 .L0 
     /tmp/ccCGSzyp.s:123    .text:0000000000000094 .L0 
     /tmp/ccCGSzyp.s:124    .text:0000000000000094 .L0 
     /tmp/ccCGSzyp.s:126    .text:0000000000000098 .L0 
     /tmp/ccCGSzyp.s:128    .text:000000000000009c .L0 
     /tmp/ccCGSzyp.s:133    .text:00000000000000a0 .L0 
     /tmp/ccCGSzyp.s:139    .text:00000000000000a4 .L0 
     /tmp/ccCGSzyp.s:140    .text:00000000000000a4 .L0 
     /tmp/ccCGSzyp.s:141    .text:00000000000000a4 .L0 
     /tmp/ccCGSzyp.s:148    .text:00000000000000a8 .L0 
     /tmp/ccCGSzyp.s:149    .text:00000000000000a8 .L0 
     /tmp/ccCGSzyp.s:151    .text:00000000000000ac .L0 
     /tmp/ccCGSzyp.s:153    .text:00000000000000b0 .L0 
     /tmp/ccCGSzyp.s:159    .text:00000000000000b4 .L0 
     /tmp/ccCGSzyp.s:164    .text:00000000000000bc .L0 
GAS LISTING /tmp/ccCGSzyp.s 			page 19


     /tmp/ccCGSzyp.s:165    .text:00000000000000bc .L0 
     /tmp/ccCGSzyp.s:167    .text:00000000000000c0 .L0 
     /tmp/ccCGSzyp.s:170    .text:00000000000000c4 .L0 
     /tmp/ccCGSzyp.s:172    .text:00000000000000c8 .L0 
     /tmp/ccCGSzyp.s:174    .text:00000000000000cc .L0 
     /tmp/ccCGSzyp.s:183    .text:00000000000000d4 .L0 
     /tmp/ccCGSzyp.s:188    .text:00000000000000dc .L0 
     /tmp/ccCGSzyp.s:193    .text:00000000000000e4 .L0 
     /tmp/ccCGSzyp.s:194    .text:00000000000000e4 .L0 
     /tmp/ccCGSzyp.s:195    .text:00000000000000e4 .L0 
     /tmp/ccCGSzyp.s:196    .text:00000000000000e4 .L0 
     /tmp/ccCGSzyp.s:197    .text:00000000000000e4 .L0 
     /tmp/ccCGSzyp.s:199    .text:00000000000000e4 .L0 
     /tmp/ccCGSzyp.s:202    .text:00000000000000e8 .L0 
     /tmp/ccCGSzyp.s:203    .text:00000000000000ec .L0 
     /tmp/ccCGSzyp.s:209    .text:00000000000000ec _ZN4_sem5blockEv
     /tmp/ccCGSzyp.s:212    .text:00000000000000ec .L0 
     /tmp/ccCGSzyp.s:214    .text:00000000000000ec .L0 
     /tmp/ccCGSzyp.s:215    .text:00000000000000f0 .L0 
     /tmp/ccCGSzyp.s:220    .text:0000000000000100 .L0 
     /tmp/ccCGSzyp.s:221    .text:0000000000000100 .L0 
     /tmp/ccCGSzyp.s:222    .text:0000000000000100 .L0 
     /tmp/ccCGSzyp.s:223    .text:0000000000000100 .L0 
     /tmp/ccCGSzyp.s:225    .text:0000000000000104 .L0 
     /tmp/ccCGSzyp.s:228    .text:0000000000000108 .L0 
     /tmp/ccCGSzyp.s:230    .text:000000000000010c .L0 
     /tmp/ccCGSzyp.s:233    .text:0000000000000114 .L0 
     /tmp/ccCGSzyp.s:234    .text:0000000000000114 .L0 
     /tmp/ccCGSzyp.s:240    .text:0000000000000120 .L0 
     /tmp/ccCGSzyp.s:241    .text:0000000000000120 .L0 
     /tmp/ccCGSzyp.s:249    .text:0000000000000128 .L0 
     /tmp/ccCGSzyp.s:250    .text:0000000000000128 .L0 
     /tmp/ccCGSzyp.s:257    .text:0000000000000134 .L0 
     /tmp/ccCGSzyp.s:263    .text:000000000000013c .L0 
     /tmp/ccCGSzyp.s:265    .text:0000000000000140 .L0 
     /tmp/ccCGSzyp.s:267    .text:0000000000000144 .L0 
     /tmp/ccCGSzyp.s:269    .text:0000000000000148 .L0 
     /tmp/ccCGSzyp.s:275    .text:000000000000014c .L0 
     /tmp/ccCGSzyp.s:276    .text:000000000000014c .L0 
     /tmp/ccCGSzyp.s:279    .text:0000000000000154 .L0 
     /tmp/ccCGSzyp.s:280    .text:0000000000000158 .L0 
     /tmp/ccCGSzyp.s:281    .text:0000000000000158 .L0 
     /tmp/ccCGSzyp.s:283    .text:000000000000015c .L0 
     /tmp/ccCGSzyp.s:284    .text:000000000000015c .L0 
     /tmp/ccCGSzyp.s:286    .text:0000000000000160 .L0 
     /tmp/ccCGSzyp.s:289    .text:0000000000000164 .L0 
     /tmp/ccCGSzyp.s:291    .text:0000000000000168 .L0 
     /tmp/ccCGSzyp.s:295    .text:000000000000016c .L0 
     /tmp/ccCGSzyp.s:299    .text:000000000000016c .L0 
     /tmp/ccCGSzyp.s:304    .text:0000000000000178 .L0 
     /tmp/ccCGSzyp.s:310    .text:0000000000000178 _ZN4_sem4waitEv
     /tmp/ccCGSzyp.s:313    .text:0000000000000178 .L0 
     /tmp/ccCGSzyp.s:315    .text:0000000000000178 .L0 
     /tmp/ccCGSzyp.s:316    .text:000000000000017c .L0 
     /tmp/ccCGSzyp.s:320    .text:0000000000000188 .L0 
     /tmp/ccCGSzyp.s:321    .text:0000000000000188 .L0 
     /tmp/ccCGSzyp.s:322    .text:0000000000000188 .L0 
GAS LISTING /tmp/ccCGSzyp.s 			page 20


     /tmp/ccCGSzyp.s:324    .text:000000000000018c .L0 
     /tmp/ccCGSzyp.s:327    .text:0000000000000190 .L0 
     /tmp/ccCGSzyp.s:329    .text:0000000000000194 .L0 
     /tmp/ccCGSzyp.s:332    .text:000000000000019c .L0 
     /tmp/ccCGSzyp.s:337    .text:00000000000001a4 .L0 
     /tmp/ccCGSzyp.s:338    .text:00000000000001a4 .L0 
     /tmp/ccCGSzyp.s:340    .text:00000000000001a8 .L0 
     /tmp/ccCGSzyp.s:342    .text:00000000000001ac .L0 
     /tmp/ccCGSzyp.s:343    .text:00000000000001ac .L0 
     /tmp/ccCGSzyp.s:345    .text:00000000000001b0 .L0 
     /tmp/ccCGSzyp.s:348    .text:00000000000001b4 .L0 
     /tmp/ccCGSzyp.s:349    .text:00000000000001b8 .L0 
     /tmp/ccCGSzyp.s:350    .text:00000000000001b8 .L0 
     /tmp/ccCGSzyp.s:352    .text:00000000000001bc .L0 
     /tmp/ccCGSzyp.s:353    .text:00000000000001bc .L0 
     /tmp/ccCGSzyp.s:355    .text:00000000000001c0 .L0 
     /tmp/ccCGSzyp.s:358    .text:00000000000001c4 .L0 
     /tmp/ccCGSzyp.s:362    .text:00000000000001c8 .L0 
     /tmp/ccCGSzyp.s:364    .text:00000000000001c8 .L0 
     /tmp/ccCGSzyp.s:365    .text:00000000000001c8 .L0 
     /tmp/ccCGSzyp.s:370    .text:00000000000001d4 .L0 
     /tmp/ccCGSzyp.s:371    .text:00000000000001d4 .L0 
     /tmp/ccCGSzyp.s:374    .text:00000000000001dc .L0 
     /tmp/ccCGSzyp.s:375    .text:00000000000001dc .L0 
     /tmp/ccCGSzyp.s:379    .text:00000000000001e4 .L0 
     /tmp/ccCGSzyp.s:381    .text:00000000000001ec .L0 
     /tmp/ccCGSzyp.s:387    .text:00000000000001ec _ZN4_sem7deblockEv
     /tmp/ccCGSzyp.s:390    .text:00000000000001ec .L0 
     /tmp/ccCGSzyp.s:392    .text:00000000000001ec .L0 
     /tmp/ccCGSzyp.s:393    .text:00000000000001f0 .L0 
     /tmp/ccCGSzyp.s:397    .text:00000000000001fc .L0 
     /tmp/ccCGSzyp.s:398    .text:00000000000001fc .L0 
     /tmp/ccCGSzyp.s:399    .text:00000000000001fc .L0 
     /tmp/ccCGSzyp.s:401    .text:0000000000000200 .L0 
     /tmp/ccCGSzyp.s:404    .text:0000000000000204 .L0 
     /tmp/ccCGSzyp.s:406    .text:0000000000000208 .L0 
     /tmp/ccCGSzyp.s:412    .text:0000000000000210 .L0 
     /tmp/ccCGSzyp.s:413    .text:0000000000000210 .L0 
     /tmp/ccCGSzyp.s:416    .text:0000000000000214 .L0 
     /tmp/ccCGSzyp.s:419    .text:0000000000000218 .L0 
     /tmp/ccCGSzyp.s:421    .text:000000000000021c .L0 
     /tmp/ccCGSzyp.s:423    .text:0000000000000220 .L0 
     /tmp/ccCGSzyp.s:426    .text:0000000000000224 .L0 
     /tmp/ccCGSzyp.s:429    .text:0000000000000228 .L0 
     /tmp/ccCGSzyp.s:437    .text:0000000000000230 .L0 
     /tmp/ccCGSzyp.s:438    .text:0000000000000230 .L0 
     /tmp/ccCGSzyp.s:439    .text:0000000000000230 .L0 
     /tmp/ccCGSzyp.s:444    .text:0000000000000234 .L0 
     /tmp/ccCGSzyp.s:445    .text:0000000000000234 .L0 
     /tmp/ccCGSzyp.s:449    .text:0000000000000240 .L0 
     /tmp/ccCGSzyp.s:450    .text:0000000000000244 .L0 
     /tmp/ccCGSzyp.s:451    .text:0000000000000244 .L0 
     /tmp/ccCGSzyp.s:453    .text:0000000000000248 .L0 
     /tmp/ccCGSzyp.s:454    .text:0000000000000248 .L0 
     /tmp/ccCGSzyp.s:456    .text:000000000000024c .L0 
     /tmp/ccCGSzyp.s:459    .text:0000000000000250 .L0 
     /tmp/ccCGSzyp.s:463    .text:0000000000000254 .L0 
GAS LISTING /tmp/ccCGSzyp.s 			page 21


     /tmp/ccCGSzyp.s:467    .text:0000000000000254 .L0 
     /tmp/ccCGSzyp.s:472    .text:000000000000025c .L0 
     /tmp/ccCGSzyp.s:476    .text:0000000000000264 .L0 
     /tmp/ccCGSzyp.s:482    .text:0000000000000264 _ZN4_sem6signalEv
     /tmp/ccCGSzyp.s:485    .text:0000000000000264 .L0 
     /tmp/ccCGSzyp.s:487    .text:0000000000000264 .L0 
     /tmp/ccCGSzyp.s:488    .text:0000000000000264 .L0 
     /tmp/ccCGSzyp.s:489    .text:0000000000000264 .L0 
     /tmp/ccCGSzyp.s:491    .text:0000000000000268 .L0 
     /tmp/ccCGSzyp.s:493    .text:000000000000026c .L0 
     /tmp/ccCGSzyp.s:495    .text:0000000000000270 .L0 
     /tmp/ccCGSzyp.s:499    .text:000000000000027c .L0 
     /tmp/ccCGSzyp.s:501    .text:0000000000000280 .L0 
     /tmp/ccCGSzyp.s:504    .text:0000000000000284 .L0 
     /tmp/ccCGSzyp.s:508    .text:0000000000000288 .L0 
     /tmp/ccCGSzyp.s:509    .text:000000000000028c .L0 
     /tmp/ccCGSzyp.s:512    .text:0000000000000294 .L0 
     /tmp/ccCGSzyp.s:513    .text:0000000000000294 .L0 
     /tmp/ccCGSzyp.s:515    .text:0000000000000298 .L0 
     /tmp/ccCGSzyp.s:517    .text:0000000000000298 .L0 
     /tmp/ccCGSzyp.s:518    .text:0000000000000298 .L0 
     /tmp/ccCGSzyp.s:521    .text:00000000000002a0 .L0 
     /tmp/ccCGSzyp.s:523    .text:00000000000002a4 .L0 
     /tmp/ccCGSzyp.s:524    .text:00000000000002a8 .L0 
     /tmp/ccCGSzyp.s:526    .text:00000000000002ac .L0 
     /tmp/ccCGSzyp.s:527    .text:00000000000002ac .L0 
     /tmp/ccCGSzyp.s:529    .text:00000000000002b0 .L0 
     /tmp/ccCGSzyp.s:534    .text:00000000000002b4 .L0 
     /tmp/ccCGSzyp.s:537    .text:00000000000002bc .L0 
     /tmp/ccCGSzyp.s:543    .text:00000000000002bc _ZN4_sem15createSemaphoreEPPS_j
     /tmp/ccCGSzyp.s:546    .text:00000000000002bc .L0 
     /tmp/ccCGSzyp.s:548    .text:00000000000002bc .L0 
     /tmp/ccCGSzyp.s:549    .text:00000000000002c0 .L0 
     /tmp/ccCGSzyp.s:554    .text:00000000000002d0 .L0 
     /tmp/ccCGSzyp.s:555    .text:00000000000002d0 .L0 
     /tmp/ccCGSzyp.s:556    .text:00000000000002d0 .L0 
     /tmp/ccCGSzyp.s:557    .text:00000000000002d0 .L0 
     /tmp/ccCGSzyp.s:559    .text:00000000000002d4 .L0 
     /tmp/ccCGSzyp.s:563    .text:00000000000002dc .L0 
     /tmp/ccCGSzyp.s:564    .text:00000000000002dc .L0 
     /tmp/ccCGSzyp.s:572    .text:00000000000002e8 .L0 
     /tmp/ccCGSzyp.s:579    .text:00000000000002f4 .L0 
     /tmp/ccCGSzyp.s:587    .text:00000000000002fc .L0 
     /tmp/ccCGSzyp.s:589    .text:0000000000000300 .L0 
     /tmp/ccCGSzyp.s:590    .text:0000000000000300 .L0 
     /tmp/ccCGSzyp.s:591    .text:0000000000000304 .L0 
     /tmp/ccCGSzyp.s:593    .text:0000000000000308 .L0 
     /tmp/ccCGSzyp.s:594    .text:0000000000000308 .L0 
     /tmp/ccCGSzyp.s:596    .text:000000000000030c .L0 
     /tmp/ccCGSzyp.s:599    .text:0000000000000310 .L0 
     /tmp/ccCGSzyp.s:601    .text:0000000000000314 .L0 
     /tmp/ccCGSzyp.s:603    .text:0000000000000318 .L0 
     /tmp/ccCGSzyp.s:609    .text:0000000000000318 _ZN4_semD2Ev
     /tmp/ccCGSzyp.s:612    .text:0000000000000318 .L0 
     /tmp/ccCGSzyp.s:4404   .data.rel.local.DW.ref.__gxx_personality_v0:0000000000000000 DW.ref.__gxx_personality_v0
     /tmp/ccCGSzyp.s:616    .text:0000000000000318 .L0 
     /tmp/ccCGSzyp.s:617    .text:000000000000031c .L0 
GAS LISTING /tmp/ccCGSzyp.s 			page 22


     /tmp/ccCGSzyp.s:620    .text:0000000000000324 .L0 
     /tmp/ccCGSzyp.s:621    .text:0000000000000324 .L0 
     /tmp/ccCGSzyp.s:623    .text:0000000000000328 .L0 
     /tmp/ccCGSzyp.s:626    .text:0000000000000328 .L0 
     /tmp/ccCGSzyp.s:627    .text:0000000000000328 .L0 
     /tmp/ccCGSzyp.s:631    .text:0000000000000330 .L0 
     /tmp/ccCGSzyp.s:632    .text:0000000000000334 .L0 
     /tmp/ccCGSzyp.s:634    .text:0000000000000338 .L0 
     /tmp/ccCGSzyp.s:635    .text:0000000000000338 .L0 
     /tmp/ccCGSzyp.s:637    .text:000000000000033c .L0 
     /tmp/ccCGSzyp.s:639    .text:0000000000000340 .L0 
     /tmp/ccCGSzyp.s:609    .text:0000000000000318 _ZN4_semD1Ev
     /tmp/ccCGSzyp.s:656    .text:0000000000000340 .L0 
     /tmp/ccCGSzyp.s:58     .text:000000000000003c .L0 
     /tmp/ccCGSzyp.s:234    .text:0000000000000114 .L0 
     /tmp/ccCGSzyp.s:192    .text:00000000000000e4 .L9
     /tmp/ccCGSzyp.s:55     .text:000000000000003c .L3
     /tmp/ccCGSzyp.s:116    .text:0000000000000094 .L7
     /tmp/ccCGSzyp.s:177    .text:00000000000000d4 .L8
     /tmp/ccCGSzyp.s:154    .text:00000000000000b4 .L4
     /tmp/ccCGSzyp.s:111    .text:000000000000008c .L6
     /tmp/ccCGSzyp.s:105    .text:0000000000000088 .L14
     /tmp/ccCGSzyp.s:88     .text:0000000000000070 .L2
     /tmp/ccCGSzyp.s:294    .text:000000000000016c .L16
     /tmp/ccCGSzyp.s:270    .text:000000000000014c .L17
     /tmp/ccCGSzyp.s:361    .text:00000000000001c8 .L24
     /tmp/ccCGSzyp.s:377    .text:00000000000001e4 .L22
     /tmp/ccCGSzyp.s:368    .text:00000000000001d4 .L25
     /tmp/ccCGSzyp.s:335    .text:00000000000001a4 .L20
     /tmp/ccCGSzyp.s:346    .text:00000000000001b4 .L21
     /tmp/ccCGSzyp.s:470    .text:000000000000025c .L29
     /tmp/ccCGSzyp.s:462    .text:0000000000000254 .L31
     /tmp/ccCGSzyp.s:424    .text:0000000000000224 .L28
     /tmp/ccCGSzyp.s:431    .text:0000000000000230 .L27
     /tmp/ccCGSzyp.s:532    .text:00000000000002b4 .L34
     /tmp/ccCGSzyp.s:506    .text:0000000000000288 .L40
     /tmp/ccCGSzyp.s:2437   .debug_abbrev:0000000000000000 .Ldebug_abbrev0
     /tmp/ccCGSzyp.s:4328   .debug_str:00000000000006be .LASF133
     /tmp/ccCGSzyp.s:4108   .debug_str:0000000000000052 .LASF134
     /tmp/ccCGSzyp.s:4324   .debug_str:000000000000068e .LASF135
     /tmp/ccCGSzyp.s:5      .text:0000000000000000 .Ltext0
     /tmp/ccCGSzyp.s:652    .text:0000000000000340 .Letext0
     /tmp/ccCGSzyp.s:4100   .debug_line:0000000000000000 .Ldebug_line0
     /tmp/ccCGSzyp.s:4360   .debug_str:0000000000000874 .LASF64
     /tmp/ccCGSzyp.s:4352   .debug_str:0000000000000820 .LASF19
     /tmp/ccCGSzyp.s:4208   .debug_str:000000000000035d .LASF0
     /tmp/ccCGSzyp.s:4136   .debug_str:0000000000000124 .LASF1
     /tmp/ccCGSzyp.s:4390   .debug_str:0000000000000960 .LASF58
     /tmp/ccCGSzyp.s:4302   .debug_str:0000000000000618 .LASF2
     /tmp/ccCGSzyp.s:4240   .debug_str:0000000000000440 .LASF3
     /tmp/ccCGSzyp.s:4232   .debug_str:0000000000000409 .LASF4
     /tmp/ccCGSzyp.s:4296   .debug_str:00000000000005e0 .LASF6
     /tmp/ccCGSzyp.s:4170   .debug_str:0000000000000226 .LASF11
     /tmp/ccCGSzyp.s:4276   .debug_str:0000000000000566 .LASF21
     /tmp/ccCGSzyp.s:4268   .debug_str:0000000000000528 .LASF23
     /tmp/ccCGSzyp.s:4270   .debug_str:000000000000053f .LASF5
     /tmp/ccCGSzyp.s:4128   .debug_str:00000000000000d2 .LASF7
GAS LISTING /tmp/ccCGSzyp.s 			page 23


     /tmp/ccCGSzyp.s:4218   .debug_str:00000000000003a1 .LASF8
     /tmp/ccCGSzyp.s:4164   .debug_str:00000000000001e1 .LASF9
     /tmp/ccCGSzyp.s:4254   .debug_str:00000000000004a2 .LASF10
     /tmp/ccCGSzyp.s:4364   .debug_str:000000000000088e .LASF12
     /tmp/ccCGSzyp.s:4396   .debug_str:0000000000000991 .LASF13
     /tmp/ccCGSzyp.s:4388   .debug_str:0000000000000945 .LASF14
     /tmp/ccCGSzyp.s:4288   .debug_str:00000000000005aa .LASF15
     /tmp/ccCGSzyp.s:4204   .debug_str:000000000000032d .LASF16
     /tmp/ccCGSzyp.s:4264   .debug_str:000000000000050f .LASF17
     /tmp/ccCGSzyp.s:4104   .debug_str:0000000000000010 .LASF18
     /tmp/ccCGSzyp.s:4314   .debug_str:000000000000064b .LASF20
     /tmp/ccCGSzyp.s:4116   .debug_str:0000000000000085 .LASF136
     /tmp/ccCGSzyp.s:4282   .debug_str:0000000000000584 .LASF22
     /tmp/ccCGSzyp.s:4338   .debug_str:00000000000007bd .LASF24
     /tmp/ccCGSzyp.s:4294   .debug_str:00000000000005cf .LASF48
     /tmp/ccCGSzyp.s:4182   .debug_str:0000000000000278 .LASF137
     /tmp/ccCGSzyp.s:4316   .debug_str:0000000000000653 .LASF25
     /tmp/ccCGSzyp.s:4238   .debug_str:0000000000000429 .LASF26
     /tmp/ccCGSzyp.s:4124   .debug_str:00000000000000b8 .LASF27
     /tmp/ccCGSzyp.s:4346   .debug_str:00000000000007f8 .LASF28
     /tmp/ccCGSzyp.s:4234   .debug_str:000000000000040e .LASF29
     /tmp/ccCGSzyp.s:4150   .debug_str:0000000000000196 .LASF30
     /tmp/ccCGSzyp.s:4340   .debug_str:00000000000007c9 .LASF31
     /tmp/ccCGSzyp.s:4244   .debug_str:0000000000000464 .LASF32
     /tmp/ccCGSzyp.s:4378   .debug_str:0000000000000912 .LASF33
     /tmp/ccCGSzyp.s:4130   .debug_str:00000000000000ef .LASF34
     /tmp/ccCGSzyp.s:4320   .debug_str:000000000000067e .LASF35
     /tmp/ccCGSzyp.s:4140   .debug_str:000000000000013c .LASF36
     /tmp/ccCGSzyp.s:4258   .debug_str:00000000000004ca .LASF37
     /tmp/ccCGSzyp.s:4246   .debug_str:000000000000047b .LASF38
     /tmp/ccCGSzyp.s:4370   .debug_str:00000000000008cc .LASF39
     /tmp/ccCGSzyp.s:4132   .debug_str:0000000000000104 .LASF40
     /tmp/ccCGSzyp.s:4214   .debug_str:000000000000037b .LASF41
     /tmp/ccCGSzyp.s:4354   .debug_str:0000000000000825 .LASF42
     /tmp/ccCGSzyp.s:4382   .debug_str:0000000000000923 .LASF43
     /tmp/ccCGSzyp.s:4362   .debug_str:000000000000087e .LASF44
     /tmp/ccCGSzyp.s:4306   .debug_str:0000000000000622 .LASF45
     /tmp/ccCGSzyp.s:4356   .debug_str:000000000000083e .LASF46
     /tmp/ccCGSzyp.s:4252   .debug_str:000000000000049d .LASF138
     /tmp/ccCGSzyp.s:4212   .debug_str:0000000000000375 .LASF139
     /tmp/ccCGSzyp.s:4330   .debug_str:0000000000000782 .LASF140
     /tmp/ccCGSzyp.s:4326   .debug_str:00000000000006b6 .LASF47
     /tmp/ccCGSzyp.s:4180   .debug_str:0000000000000261 .LASF141
     /tmp/ccCGSzyp.s:4152   .debug_str:00000000000001ad .LASF49
     /tmp/ccCGSzyp.s:4224   .debug_str:00000000000003ce .LASF50
     /tmp/ccCGSzyp.s:4344   .debug_str:00000000000007f0 .LASF51
     /tmp/ccCGSzyp.s:4332   .debug_str:0000000000000792 .LASF52
     /tmp/ccCGSzyp.s:4292   .debug_str:00000000000005c6 .LASF53
     /tmp/ccCGSzyp.s:4312   .debug_str:0000000000000642 .LASF54
     /tmp/ccCGSzyp.s:4248   .debug_str:000000000000048e .LASF55
     /tmp/ccCGSzyp.s:4392   .debug_str:000000000000097f .LASF56
     /tmp/ccCGSzyp.s:4126   .debug_str:00000000000000c4 .LASF60
     /tmp/ccCGSzyp.s:4216   .debug_str:0000000000000388 .LASF62
     /tmp/ccCGSzyp.s:4148   .debug_str:0000000000000188 .LASF57
     /tmp/ccCGSzyp.s:4106   .debug_str:000000000000002a .LASF59
     /tmp/ccCGSzyp.s:4154   .debug_str:00000000000001b2 .LASF61
     /tmp/ccCGSzyp.s:4138   .debug_str:0000000000000129 .LASF63
GAS LISTING /tmp/ccCGSzyp.s 			page 24


     /tmp/ccCGSzyp.s:4286   .debug_str:0000000000000599 .LASF83
     /tmp/ccCGSzyp.s:4304   .debug_str:000000000000061d .LASF65
     /tmp/ccCGSzyp.s:4278   .debug_str:0000000000000570 .LASF66
     /tmp/ccCGSzyp.s:4160   .debug_str:00000000000001c5 .LASF67
     /tmp/ccCGSzyp.s:4226   .debug_str:00000000000003d4 .LASF68
     /tmp/ccCGSzyp.s:4156   .debug_str:00000000000001bb .LASF69
     /tmp/ccCGSzyp.s:4236   .debug_str:0000000000000419 .LASF70
     /tmp/ccCGSzyp.s:4310   .debug_str:000000000000063b .LASF71
     /tmp/ccCGSzyp.s:4298   .debug_str:00000000000005f3 .LASF72
     /tmp/ccCGSzyp.s:4146   .debug_str:0000000000000182 .LASF73
     /tmp/ccCGSzyp.s:4118   .debug_str:000000000000008f .LASF74
     /tmp/ccCGSzyp.s:4188   .debug_str:00000000000002b7 .LASF75
     /tmp/ccCGSzyp.s:4228   .debug_str:00000000000003e1 .LASF76
     /tmp/ccCGSzyp.s:4272   .debug_str:0000000000000548 .LASF77
     /tmp/ccCGSzyp.s:4318   .debug_str:000000000000065e .LASF78
     /tmp/ccCGSzyp.s:4194   .debug_str:00000000000002e5 .LASF79
     /tmp/ccCGSzyp.s:4168   .debug_str:0000000000000215 .LASF80
     /tmp/ccCGSzyp.s:4386   .debug_str:000000000000093d .LASF81
     /tmp/ccCGSzyp.s:4366   .debug_str:00000000000008ac .LASF82
     /tmp/ccCGSzyp.s:4348   .debug_str:000000000000080f .LASF84
     /tmp/ccCGSzyp.s:4334   .debug_str:000000000000079c .LASF85
     /tmp/ccCGSzyp.s:4196   .debug_str:00000000000002eb .LASF86
     /tmp/ccCGSzyp.s:4222   .debug_str:00000000000003c9 .LASF87
     /tmp/ccCGSzyp.s:4210   .debug_str:0000000000000362 .LASF88
     /tmp/ccCGSzyp.s:4274   .debug_str:0000000000000558 .LASF89
     /tmp/ccCGSzyp.s:4280   .debug_str:000000000000057d .LASF91
     /tmp/ccCGSzyp.s:4200   .debug_str:00000000000002fd .LASF90
     /tmp/ccCGSzyp.s:4112   .debug_str:0000000000000069 .LASF92
     /tmp/ccCGSzyp.s:4300   .debug_str:0000000000000605 .LASF93
     /tmp/ccCGSzyp.s:4206   .debug_str:000000000000034a .LASF94
     /tmp/ccCGSzyp.s:4284   .debug_str:0000000000000589 .LASF95
     /tmp/ccCGSzyp.s:4184   .debug_str:0000000000000295 .LASF96
     /tmp/ccCGSzyp.s:4134   .debug_str:0000000000000115 .LASF97
     /tmp/ccCGSzyp.s:4174   .debug_str:0000000000000243 .LASF98
     /tmp/ccCGSzyp.s:4142   .debug_str:0000000000000152 .LASF99
     /tmp/ccCGSzyp.s:4358   .debug_str:0000000000000864 .LASF100
     /tmp/ccCGSzyp.s:4308   .debug_str:000000000000062f .LASF101
     /tmp/ccCGSzyp.s:4162   .debug_str:00000000000001cb .LASF102
     /tmp/ccCGSzyp.s:4230   .debug_str:00000000000003f3 .LASF103
     /tmp/ccCGSzyp.s:4178   .debug_str:0000000000000257 .LASF104
     /tmp/ccCGSzyp.s:4290   .debug_str:00000000000005b5 .LASF105
     /tmp/ccCGSzyp.s:4384   .debug_str:0000000000000929 .LASF142
     /tmp/ccCGSzyp.s:4190   .debug_str:00000000000002bd .LASF143
     /tmp/ccCGSzyp.s:4322   .debug_str:0000000000000689 .LASF106
     /tmp/ccCGSzyp.s:4374   .debug_str:00000000000008ef .LASF107
     /tmp/ccCGSzyp.s:4144   .debug_str:0000000000000162 .LASF108
     /tmp/ccCGSzyp.s:4186   .debug_str:00000000000002a3 .LASF109
     /tmp/ccCGSzyp.s:4166   .debug_str:00000000000001fd .LASF110
     /tmp/ccCGSzyp.s:4376   .debug_str:00000000000008fa .LASF111
     /tmp/ccCGSzyp.s:4262   .debug_str:00000000000004f1 .LASF112
     /tmp/ccCGSzyp.s:4372   .debug_str:00000000000008d2 .LASF113
     /tmp/ccCGSzyp.s:4242   .debug_str:0000000000000445 .LASF114
     /tmp/ccCGSzyp.s:4256   .debug_str:00000000000004ae .LASF115
     /tmp/ccCGSzyp.s:4202   .debug_str:000000000000030f .LASF116
     /tmp/ccCGSzyp.s:4342   .debug_str:00000000000007d5 .LASF117
     /tmp/ccCGSzyp.s:4192   .debug_str:00000000000002d5 .LASF144
     /tmp/ccCGSzyp.s:4176   .debug_str:0000000000000252 .LASF118
GAS LISTING /tmp/ccCGSzyp.s 			page 25


     /tmp/ccCGSzyp.s:4260   .debug_str:00000000000004d2 .LASF119
     /tmp/ccCGSzyp.s:4220   .debug_str:00000000000003a9 .LASF120
     /tmp/ccCGSzyp.s:4198   .debug_str:00000000000002f8 .LASF121
     /tmp/ccCGSzyp.s:4122   .debug_str:00000000000000a5 .LASF122
     /tmp/ccCGSzyp.s:4110   .debug_str:000000000000005f .LASF123
     /tmp/ccCGSzyp.s:4336   .debug_str:00000000000007b0 .LASF145
     /tmp/ccCGSzyp.s:610    .text:0000000000000318 .LFB67
     /tmp/ccCGSzyp.s:640    .text:0000000000000340 .LFE67
     /tmp/ccCGSzyp.s:3586   .debug_loc:0000000000000000 .LLST37
     /tmp/ccCGSzyp.s:628    .text:0000000000000330 .LVL61
     /tmp/ccCGSzyp.s:544    .text:00000000000002bc .LFB65
     /tmp/ccCGSzyp.s:604    .text:0000000000000318 .LFE65
     /tmp/ccCGSzyp.s:4380   .debug_str:000000000000091c .LASF124
     /tmp/ccCGSzyp.s:3600   .debug_loc:0000000000000039 .LLST32
     /tmp/ccCGSzyp.s:4120   .debug_str:00000000000000a0 .LASF125
     /tmp/ccCGSzyp.s:3618   .debug_loc:0000000000000085 .LLST33
     /tmp/ccCGSzyp.s:568    .text:00000000000002e8 .LBB91
     /tmp/ccCGSzyp.s:585    .text:00000000000002fc .LBE91
     /tmp/ccCGSzyp.s:3632   .debug_loc:00000000000000be .LLST34
     /tmp/ccCGSzyp.s:3639   .debug_loc:00000000000000e1 .LLST35
     /tmp/ccCGSzyp.s:576    .text:00000000000002f4 .LBB93
     /tmp/ccCGSzyp.s:583    .text:00000000000002fc .LBE93
     /tmp/ccCGSzyp.s:3646   .debug_loc:0000000000000104 .LLST36
     /tmp/ccCGSzyp.s:567    .text:00000000000002e8 .LVL56
     /tmp/ccCGSzyp.s:388    .text:00000000000001ec .LFB64
     /tmp/ccCGSzyp.s:477    .text:0000000000000264 .LFE64
     /tmp/ccCGSzyp.s:3655   .debug_loc:0000000000000129 .LLST24
     /tmp/ccCGSzyp.s:4158   .debug_str:00000000000001c0 .LASF126
     /tmp/ccCGSzyp.s:3677   .debug_loc:0000000000000188 .LLST25
     /tmp/ccCGSzyp.s:410    .text:0000000000000210 .LBB85
     /tmp/ccCGSzyp.s:4074   .debug_ranges:0000000000000000 .Ldebug_ranges0
     /tmp/ccCGSzyp.s:3684   .debug_loc:00000000000001ab .LLST26
     /tmp/ccCGSzyp.s:3714   .debug_loc:0000000000000212 .LLST27
     /tmp/ccCGSzyp.s:3725   .debug_loc:0000000000000248 .LLST28
     /tmp/ccCGSzyp.s:430    .text:0000000000000230 .LVL42
     /tmp/ccCGSzyp.s:435    .text:0000000000000230 .LBB88
     /tmp/ccCGSzyp.s:442    .text:0000000000000234 .LBE88
     /tmp/ccCGSzyp.s:3732   .debug_loc:000000000000026b .LLST29
     /tmp/ccCGSzyp.s:3740   .debug_loc:000000000000028f .LLST30
     /tmp/ccCGSzyp.s:447    .text:0000000000000240 .LVL44
     /tmp/ccCGSzyp.s:210    .text:00000000000000ec .LFB63
     /tmp/ccCGSzyp.s:305    .text:0000000000000178 .LFE63
     /tmp/ccCGSzyp.s:3747   .debug_loc:00000000000002b2 .LLST14
     /tmp/ccCGSzyp.s:237    .text:0000000000000120 .LBB77
     /tmp/ccCGSzyp.s:245    .text:0000000000000128 .LBE77
     /tmp/ccCGSzyp.s:3769   .debug_loc:0000000000000311 .LLST15
     /tmp/ccCGSzyp.s:3777   .debug_loc:0000000000000335 .LLST16
     /tmp/ccCGSzyp.s:247    .text:0000000000000128 .LBB79
     /tmp/ccCGSzyp.s:3784   .debug_loc:0000000000000358 .LLST17
     /tmp/ccCGSzyp.s:3795   .debug_loc:000000000000038e .LLST18
     /tmp/ccCGSzyp.s:3816   .debug_loc:00000000000003dd .LLST19
     /tmp/ccCGSzyp.s:254    .text:0000000000000134 .LBB81
     /tmp/ccCGSzyp.s:261    .text:000000000000013c .LBE81
     /tmp/ccCGSzyp.s:3827   .debug_loc:0000000000000413 .LLST20
     /tmp/ccCGSzyp.s:3835   .debug_loc:0000000000000437 .LLST21
     /tmp/ccCGSzyp.s:3842   .debug_loc:000000000000045a .LLST22
     /tmp/ccCGSzyp.s:253    .text:0000000000000134 .LVL26
GAS LISTING /tmp/ccCGSzyp.s 			page 26


     /tmp/ccCGSzyp.s:277    .text:0000000000000154 .LVL29
     /tmp/ccCGSzyp.s:10     .text:0000000000000000 .LFB62
     /tmp/ccCGSzyp.s:204    .text:00000000000000ec .LFE62
     /tmp/ccCGSzyp.s:3849   .debug_loc:000000000000047d .LLST0
     /tmp/ccCGSzyp.s:40     .text:000000000000002c .LBB59
     /tmp/ccCGSzyp.s:51     .text:0000000000000038 .LBE59
     /tmp/ccCGSzyp.s:3882   .debug_loc:0000000000000505 .LLST1
     /tmp/ccCGSzyp.s:61     .text:0000000000000048 .LBB61
     /tmp/ccCGSzyp.s:3891   .debug_loc:000000000000052a .LLST2
     /tmp/ccCGSzyp.s:3902   .debug_loc:0000000000000560 .LLST3
     /tmp/ccCGSzyp.s:3913   .debug_loc:0000000000000596 .LLST4
     /tmp/ccCGSzyp.s:67     .text:0000000000000054 .LBB63
     /tmp/ccCGSzyp.s:74     .text:000000000000005c .LBE63
     /tmp/ccCGSzyp.s:3929   .debug_loc:00000000000005e0 .LLST5
     /tmp/ccCGSzyp.s:3937   .debug_loc:0000000000000604 .LLST6
     /tmp/ccCGSzyp.s:3944   .debug_loc:0000000000000627 .LLST7
     /tmp/ccCGSzyp.s:66     .text:0000000000000054 .LVL5
     /tmp/ccCGSzyp.s:107    .text:0000000000000088 .LBB66
     /tmp/ccCGSzyp.s:3951   .debug_loc:000000000000064a .LLST8
     /tmp/ccCGSzyp.s:3962   .debug_loc:0000000000000680 .LLST9
     /tmp/ccCGSzyp.s:115    .text:0000000000000094 .LVL11
     /tmp/ccCGSzyp.s:121    .text:0000000000000094 .LBB69
     /tmp/ccCGSzyp.s:131    .text:00000000000000a0 .LBE69
     /tmp/ccCGSzyp.s:3970   .debug_loc:00000000000006a4 .LLST10
     /tmp/ccCGSzyp.s:136    .text:00000000000000a4 .LBB71
     /tmp/ccCGSzyp.s:144    .text:00000000000000a8 .LBE71
     /tmp/ccCGSzyp.s:3979   .debug_loc:00000000000006c9 .LLST11
     /tmp/ccCGSzyp.s:3987   .debug_loc:00000000000006ed .LLST12
     /tmp/ccCGSzyp.s:146    .text:00000000000000a8 .LBB73
     /tmp/ccCGSzyp.s:157    .text:00000000000000b4 .LBE73
     /tmp/ccCGSzyp.s:3994   .debug_loc:0000000000000710 .LLST13
     /tmp/ccCGSzyp.s:160    .text:00000000000000bc .LVL16
     /tmp/ccCGSzyp.s:483    .text:0000000000000264 .LFB61
     /tmp/ccCGSzyp.s:538    .text:00000000000002bc .LFE61
     /tmp/ccCGSzyp.s:4003   .debug_loc:0000000000000735 .LLST31
     /tmp/ccCGSzyp.s:519    .text:00000000000002a0 .LVL51
     /tmp/ccCGSzyp.s:311    .text:0000000000000178 .LFB60
     /tmp/ccCGSzyp.s:382    .text:00000000000001ec .LFE60
     /tmp/ccCGSzyp.s:4039   .debug_loc:00000000000007c0 .LLST23
     /tmp/ccCGSzyp.s:366    .text:00000000000001d0 .LVL36
     /tmp/ccCGSzyp.s:4350   .debug_str:0000000000000816 .LASF127
     /tmp/ccCGSzyp.s:4368   .debug_str:00000000000008bf .LASF128
     /tmp/ccCGSzyp.s:4172   .debug_str:000000000000023d .LASF129
     /tmp/ccCGSzyp.s:4394   .debug_str:0000000000000984 .LASF131
     /tmp/ccCGSzyp.s:4250   .debug_str:0000000000000496 .LASF130
     /tmp/ccCGSzyp.s:4102   .debug_str:0000000000000000 .LASF132
     /tmp/ccCGSzyp.s:4114   .debug_str:0000000000000070 .LASF146
     /tmp/ccCGSzyp.s:4266   .debug_str:0000000000000518 .LASF147
     /tmp/ccCGSzyp.s:615    .text:0000000000000318 .LVL60
     /tmp/ccCGSzyp.s:547    .text:00000000000002bc .LVL54
     /tmp/ccCGSzyp.s:565    .text:00000000000002e0 .LVL55
     /tmp/ccCGSzyp.s:597    .text:000000000000030c .LVL59
     /tmp/ccCGSzyp.s:581    .text:00000000000002fc .LVL58
     /tmp/ccCGSzyp.s:575    .text:00000000000002f4 .LVL57
     /tmp/ccCGSzyp.s:391    .text:00000000000001ec .LVL37
     /tmp/ccCGSzyp.s:414    .text:0000000000000214 .LVL39
     /tmp/ccCGSzyp.s:461    .text:0000000000000254 .LVL46
GAS LISTING /tmp/ccCGSzyp.s 			page 27


     /tmp/ccCGSzyp.s:457    .text:000000000000024c .LVL45
     /tmp/ccCGSzyp.s:409    .text:0000000000000210 .LVL38
     /tmp/ccCGSzyp.s:417    .text:0000000000000218 .LVL40
     /tmp/ccCGSzyp.s:469    .text:000000000000025c .LVL47
     /tmp/ccCGSzyp.s:427    .text:0000000000000228 .LVL41
     /tmp/ccCGSzyp.s:440    .text:0000000000000234 .LVL43
     /tmp/ccCGSzyp.s:213    .text:00000000000000ec .LVL22
     /tmp/ccCGSzyp.s:251    .text:000000000000012c .LVL25
     /tmp/ccCGSzyp.s:287    .text:0000000000000160 .LVL30
     /tmp/ccCGSzyp.s:293    .text:000000000000016c .LVL31
     /tmp/ccCGSzyp.s:236    .text:0000000000000120 .LVL23
     /tmp/ccCGSzyp.s:243    .text:0000000000000128 .LVL24
     /tmp/ccCGSzyp.s:271    .text:000000000000014c .LVL28
     /tmp/ccCGSzyp.s:259    .text:000000000000013c .LVL27
     /tmp/ccCGSzyp.s:14     .text:0000000000000000 .LVL0
     /tmp/ccCGSzyp.s:54     .text:000000000000003c .LVL3
     /tmp/ccCGSzyp.s:98     .text:000000000000007c .LVL8
     /tmp/ccCGSzyp.s:104    .text:0000000000000088 .LVL9
     /tmp/ccCGSzyp.s:191    .text:00000000000000e4 .LVL20
     /tmp/ccCGSzyp.s:200    .text:00000000000000e8 .LVL21
     /tmp/ccCGSzyp.s:39     .text:000000000000002c .LVL1
     /tmp/ccCGSzyp.s:49     .text:0000000000000038 .LVL2
     /tmp/ccCGSzyp.s:60     .text:0000000000000048 .LVL4
     /tmp/ccCGSzyp.s:87     .text:0000000000000070 .LVL7
     /tmp/ccCGSzyp.s:176    .text:00000000000000d4 .LVL18
     /tmp/ccCGSzyp.s:72     .text:000000000000005c .LVL6
     /tmp/ccCGSzyp.s:189    .text:00000000000000e0 .LVL19
     /tmp/ccCGSzyp.s:168    .text:00000000000000c4 .LVL17
     /tmp/ccCGSzyp.s:112    .text:000000000000008c .LVL10
     /tmp/ccCGSzyp.s:129    .text:00000000000000a0 .LVL12
     /tmp/ccCGSzyp.s:135    .text:00000000000000a4 .LVL13
     /tmp/ccCGSzyp.s:142    .text:00000000000000a8 .LVL14
     /tmp/ccCGSzyp.s:155    .text:00000000000000b4 .LVL15
     /tmp/ccCGSzyp.s:486    .text:0000000000000264 .LVL48
     /tmp/ccCGSzyp.s:502    .text:0000000000000284 .LVL49
     /tmp/ccCGSzyp.s:505    .text:0000000000000288 .LVL50
     /tmp/ccCGSzyp.s:531    .text:00000000000002b4 .LVL52
     /tmp/ccCGSzyp.s:535    .text:00000000000002b8 .LVL53
     /tmp/ccCGSzyp.s:314    .text:0000000000000178 .LVL32
     /tmp/ccCGSzyp.s:334    .text:00000000000001a4 .LVL33
     /tmp/ccCGSzyp.s:356    .text:00000000000001c0 .LVL34
     /tmp/ccCGSzyp.s:360    .text:00000000000001c8 .LVL35
     /tmp/ccCGSzyp.s:657    .debug_info:0000000000000000 .Ldebug_info0
     /tmp/ccCGSzyp.s:84     .text:000000000000006c .LBE61
     /tmp/ccCGSzyp.s:180    .text:00000000000000d4 .LBB76
     /tmp/ccCGSzyp.s:186    .text:00000000000000dc .LBE76
     /tmp/ccCGSzyp.s:118    .text:0000000000000094 .LBE66
     /tmp/ccCGSzyp.s:162    .text:00000000000000bc .LBB75
     /tmp/ccCGSzyp.s:179    .text:00000000000000d4 .LBE75
     /tmp/ccCGSzyp.s:273    .text:000000000000014c .LBE79
     /tmp/ccCGSzyp.s:296    .text:000000000000016c .LBB84
     /tmp/ccCGSzyp.s:303    .text:0000000000000178 .LBE84
     /tmp/ccCGSzyp.s:433    .text:0000000000000230 .LBE85
     /tmp/ccCGSzyp.s:464    .text:0000000000000254 .LBB90
     /tmp/ccCGSzyp.s:475    .text:0000000000000264 .LBE90
     /tmp/ccCGSzyp.s:643    .gcc_except_table:0000000000000000 .LLSDA67

GAS LISTING /tmp/ccCGSzyp.s 			page 28


UNDEFINED SYMBOLS
_ZN5Riscv22listOfClosedSemaphoresE
_Znwm
_ZdlPv
_ZN9Scheduler3putEP3TCB
_ZN3TCB7runningE
_Z15thread_dispatchv
__gxx_personality_v0
