GAS LISTING /tmp/cc7R4v5Z.s 			page 1


   1              		.file	"_sem.cpp"
   2              		.option pic
   3              		.option norelax
   4              		.text
   5              	.Ltext0:
   6              		.align	2
   7              		.globl	_ZN4_sem5closeEv
   9              	_ZN4_sem5closeEv:
  10              	.LFB29:
  11              		.file 1 "src/_sem.cpp"
   1:src/_sem.cpp  **** //
   2:src/_sem.cpp  **** // Created by os on 9/7/22.
   3:src/_sem.cpp  **** //
   4:src/_sem.cpp  **** #include "../h/_sem.h"
   5:src/_sem.cpp  **** #include "../lib/mem.h"
   6:src/_sem.cpp  **** 
   7:src/_sem.cpp  **** int _sem::wait() {
   8:src/_sem.cpp  ****     val--;
   9:src/_sem.cpp  ****     if (val<0){
  10:src/_sem.cpp  **** //        printString("Nit ");
  11:src/_sem.cpp  **** //        printInteger(TCB::running->getId());
  12:src/_sem.cpp  **** //        printString(" blokirana\n");
  13:src/_sem.cpp  ****         block();
  14:src/_sem.cpp  ****     }
  15:src/_sem.cpp  ****     if (!closed)    //Ako semafor nije zatvoren
  16:src/_sem.cpp  ****         return 0;
  17:src/_sem.cpp  ****     else {          //Ako je semafor zatvoren NE VRACA -1 UVEK! Ako je broj blokiranih niti 0 to zn
  18:src/_sem.cpp  ****                     //oslobodila sa signal pa je onda dealociran semafor(sto je regularno)
  19:src/_sem.cpp  ****         if (NumOfBlockedThreads == 0)
  20:src/_sem.cpp  ****             return 0;
  21:src/_sem.cpp  ****         else {
  22:src/_sem.cpp  ****             NumOfBlockedThreads--;
  23:src/_sem.cpp  ****             return -1;
  24:src/_sem.cpp  ****         }
  25:src/_sem.cpp  ****     }
  26:src/_sem.cpp  **** }
  27:src/_sem.cpp  **** 
  28:src/_sem.cpp  **** int _sem::signal() {
  29:src/_sem.cpp  ****     val++;
  30:src/_sem.cpp  ****     if (val<=0) {
  31:src/_sem.cpp  ****         deblock();
  32:src/_sem.cpp  ****     }
  33:src/_sem.cpp  ****     return 0;
  34:src/_sem.cpp  **** }
  35:src/_sem.cpp  **** 
  36:src/_sem.cpp  **** int _sem::close() {
  12              		.loc 1 36 19
  13              		.cfi_startproc
  14              	.LVL0:
  37:src/_sem.cpp  ****     if (closed)
  15              		.loc 1 37 5
  16              		.loc 1 37 9 is_stmt 0
  17 0000 83470500 		lbu	a5,0(a0)
  18              		.loc 1 37 5
  19 0004 639C0708 		bnez	a5,.L8
  36:src/_sem.cpp  ****     if (closed)
  20              		.loc 1 36 19
GAS LISTING /tmp/cc7R4v5Z.s 			page 2


  21 0008 130101FE 		addi	sp,sp,-32
  22              		.cfi_def_cfa_offset 32
  23 000c 233C1100 		sd	ra,24(sp)
  24 0010 23388100 		sd	s0,16(sp)
  25 0014 23349100 		sd	s1,8(sp)
  26              		.cfi_offset 1, -8
  27              		.cfi_offset 8, -16
  28              		.cfi_offset 9, -24
  29 0018 13040102 		addi	s0,sp,32
  30              		.cfi_def_cfa 8, 0
  31 001c 93040500 		mv	s1,a0
  38:src/_sem.cpp  ****         return -1;
  39:src/_sem.cpp  ****     if (blocked.peekFirst() != nullptr) {
  32              		.loc 1 39 5 is_stmt 1
  33              	.LVL1:
  34              	.LBB46:
  35              	.LBB47:
  36              		.file 2 "src/../h/list.hpp"
   1:src/../h/list.hpp **** //
   2:src/../h/list.hpp **** // Created by marko on 20.4.22..
   3:src/../h/list.hpp **** //
   4:src/../h/list.hpp **** 
   5:src/../h/list.hpp **** #ifndef OS1_VEZBE07_RISCV_CONTEXT_SWITCH_2_INTERRUPT_LIST_HPP
   6:src/../h/list.hpp **** #define OS1_VEZBE07_RISCV_CONTEXT_SWITCH_2_INTERRUPT_LIST_HPP
   7:src/../h/list.hpp **** 
   8:src/../h/list.hpp **** #include "../h/print.hpp"
   9:src/../h/list.hpp **** 
  10:src/../h/list.hpp **** template<typename T>
  11:src/../h/list.hpp **** class List
  12:src/../h/list.hpp **** {
  13:src/../h/list.hpp **** private:
  14:src/../h/list.hpp ****     struct Elem
  15:src/../h/list.hpp ****     {
  16:src/../h/list.hpp ****         T *data;
  17:src/../h/list.hpp ****         Elem *next;
  18:src/../h/list.hpp **** 
  19:src/../h/list.hpp ****         Elem(T *data, Elem *next) : data(data), next(next) {}
  20:src/../h/list.hpp ****     };
  21:src/../h/list.hpp **** 
  22:src/../h/list.hpp ****     Elem *head, *tail;
  23:src/../h/list.hpp **** 
  24:src/../h/list.hpp **** public:
  25:src/../h/list.hpp ****     List() : head(0), tail(0) {}
  26:src/../h/list.hpp **** 
  27:src/../h/list.hpp ****     List(const List<T> &) = delete;
  28:src/../h/list.hpp **** 
  29:src/../h/list.hpp ****     List<T> &operator=(const List<T> &) = delete;
  30:src/../h/list.hpp **** 
  31:src/../h/list.hpp ****     void addFirst(T *data)
  32:src/../h/list.hpp ****     {
  33:src/../h/list.hpp ****         Elem *elem = new Elem(data, head);
  34:src/../h/list.hpp ****         head = elem;
  35:src/../h/list.hpp ****         if (!tail) { tail = head; }
  36:src/../h/list.hpp ****     }
  37:src/../h/list.hpp **** 
  38:src/../h/list.hpp ****     void addLast(T *data)
  39:src/../h/list.hpp ****     {
GAS LISTING /tmp/cc7R4v5Z.s 			page 3


  40:src/../h/list.hpp ****         Elem *elem = new Elem(data, 0);
  41:src/../h/list.hpp ****         if (tail)
  42:src/../h/list.hpp ****         {
  43:src/../h/list.hpp ****             tail->next = elem;
  44:src/../h/list.hpp ****             tail = elem;
  45:src/../h/list.hpp ****         } else
  46:src/../h/list.hpp ****         {
  47:src/../h/list.hpp ****             head = tail = elem;
  48:src/../h/list.hpp ****         }
  49:src/../h/list.hpp ****     }
  50:src/../h/list.hpp **** 
  51:src/../h/list.hpp ****     T *removeFirst()
  52:src/../h/list.hpp ****     {
  53:src/../h/list.hpp ****         if (!head) { return 0; }
  54:src/../h/list.hpp **** 
  55:src/../h/list.hpp ****         Elem *elem = head;
  56:src/../h/list.hpp ****         head = head->next;
  57:src/../h/list.hpp ****         if (!head) { tail = 0; }
  58:src/../h/list.hpp **** 
  59:src/../h/list.hpp ****         T *ret = elem->data;
  60:src/../h/list.hpp ****         delete elem;
  61:src/../h/list.hpp ****         return ret;
  62:src/../h/list.hpp ****     }
  63:src/../h/list.hpp **** 
  64:src/../h/list.hpp ****     T *peekFirst()
  65:src/../h/list.hpp ****     {
  66:src/../h/list.hpp ****         if (!head) { return 0; }
  37              		.loc 2 66 14 is_stmt 0
  38 0020 83370501 		ld	a5,16(a0)
  39              		.loc 2 66 9
  40 0024 63860700 		beqz	a5,.L3
  67:src/../h/list.hpp ****         return head->data;
  41              		.loc 2 67 22
  42 0028 83B70700 		ld	a5,0(a5)
  43              	.LVL2:
  44              	.LBE47:
  45              	.LBE46:
  46              		.loc 1 39 5
  47 002c 63980702 		bnez	a5,.L7
  48              	.LVL3:
  49              	.L3:
  40:src/_sem.cpp  ****         while (blocked.peekFirst()) {
  41:src/_sem.cpp  ****             blocked.peekFirst()->setBlocked(false);
  42:src/_sem.cpp  ****             Scheduler::put(blocked.peekFirst());
  43:src/_sem.cpp  ****             blocked.removeFirst();
  44:src/_sem.cpp  ****         }
  45:src/_sem.cpp  ****     }
  46:src/_sem.cpp  ****     closed = true;
  50              		.loc 1 46 5 is_stmt 1
  51              		.loc 1 46 12 is_stmt 0
  52 0030 93071000 		li	a5,1
  53 0034 2380F400 		sb	a5,0(s1)
  47:src/_sem.cpp  ****     return 0;
  54              		.loc 1 47 5 is_stmt 1
  55              		.loc 1 47 12 is_stmt 0
  56 0038 13050000 		li	a0,0
  48:src/_sem.cpp  **** }
GAS LISTING /tmp/cc7R4v5Z.s 			page 4


  57              		.loc 1 48 1
  58 003c 83308101 		ld	ra,24(sp)
  59              		.cfi_remember_state
  60              		.cfi_restore 1
  61 0040 03340101 		ld	s0,16(sp)
  62              		.cfi_restore 8
  63              		.cfi_def_cfa 2, 32
  64 0044 83348100 		ld	s1,8(sp)
  65              		.cfi_restore 9
  66              	.LVL4:
  67 0048 13010102 		addi	sp,sp,32
  68              		.cfi_def_cfa_offset 0
  69 004c 67800000 		jr	ra
  70              	.LVL5:
  71              	.L13:
  72              		.cfi_restore_state
  73              	.LBB48:
  74              	.LBB49:
  57:src/../h/list.hpp **** 
  75              		.loc 2 57 22
  76 0050 23BC0400 		sd	zero,24(s1)
  77              	.L6:
  78              	.LVL6:
  60:src/../h/list.hpp ****         return ret;
  79              		.loc 2 60 9
  80 0054 97000000 		call	_ZdlPv@plt
  80      E7800000 
  81              	.LVL7:
  82              	.L7:
  83              	.LBE49:
  84              	.LBE48:
  40:src/_sem.cpp  ****             blocked.peekFirst()->setBlocked(false);
  85              		.loc 1 40 9 is_stmt 1
  40:src/_sem.cpp  ****             blocked.peekFirst()->setBlocked(false);
  86              		.loc 1 40 34
  87              	.LBB51:
  88              	.LBB52:
  66:src/../h/list.hpp ****         return head->data;
  89              		.loc 2 66 14 is_stmt 0
  90 005c 83B70401 		ld	a5,16(s1)
  66:src/../h/list.hpp ****         return head->data;
  91              		.loc 2 66 9
  92 0060 E38807FC 		beqz	a5,.L3
  93              		.loc 2 67 22
  94 0064 83B70700 		ld	a5,0(a5)
  95              	.LVL8:
  96              	.LBE52:
  97              	.LBE51:
  40:src/_sem.cpp  ****             blocked.peekFirst()->setBlocked(false);
  98              		.loc 1 40 34
  99 0068 E38407FC 		beqz	a5,.L3
  41:src/_sem.cpp  ****             Scheduler::put(blocked.peekFirst());
 100              		.loc 1 41 13 is_stmt 1
 101              	.LVL9:
 102              	.LBB53:
 103              	.LBB54:
 104              		.file 3 "src/../h/tcb.hpp"
GAS LISTING /tmp/cc7R4v5Z.s 			page 5


   1:src/../h/tcb.hpp **** //
   2:src/../h/tcb.hpp **** // Created by marko on 20.4.22..
   3:src/../h/tcb.hpp **** //
   4:src/../h/tcb.hpp **** 
   5:src/../h/tcb.hpp **** #ifndef OS1_VEZBE07_RISCV_CONTEXT_SWITCH_2_INTERRUPT_TCB_HPP
   6:src/../h/tcb.hpp **** #define OS1_VEZBE07_RISCV_CONTEXT_SWITCH_2_INTERRUPT_TCB_HPP
   7:src/../h/tcb.hpp **** 
   8:src/../h/tcb.hpp **** #include "../lib/hw.h"
   9:src/../h/tcb.hpp **** #include "scheduler.hpp"
  10:src/../h/tcb.hpp **** #include "../h/print.hpp"
  11:src/../h/tcb.hpp **** 
  12:src/../h/tcb.hpp **** // Thread Control Block
  13:src/../h/tcb.hpp **** class TCB
  14:src/../h/tcb.hpp **** {
  15:src/../h/tcb.hpp **** public:
  16:src/../h/tcb.hpp ****     ~TCB() {
  17:src/../h/tcb.hpp ****         delete[] stack;
  18:src/../h/tcb.hpp ****     }
  19:src/../h/tcb.hpp **** 
  20:src/../h/tcb.hpp ****     static void outputThreadBody(void*);
  21:src/../h/tcb.hpp **** 
  22:src/../h/tcb.hpp ****     bool isFinished() const { return finished; }
  23:src/../h/tcb.hpp ****     void setFinished(bool value) { finished = value; }
  24:src/../h/tcb.hpp **** 
  25:src/../h/tcb.hpp ****     bool isSleeping() const { return sleeping; }
  26:src/../h/tcb.hpp ****     void setSleeping(bool value) { sleeping = value; }
  27:src/../h/tcb.hpp **** 
  28:src/../h/tcb.hpp ****     bool isBlocked() const { return blocked; }
  29:src/../h/tcb.hpp ****     void setBlocked(bool value) { blocked = value; }
 105              		.loc 3 29 35
 106              		.loc 3 29 43 is_stmt 0
 107 006c 238B0702 		sb	zero,54(a5)
 108              	.LVL10:
 109              	.LBE54:
 110              	.LBE53:
  42:src/_sem.cpp  ****             blocked.removeFirst();
 111              		.loc 1 42 13 is_stmt 1
 112              	.LBB55:
 113              	.LBB56:
  66:src/../h/list.hpp ****         return head->data;
 114              		.loc 2 66 14 is_stmt 0
 115 0070 03B50401 		ld	a0,16(s1)
  66:src/../h/list.hpp ****         return head->data;
 116              		.loc 2 66 9
 117 0074 63040500 		beqz	a0,.L4
 118              		.loc 2 67 22
 119 0078 03350500 		ld	a0,0(a0)
 120              	.L4:
 121              	.LVL11:
 122              	.LBE56:
 123              	.LBE55:
  42:src/_sem.cpp  ****             blocked.removeFirst();
 124              		.loc 1 42 27
 125 007c 97000000 		call	_ZN9Scheduler3putEP3TCB@plt
 125      E7800000 
 126              	.LVL12:
  43:src/_sem.cpp  ****         }
GAS LISTING /tmp/cc7R4v5Z.s 			page 6


 127              		.loc 1 43 13 is_stmt 1
 128              	.LBB57:
 129              	.LBB50:
  53:src/../h/list.hpp **** 
 130              		.loc 2 53 14 is_stmt 0
 131 0084 03B50401 		ld	a0,16(s1)
  53:src/../h/list.hpp **** 
 132              		.loc 2 53 9
 133 0088 E30A05FC 		beqz	a0,.L7
 134              	.LVL13:
  56:src/../h/list.hpp ****         if (!head) { tail = 0; }
 135              		.loc 2 56 22
 136 008c 83378500 		ld	a5,8(a0)
  56:src/../h/list.hpp ****         if (!head) { tail = 0; }
 137              		.loc 2 56 9
 138 0090 23B8F400 		sd	a5,16(s1)
  57:src/../h/list.hpp **** 
 139              		.loc 2 57 9
 140 0094 E39007FC 		bnez	a5,.L6
 141 0098 6FF09FFB 		j	.L13
 142              	.LVL14:
 143              	.L8:
 144              		.cfi_def_cfa_register 2
 145              		.cfi_restore 1
 146              		.cfi_restore 8
 147              		.cfi_restore 9
 148              	.LBE50:
 149              	.LBE57:
  38:src/_sem.cpp  ****     if (blocked.peekFirst() != nullptr) {
 150              		.loc 1 38 17
 151 009c 1305F0FF 		li	a0,-1
 152              	.LVL15:
 153              		.loc 1 48 1
 154 00a0 67800000 		ret
 155              		.cfi_endproc
 156              	.LFE29:
 158              		.align	2
 159              		.globl	_ZN4_sem5blockEv
 161              	_ZN4_sem5blockEv:
 162              	.LFB30:
  49:src/_sem.cpp  **** 
  50:src/_sem.cpp  **** void _sem::block() {
 163              		.loc 1 50 20 is_stmt 1
 164              		.cfi_startproc
 165              	.LVL16:
 166 00a4 130101FE 		addi	sp,sp,-32
 167              		.cfi_def_cfa_offset 32
 168 00a8 233C1100 		sd	ra,24(sp)
 169 00ac 23388100 		sd	s0,16(sp)
 170 00b0 23349100 		sd	s1,8(sp)
 171 00b4 23302101 		sd	s2,0(sp)
 172              		.cfi_offset 1, -8
 173              		.cfi_offset 8, -16
 174              		.cfi_offset 9, -24
 175              		.cfi_offset 18, -32
 176 00b8 13040102 		addi	s0,sp,32
 177              		.cfi_def_cfa 8, 0
GAS LISTING /tmp/cc7R4v5Z.s 			page 7


 178 00bc 93040500 		mv	s1,a0
  51:src/_sem.cpp  ****     NumOfBlockedThreads++;
 179              		.loc 1 51 5
 180 00c0 8327C500 		lw	a5,12(a0)
 181              		.loc 1 51 24 is_stmt 0
 182 00c4 9B871700 		addiw	a5,a5,1
 183 00c8 2326F500 		sw	a5,12(a0)
  52:src/_sem.cpp  ****     TCB::running->setBlocked(true);
 184              		.loc 1 52 5 is_stmt 1
 185              		.loc 1 52 29 is_stmt 0
 186 00cc 97070000 		la	a5,_ZN3TCB7runningE
 186      83B70700 
 187 00d4 03B90700 		ld	s2,0(a5)
 188              	.LVL17:
 189              	.LBB58:
 190              	.LBB59:
 191              		.loc 3 29 35 is_stmt 1
 192              		.loc 3 29 43 is_stmt 0
 193 00d8 93071000 		li	a5,1
 194 00dc 230BF902 		sb	a5,54(s2)
 195              	.LVL18:
 196              	.LBE59:
 197              	.LBE58:
  53:src/_sem.cpp  ****     blocked.addLast(TCB::running);
 198              		.loc 1 53 5 is_stmt 1
 199              	.LBB60:
 200              	.LBB61:
  40:src/../h/list.hpp ****         if (tail)
 201              		.loc 2 40 22 is_stmt 0
 202 00e0 13050001 		li	a0,16
 203              	.LVL19:
 204 00e4 97000000 		call	_Znwm@plt
 204      E7800000 
 205              	.LVL20:
 206              	.LBB62:
 207              	.LBB63:
  19:src/../h/list.hpp ****     };
 208              		.loc 2 19 58
 209 00ec 23302501 		sd	s2,0(a0)
 210 00f0 23340500 		sd	zero,8(a0)
 211              	.LVL21:
 212              	.LBE63:
 213              	.LBE62:
  41:src/../h/list.hpp ****         {
 214              		.loc 2 41 13
 215 00f4 83B78401 		ld	a5,24(s1)
  41:src/../h/list.hpp ****         {
 216              		.loc 2 41 9
 217 00f8 63860702 		beqz	a5,.L15
  43:src/../h/list.hpp ****             tail = elem;
 218              		.loc 2 43 13
 219 00fc 23B4A700 		sd	a0,8(a5)
  44:src/../h/list.hpp ****         } else
 220              		.loc 2 44 13
 221 0100 23BCA400 		sd	a0,24(s1)
 222              	.L16:
 223              	.LVL22:
GAS LISTING /tmp/cc7R4v5Z.s 			page 8


 224              	.LBE61:
 225              	.LBE60:
  54:src/_sem.cpp  ****     TCB::dispatch();
 226              		.loc 1 54 5 is_stmt 1
 227              		.loc 1 54 18 is_stmt 0
 228 0104 97000000 		call	_ZN3TCB8dispatchEv@plt
 228      E7800000 
 229              	.LVL23:
  55:src/_sem.cpp  **** }
 230              		.loc 1 55 1
 231 010c 83308101 		ld	ra,24(sp)
 232              		.cfi_remember_state
 233              		.cfi_restore 1
 234 0110 03340101 		ld	s0,16(sp)
 235              		.cfi_restore 8
 236              		.cfi_def_cfa 2, 32
 237 0114 83348100 		ld	s1,8(sp)
 238              		.cfi_restore 9
 239              	.LVL24:
 240 0118 03390100 		ld	s2,0(sp)
 241              		.cfi_restore 18
 242 011c 13010102 		addi	sp,sp,32
 243              		.cfi_def_cfa_offset 0
 244 0120 67800000 		jr	ra
 245              	.LVL25:
 246              	.L15:
 247              		.cfi_restore_state
 248              	.LBB65:
 249              	.LBB64:
  47:src/../h/list.hpp ****         }
 250              		.loc 2 47 13
 251 0124 23BCA400 		sd	a0,24(s1)
 252 0128 23B8A400 		sd	a0,16(s1)
 253 012c 6FF09FFD 		j	.L16
 254              	.LBE64:
 255              	.LBE65:
 256              		.cfi_endproc
 257              	.LFE30:
 259              		.align	2
 260              		.globl	_ZN4_sem4waitEv
 262              	_ZN4_sem4waitEv:
 263              	.LFB27:
   7:src/_sem.cpp  ****     val--;
 264              		.loc 1 7 18 is_stmt 1
 265              		.cfi_startproc
 266              	.LVL26:
 267 0130 130101FE 		addi	sp,sp,-32
 268              		.cfi_def_cfa_offset 32
 269 0134 233C1100 		sd	ra,24(sp)
 270 0138 23388100 		sd	s0,16(sp)
 271 013c 23349100 		sd	s1,8(sp)
 272              		.cfi_offset 1, -8
 273              		.cfi_offset 8, -16
 274              		.cfi_offset 9, -24
 275 0140 13040102 		addi	s0,sp,32
 276              		.cfi_def_cfa 8, 0
 277 0144 93040500 		mv	s1,a0
GAS LISTING /tmp/cc7R4v5Z.s 			page 9


   8:src/_sem.cpp  ****     if (val<0){
 278              		.loc 1 8 5
 279 0148 83274500 		lw	a5,4(a0)
   8:src/_sem.cpp  ****     if (val<0){
 280              		.loc 1 8 8 is_stmt 0
 281 014c 9B87F7FF 		addiw	a5,a5,-1
 282 0150 2322F500 		sw	a5,4(a0)
   9:src/_sem.cpp  **** //        printString("Nit ");
 283              		.loc 1 9 5 is_stmt 1
 284 0154 13970702 		slli	a4,a5,32
 285 0158 63440702 		bltz	a4,.L23
 286              	.LVL27:
 287              	.L19:
  15:src/_sem.cpp  ****         return 0;
 288              		.loc 1 15 5
  15:src/_sem.cpp  ****         return 0;
 289              		.loc 1 15 10 is_stmt 0
 290 015c 83C70400 		lbu	a5,0(s1)
  15:src/_sem.cpp  ****         return 0;
 291              		.loc 1 15 5
 292 0160 638E0702 		beqz	a5,.L21
  19:src/_sem.cpp  ****             return 0;
 293              		.loc 1 19 9 is_stmt 1
  19:src/_sem.cpp  ****             return 0;
 294              		.loc 1 19 13 is_stmt 0
 295 0164 03A5C400 		lw	a0,12(s1)
  19:src/_sem.cpp  ****             return 0;
 296              		.loc 1 19 9
 297 0168 63120502 		bnez	a0,.L24
 298              	.L20:
  26:src/_sem.cpp  **** 
 299              		.loc 1 26 1
 300 016c 83308101 		ld	ra,24(sp)
 301              		.cfi_remember_state
 302              		.cfi_restore 1
 303 0170 03340101 		ld	s0,16(sp)
 304              		.cfi_restore 8
 305              		.cfi_def_cfa 2, 32
 306 0174 83348100 		ld	s1,8(sp)
 307              		.cfi_restore 9
 308              	.LVL28:
 309 0178 13010102 		addi	sp,sp,32
 310              		.cfi_def_cfa_offset 0
 311 017c 67800000 		jr	ra
 312              	.LVL29:
 313              	.L23:
 314              		.cfi_restore_state
  13:src/_sem.cpp  ****     }
 315              		.loc 1 13 9 is_stmt 1
  13:src/_sem.cpp  ****     }
 316              		.loc 1 13 14 is_stmt 0
 317 0180 97000000 		call	_ZN4_sem5blockEv
 317      E7800000 
 318              	.LVL30:
 319 0188 6FF05FFD 		j	.L19
 320              	.L24:
  22:src/_sem.cpp  ****             return -1;
GAS LISTING /tmp/cc7R4v5Z.s 			page 10


 321              		.loc 1 22 13 is_stmt 1
  22:src/_sem.cpp  ****             return -1;
 322              		.loc 1 22 32 is_stmt 0
 323 018c 1B05F5FF 		addiw	a0,a0,-1
 324 0190 23A6A400 		sw	a0,12(s1)
  23:src/_sem.cpp  ****         }
 325              		.loc 1 23 13 is_stmt 1
  23:src/_sem.cpp  ****         }
 326              		.loc 1 23 21 is_stmt 0
 327 0194 1305F0FF 		li	a0,-1
 328 0198 6FF05FFD 		j	.L20
 329              	.L21:
  16:src/_sem.cpp  ****     else {          //Ako je semafor zatvoren NE VRACA -1 UVEK! Ako je broj blokiranih niti 0 to zn
 330              		.loc 1 16 16
 331 019c 13050000 		li	a0,0
 332 01a0 6FF0DFFC 		j	.L20
 333              		.cfi_endproc
 334              	.LFE27:
 336              		.align	2
 337              		.globl	_ZN4_sem7deblockEv
 339              	_ZN4_sem7deblockEv:
 340              	.LFB31:
  56:src/_sem.cpp  **** 
  57:src/_sem.cpp  **** void _sem::deblock() {
 341              		.loc 1 57 22 is_stmt 1
 342              		.cfi_startproc
 343              	.LVL31:
 344 01a4 130101FE 		addi	sp,sp,-32
 345              		.cfi_def_cfa_offset 32
 346 01a8 233C1100 		sd	ra,24(sp)
 347 01ac 23388100 		sd	s0,16(sp)
 348 01b0 23349100 		sd	s1,8(sp)
 349              		.cfi_offset 1, -8
 350              		.cfi_offset 8, -16
 351              		.cfi_offset 9, -24
 352 01b4 13040102 		addi	s0,sp,32
 353              		.cfi_def_cfa 8, 0
 354 01b8 93070500 		mv	a5,a0
  58:src/_sem.cpp  ****     NumOfBlockedThreads--;
 355              		.loc 1 58 5
 356 01bc 0327C500 		lw	a4,12(a0)
 357              		.loc 1 58 24 is_stmt 0
 358 01c0 1B07F7FF 		addiw	a4,a4,-1
 359 01c4 2326E500 		sw	a4,12(a0)
  59:src/_sem.cpp  ****     TCB* temp = blocked.removeFirst();
 360              		.loc 1 59 5 is_stmt 1
 361              	.LVL32:
 362              	.LBB66:
 363              	.LBB67:
  53:src/../h/list.hpp **** 
 364              		.loc 2 53 14 is_stmt 0
 365 01c8 03350501 		ld	a0,16(a0)
 366              	.LVL33:
  53:src/../h/list.hpp **** 
 367              		.loc 2 53 9
 368 01cc 63040504 		beqz	a0,.L28
 369              	.LVL34:
GAS LISTING /tmp/cc7R4v5Z.s 			page 11


  56:src/../h/list.hpp ****         if (!head) { tail = 0; }
 370              		.loc 2 56 22
 371 01d0 03378500 		ld	a4,8(a0)
  56:src/../h/list.hpp ****         if (!head) { tail = 0; }
 372              		.loc 2 56 9
 373 01d4 23B8E700 		sd	a4,16(a5)
  57:src/../h/list.hpp **** 
 374              		.loc 2 57 9
 375 01d8 630A0702 		beqz	a4,.L30
 376              	.L27:
  59:src/../h/list.hpp ****         delete elem;
 377              		.loc 2 59 12
 378 01dc 83340500 		ld	s1,0(a0)
 379              	.LVL35:
  60:src/../h/list.hpp ****         return ret;
 380              		.loc 2 60 9
 381 01e0 97000000 		call	_ZdlPv@plt
 381      E7800000 
 382              	.LVL36:
 383              	.L26:
 384              	.LBE67:
 385              	.LBE66:
  60:src/_sem.cpp  ****     temp->setBlocked(false);
 386              		.loc 1 60 5 is_stmt 1
 387              	.LBB69:
 388              	.LBB70:
 389              		.loc 3 29 35
 390              		.loc 3 29 43 is_stmt 0
 391 01e8 238B0402 		sb	zero,54(s1)
 392              	.LVL37:
 393              	.LBE70:
 394              	.LBE69:
  61:src/_sem.cpp  **** //    printString("Nit ");
  62:src/_sem.cpp  **** //    printInteger(temp->getId());
  63:src/_sem.cpp  **** //    printString(" odblokirana\n");
  64:src/_sem.cpp  **** 
  65:src/_sem.cpp  ****     Scheduler::put(temp);
 395              		.loc 1 65 5 is_stmt 1
 396              		.loc 1 65 19 is_stmt 0
 397 01ec 13850400 		mv	a0,s1
 398 01f0 97000000 		call	_ZN9Scheduler3putEP3TCB@plt
 398      E7800000 
 399              	.LVL38:
  66:src/_sem.cpp  **** 
  67:src/_sem.cpp  **** }
 400              		.loc 1 67 1
 401 01f8 83308101 		ld	ra,24(sp)
 402              		.cfi_remember_state
 403              		.cfi_restore 1
 404 01fc 03340101 		ld	s0,16(sp)
 405              		.cfi_restore 8
 406              		.cfi_def_cfa 2, 32
 407 0200 83348100 		ld	s1,8(sp)
 408              		.cfi_restore 9
 409              	.LVL39:
 410 0204 13010102 		addi	sp,sp,32
 411              		.cfi_def_cfa_offset 0
GAS LISTING /tmp/cc7R4v5Z.s 			page 12


 412 0208 67800000 		jr	ra
 413              	.LVL40:
 414              	.L30:
 415              		.cfi_restore_state
 416              	.LBB71:
 417              	.LBB68:
  57:src/../h/list.hpp **** 
 418              		.loc 2 57 22
 419 020c 23BC0700 		sd	zero,24(a5)
 420 0210 6FF0DFFC 		j	.L27
 421              	.LVL41:
 422              	.L28:
  53:src/../h/list.hpp **** 
 423              		.loc 2 53 29
 424 0214 93040500 		mv	s1,a0
 425 0218 6FF01FFD 		j	.L26
 426              	.LBE68:
 427              	.LBE71:
 428              		.cfi_endproc
 429              	.LFE31:
 431              		.align	2
 432              		.globl	_ZN4_sem6signalEv
 434              	_ZN4_sem6signalEv:
 435              	.LFB28:
  28:src/_sem.cpp  ****     val++;
 436              		.loc 1 28 20 is_stmt 1
 437              		.cfi_startproc
 438              	.LVL42:
  29:src/_sem.cpp  ****     if (val<=0) {
 439              		.loc 1 29 5
 440 021c 83274500 		lw	a5,4(a0)
  29:src/_sem.cpp  ****     if (val<=0) {
 441              		.loc 1 29 8 is_stmt 0
 442 0220 9B871700 		addiw	a5,a5,1
 443 0224 1B870700 		sext.w	a4,a5
 444 0228 2322F500 		sw	a5,4(a0)
  30:src/_sem.cpp  ****         deblock();
 445              		.loc 1 30 5 is_stmt 1
 446 022c 6356E000 		blez	a4,.L37
  33:src/_sem.cpp  **** }
 447              		.loc 1 33 5
  34:src/_sem.cpp  **** 
 448              		.loc 1 34 1 is_stmt 0
 449 0230 13050000 		li	a0,0
 450              	.LVL43:
 451 0234 67800000 		ret
 452              	.LVL44:
 453              	.L37:
  28:src/_sem.cpp  ****     val++;
 454              		.loc 1 28 20
 455 0238 130101FF 		addi	sp,sp,-16
 456              		.cfi_def_cfa_offset 16
 457 023c 23341100 		sd	ra,8(sp)
 458 0240 23308100 		sd	s0,0(sp)
 459              		.cfi_offset 1, -8
 460              		.cfi_offset 8, -16
 461 0244 13040101 		addi	s0,sp,16
GAS LISTING /tmp/cc7R4v5Z.s 			page 13


 462              		.cfi_def_cfa 8, 0
  31:src/_sem.cpp  ****     }
 463              		.loc 1 31 9 is_stmt 1
  31:src/_sem.cpp  ****     }
 464              		.loc 1 31 16 is_stmt 0
 465 0248 97000000 		call	_ZN4_sem7deblockEv
 465      E7800000 
 466              	.LVL45:
  33:src/_sem.cpp  **** }
 467              		.loc 1 33 5 is_stmt 1
  34:src/_sem.cpp  **** 
 468              		.loc 1 34 1 is_stmt 0
 469 0250 13050000 		li	a0,0
 470 0254 83308100 		ld	ra,8(sp)
 471              		.cfi_restore 1
 472 0258 03340100 		ld	s0,0(sp)
 473              		.cfi_restore 8
 474              		.cfi_def_cfa 2, 16
 475 025c 13010101 		addi	sp,sp,16
 476              		.cfi_def_cfa_offset 0
 477 0260 67800000 		jr	ra
 478              		.cfi_endproc
 479              	.LFE28:
 481              		.align	2
 482              		.globl	_ZN4_sem15createSemaphoreEPPS_j
 484              	_ZN4_sem15createSemaphoreEPPS_j:
 485              	.LFB32:
  68:src/_sem.cpp  **** 
  69:src/_sem.cpp  **** _sem *_sem::createSemaphore(_sem **handle, unsigned int init) {
 486              		.loc 1 69 63 is_stmt 1
 487              		.cfi_startproc
 488              	.LVL46:
 489 0264 130101FE 		addi	sp,sp,-32
 490              		.cfi_def_cfa_offset 32
 491 0268 233C1100 		sd	ra,24(sp)
 492 026c 23388100 		sd	s0,16(sp)
 493 0270 23349100 		sd	s1,8(sp)
 494 0274 23302101 		sd	s2,0(sp)
 495              		.cfi_offset 1, -8
 496              		.cfi_offset 8, -16
 497              		.cfi_offset 9, -24
 498              		.cfi_offset 18, -32
 499 0278 13040102 		addi	s0,sp,32
 500              		.cfi_def_cfa 8, 0
 501 027c 93040500 		mv	s1,a0
 502 0280 13890500 		mv	s2,a1
  70:src/_sem.cpp  ****     *handle = new _sem(init);
 503              		.loc 1 70 5
 504              		.loc 1 70 28 is_stmt 0
 505 0284 13050002 		li	a0,32
 506              	.LVL47:
 507 0288 97000000 		call	_Znwm@plt
 507      E7800000 
 508              	.LVL48:
 509              	.LBB72:
 510              	.LBB73:
 511              		.file 4 "src/../h/_sem.h"
GAS LISTING /tmp/cc7R4v5Z.s 			page 14


   1:src/../h/_sem.h **** //
   2:src/../h/_sem.h **** // Created by os on 9/7/22.
   3:src/../h/_sem.h **** //
   4:src/../h/_sem.h **** 
   5:src/../h/_sem.h **** #ifndef PROJECT_BASE_V1_1__SEM_H
   6:src/../h/_sem.h **** #define PROJECT_BASE_V1_1__SEM_H
   7:src/../h/_sem.h **** 
   8:src/../h/_sem.h **** #include "tcb.hpp"
   9:src/../h/_sem.h **** 
  10:src/../h/_sem.h **** class _sem
  11:src/../h/_sem.h **** {
  12:src/../h/_sem.h **** public:
  13:src/../h/_sem.h ****     explicit _sem (int initValue=0) : closed(false), val(initValue) {
 512              		.loc 4 13 67
 513 0290 23000500 		sb	zero,0(a0)
 514 0294 23222501 		sw	s2,4(a0)
 515 0298 23240500 		sw	zero,8(a0)
 516 029c 23260500 		sw	zero,12(a0)
 517              	.LVL49:
 518              	.LBB74:
 519              	.LBB75:
  25:src/../h/list.hpp **** 
 520              		.loc 2 25 29
 521 02a0 23380500 		sd	zero,16(a0)
 522 02a4 233C0500 		sd	zero,24(a0)
 523              	.LVL50:
 524              	.LBE75:
 525              	.LBE74:
 526              	.LBE73:
 527              	.LBE72:
 528              		.loc 1 70 13
 529 02a8 23B0A400 		sd	a0,0(s1)
  71:src/_sem.cpp  ****     return *handle;
 530              		.loc 1 71 5 is_stmt 1
  72:src/_sem.cpp  **** }
 531              		.loc 1 72 1 is_stmt 0
 532 02ac 83308101 		ld	ra,24(sp)
 533              		.cfi_restore 1
 534 02b0 03340101 		ld	s0,16(sp)
 535              		.cfi_restore 8
 536              		.cfi_def_cfa 2, 32
 537 02b4 83348100 		ld	s1,8(sp)
 538              		.cfi_restore 9
 539              	.LVL51:
 540 02b8 03390100 		ld	s2,0(sp)
 541              		.cfi_restore 18
 542 02bc 13010102 		addi	sp,sp,32
 543              		.cfi_def_cfa_offset 0
 544 02c0 67800000 		jr	ra
 545              		.cfi_endproc
 546              	.LFE32:
 548              		.align	2
 549              		.globl	_ZN4_semD2Ev
 551              	_ZN4_semD2Ev:
 552              	.LFB34:
  73:src/_sem.cpp  **** 
  74:src/_sem.cpp  **** _sem::~_sem() {
GAS LISTING /tmp/cc7R4v5Z.s 			page 15


 553              		.loc 1 74 1 is_stmt 1
 554              		.cfi_startproc
 555              		.cfi_personality 0x9b,DW.ref.__gxx_personality_v0
 556              		.cfi_lsda 0x1b,.LLSDA34
 557              	.LVL52:
 558 02c4 130101FF 		addi	sp,sp,-16
 559              		.cfi_def_cfa_offset 16
 560 02c8 23341100 		sd	ra,8(sp)
 561 02cc 23308100 		sd	s0,0(sp)
 562              		.cfi_offset 1, -8
 563              		.cfi_offset 8, -16
 564 02d0 13040101 		addi	s0,sp,16
 565              		.cfi_def_cfa 8, 0
 566              	.LBB76:
  75:src/_sem.cpp  ****     int ret = close();
 567              		.loc 1 75 5
 568              		.loc 1 75 20 is_stmt 0
 569 02d4 97000000 		call	_ZN4_sem5closeEv
 569      E7800000 
 570              	.LVL53:
  76:src/_sem.cpp  ****     if (ret == -2){
 571              		.loc 1 76 5 is_stmt 1
 572              	.LBE76:
  77:src/_sem.cpp  **** 
  78:src/_sem.cpp  ****     }
  79:src/_sem.cpp  **** }
 573              		.loc 1 79 1 is_stmt 0
 574 02dc 83308100 		ld	ra,8(sp)
 575              		.cfi_restore 1
 576 02e0 03340100 		ld	s0,0(sp)
 577              		.cfi_restore 8
 578              		.cfi_def_cfa 2, 16
 579 02e4 13010101 		addi	sp,sp,16
 580              		.cfi_def_cfa_offset 0
 581 02e8 67800000 		jr	ra
 582              		.cfi_endproc
 583              	.LFE34:
 584              		.globl	__gxx_personality_v0
 585              		.section	.gcc_except_table,"a",@progbits
 586              	.LLSDA34:
 587 0000 FF       		.byte	0xff
 588 0001 FF       		.byte	0xff
 589 0002 03       		.byte	0x3
 590 0003 00       		.byte	0
 591              		.text
 593              		.globl	_ZN4_semD1Ev
 594              		.set	_ZN4_semD1Ev,_ZN4_semD2Ev
 595              	.Letext0:
 596              		.file 5 "src/../h/../lib/hw.h"
 597              		.file 6 "src/../h/scheduler.hpp"
 3942              		.align	3
 3945              	DW.ref.__gxx_personality_v0:
 3946 0000 00000000 		.dword	__gxx_personality_v0
 3946      00000000 
 3947              		.ident	"GCC: (Ubuntu 9.4.0-1ubuntu1~20.04) 9.4.0"
 3948              		.section	.note.GNU-stack,"",@progbits
GAS LISTING /tmp/cc7R4v5Z.s 			page 16


DEFINED SYMBOLS
                            *ABS*:0000000000000000 _sem.cpp
     /tmp/cc7R4v5Z.s:9      .text:0000000000000000 _ZN4_sem5closeEv
     /tmp/cc7R4v5Z.s:13     .text:0000000000000000 .L0 
     /tmp/cc7R4v5Z.s:15     .text:0000000000000000 .L0 
     /tmp/cc7R4v5Z.s:16     .text:0000000000000000 .L0 
     /tmp/cc7R4v5Z.s:17     .text:0000000000000000 .L0 
     /tmp/cc7R4v5Z.s:19     .text:0000000000000004 .L0 
     /tmp/cc7R4v5Z.s:21     .text:0000000000000008 .L0 
     /tmp/cc7R4v5Z.s:22     .text:000000000000000c .L0 
     /tmp/cc7R4v5Z.s:26     .text:0000000000000018 .L0 
     /tmp/cc7R4v5Z.s:27     .text:0000000000000018 .L0 
     /tmp/cc7R4v5Z.s:28     .text:0000000000000018 .L0 
     /tmp/cc7R4v5Z.s:30     .text:000000000000001c .L0 
     /tmp/cc7R4v5Z.s:37     .text:0000000000000020 .L0 
     /tmp/cc7R4v5Z.s:38     .text:0000000000000020 .L0 
     /tmp/cc7R4v5Z.s:40     .text:0000000000000024 .L0 
     /tmp/cc7R4v5Z.s:42     .text:0000000000000028 .L0 
     /tmp/cc7R4v5Z.s:47     .text:000000000000002c .L0 
     /tmp/cc7R4v5Z.s:51     .text:0000000000000030 .L0 
     /tmp/cc7R4v5Z.s:52     .text:0000000000000030 .L0 
     /tmp/cc7R4v5Z.s:55     .text:0000000000000038 .L0 
     /tmp/cc7R4v5Z.s:56     .text:0000000000000038 .L0 
     /tmp/cc7R4v5Z.s:58     .text:000000000000003c .L0 
     /tmp/cc7R4v5Z.s:59     .text:0000000000000040 .L0 
     /tmp/cc7R4v5Z.s:60     .text:0000000000000040 .L0 
     /tmp/cc7R4v5Z.s:62     .text:0000000000000044 .L0 
     /tmp/cc7R4v5Z.s:63     .text:0000000000000044 .L0 
     /tmp/cc7R4v5Z.s:65     .text:0000000000000048 .L0 
     /tmp/cc7R4v5Z.s:68     .text:000000000000004c .L0 
     /tmp/cc7R4v5Z.s:72     .text:0000000000000050 .L0 
     /tmp/cc7R4v5Z.s:76     .text:0000000000000050 .L0 
     /tmp/cc7R4v5Z.s:80     .text:0000000000000054 .L0 
     /tmp/cc7R4v5Z.s:86     .text:000000000000005c .L0 
     /tmp/cc7R4v5Z.s:89     .text:000000000000005c .L0 
     /tmp/cc7R4v5Z.s:90     .text:000000000000005c .L0 
     /tmp/cc7R4v5Z.s:92     .text:0000000000000060 .L0 
     /tmp/cc7R4v5Z.s:94     .text:0000000000000064 .L0 
     /tmp/cc7R4v5Z.s:99     .text:0000000000000068 .L0 
     /tmp/cc7R4v5Z.s:105    .text:000000000000006c .L0 
     /tmp/cc7R4v5Z.s:106    .text:000000000000006c .L0 
     /tmp/cc7R4v5Z.s:107    .text:000000000000006c .L0 
     /tmp/cc7R4v5Z.s:114    .text:0000000000000070 .L0 
     /tmp/cc7R4v5Z.s:115    .text:0000000000000070 .L0 
     /tmp/cc7R4v5Z.s:117    .text:0000000000000074 .L0 
     /tmp/cc7R4v5Z.s:119    .text:0000000000000078 .L0 
     /tmp/cc7R4v5Z.s:125    .text:000000000000007c .L0 
     /tmp/cc7R4v5Z.s:130    .text:0000000000000084 .L0 
     /tmp/cc7R4v5Z.s:131    .text:0000000000000084 .L0 
     /tmp/cc7R4v5Z.s:133    .text:0000000000000088 .L0 
     /tmp/cc7R4v5Z.s:136    .text:000000000000008c .L0 
     /tmp/cc7R4v5Z.s:138    .text:0000000000000090 .L0 
     /tmp/cc7R4v5Z.s:140    .text:0000000000000094 .L0 
     /tmp/cc7R4v5Z.s:144    .text:000000000000009c .L0 
     /tmp/cc7R4v5Z.s:145    .text:000000000000009c .L0 
     /tmp/cc7R4v5Z.s:146    .text:000000000000009c .L0 
     /tmp/cc7R4v5Z.s:147    .text:000000000000009c .L0 
GAS LISTING /tmp/cc7R4v5Z.s 			page 17


     /tmp/cc7R4v5Z.s:151    .text:000000000000009c .L0 
     /tmp/cc7R4v5Z.s:154    .text:00000000000000a0 .L0 
     /tmp/cc7R4v5Z.s:155    .text:00000000000000a4 .L0 
     /tmp/cc7R4v5Z.s:161    .text:00000000000000a4 _ZN4_sem5blockEv
     /tmp/cc7R4v5Z.s:164    .text:00000000000000a4 .L0 
     /tmp/cc7R4v5Z.s:166    .text:00000000000000a4 .L0 
     /tmp/cc7R4v5Z.s:167    .text:00000000000000a8 .L0 
     /tmp/cc7R4v5Z.s:172    .text:00000000000000b8 .L0 
     /tmp/cc7R4v5Z.s:173    .text:00000000000000b8 .L0 
     /tmp/cc7R4v5Z.s:174    .text:00000000000000b8 .L0 
     /tmp/cc7R4v5Z.s:175    .text:00000000000000b8 .L0 
     /tmp/cc7R4v5Z.s:177    .text:00000000000000bc .L0 
     /tmp/cc7R4v5Z.s:180    .text:00000000000000c0 .L0 
     /tmp/cc7R4v5Z.s:182    .text:00000000000000c4 .L0 
     /tmp/cc7R4v5Z.s:185    .text:00000000000000cc .L0 
     /tmp/cc7R4v5Z.s:186    .text:00000000000000cc .L0 
     /tmp/cc7R4v5Z.s:192    .text:00000000000000d8 .L0 
     /tmp/cc7R4v5Z.s:193    .text:00000000000000d8 .L0 
     /tmp/cc7R4v5Z.s:201    .text:00000000000000e0 .L0 
     /tmp/cc7R4v5Z.s:202    .text:00000000000000e0 .L0 
     /tmp/cc7R4v5Z.s:209    .text:00000000000000ec .L0 
     /tmp/cc7R4v5Z.s:215    .text:00000000000000f4 .L0 
     /tmp/cc7R4v5Z.s:217    .text:00000000000000f8 .L0 
     /tmp/cc7R4v5Z.s:219    .text:00000000000000fc .L0 
     /tmp/cc7R4v5Z.s:221    .text:0000000000000100 .L0 
     /tmp/cc7R4v5Z.s:227    .text:0000000000000104 .L0 
     /tmp/cc7R4v5Z.s:228    .text:0000000000000104 .L0 
     /tmp/cc7R4v5Z.s:231    .text:000000000000010c .L0 
     /tmp/cc7R4v5Z.s:232    .text:0000000000000110 .L0 
     /tmp/cc7R4v5Z.s:233    .text:0000000000000110 .L0 
     /tmp/cc7R4v5Z.s:235    .text:0000000000000114 .L0 
     /tmp/cc7R4v5Z.s:236    .text:0000000000000114 .L0 
     /tmp/cc7R4v5Z.s:238    .text:0000000000000118 .L0 
     /tmp/cc7R4v5Z.s:241    .text:000000000000011c .L0 
     /tmp/cc7R4v5Z.s:243    .text:0000000000000120 .L0 
     /tmp/cc7R4v5Z.s:247    .text:0000000000000124 .L0 
     /tmp/cc7R4v5Z.s:251    .text:0000000000000124 .L0 
     /tmp/cc7R4v5Z.s:256    .text:0000000000000130 .L0 
     /tmp/cc7R4v5Z.s:262    .text:0000000000000130 _ZN4_sem4waitEv
     /tmp/cc7R4v5Z.s:265    .text:0000000000000130 .L0 
     /tmp/cc7R4v5Z.s:267    .text:0000000000000130 .L0 
     /tmp/cc7R4v5Z.s:268    .text:0000000000000134 .L0 
     /tmp/cc7R4v5Z.s:272    .text:0000000000000140 .L0 
     /tmp/cc7R4v5Z.s:273    .text:0000000000000140 .L0 
     /tmp/cc7R4v5Z.s:274    .text:0000000000000140 .L0 
     /tmp/cc7R4v5Z.s:276    .text:0000000000000144 .L0 
     /tmp/cc7R4v5Z.s:279    .text:0000000000000148 .L0 
     /tmp/cc7R4v5Z.s:281    .text:000000000000014c .L0 
     /tmp/cc7R4v5Z.s:284    .text:0000000000000154 .L0 
     /tmp/cc7R4v5Z.s:289    .text:000000000000015c .L0 
     /tmp/cc7R4v5Z.s:290    .text:000000000000015c .L0 
     /tmp/cc7R4v5Z.s:292    .text:0000000000000160 .L0 
     /tmp/cc7R4v5Z.s:294    .text:0000000000000164 .L0 
     /tmp/cc7R4v5Z.s:295    .text:0000000000000164 .L0 
     /tmp/cc7R4v5Z.s:297    .text:0000000000000168 .L0 
     /tmp/cc7R4v5Z.s:300    .text:000000000000016c .L0 
     /tmp/cc7R4v5Z.s:301    .text:0000000000000170 .L0 
GAS LISTING /tmp/cc7R4v5Z.s 			page 18


     /tmp/cc7R4v5Z.s:302    .text:0000000000000170 .L0 
     /tmp/cc7R4v5Z.s:304    .text:0000000000000174 .L0 
     /tmp/cc7R4v5Z.s:305    .text:0000000000000174 .L0 
     /tmp/cc7R4v5Z.s:307    .text:0000000000000178 .L0 
     /tmp/cc7R4v5Z.s:310    .text:000000000000017c .L0 
     /tmp/cc7R4v5Z.s:314    .text:0000000000000180 .L0 
     /tmp/cc7R4v5Z.s:316    .text:0000000000000180 .L0 
     /tmp/cc7R4v5Z.s:317    .text:0000000000000180 .L0 
     /tmp/cc7R4v5Z.s:322    .text:000000000000018c .L0 
     /tmp/cc7R4v5Z.s:323    .text:000000000000018c .L0 
     /tmp/cc7R4v5Z.s:326    .text:0000000000000194 .L0 
     /tmp/cc7R4v5Z.s:327    .text:0000000000000194 .L0 
     /tmp/cc7R4v5Z.s:331    .text:000000000000019c .L0 
     /tmp/cc7R4v5Z.s:333    .text:00000000000001a4 .L0 
     /tmp/cc7R4v5Z.s:339    .text:00000000000001a4 _ZN4_sem7deblockEv
     /tmp/cc7R4v5Z.s:342    .text:00000000000001a4 .L0 
     /tmp/cc7R4v5Z.s:344    .text:00000000000001a4 .L0 
     /tmp/cc7R4v5Z.s:345    .text:00000000000001a8 .L0 
     /tmp/cc7R4v5Z.s:349    .text:00000000000001b4 .L0 
     /tmp/cc7R4v5Z.s:350    .text:00000000000001b4 .L0 
     /tmp/cc7R4v5Z.s:351    .text:00000000000001b4 .L0 
     /tmp/cc7R4v5Z.s:353    .text:00000000000001b8 .L0 
     /tmp/cc7R4v5Z.s:356    .text:00000000000001bc .L0 
     /tmp/cc7R4v5Z.s:358    .text:00000000000001c0 .L0 
     /tmp/cc7R4v5Z.s:364    .text:00000000000001c8 .L0 
     /tmp/cc7R4v5Z.s:365    .text:00000000000001c8 .L0 
     /tmp/cc7R4v5Z.s:368    .text:00000000000001cc .L0 
     /tmp/cc7R4v5Z.s:371    .text:00000000000001d0 .L0 
     /tmp/cc7R4v5Z.s:373    .text:00000000000001d4 .L0 
     /tmp/cc7R4v5Z.s:375    .text:00000000000001d8 .L0 
     /tmp/cc7R4v5Z.s:378    .text:00000000000001dc .L0 
     /tmp/cc7R4v5Z.s:381    .text:00000000000001e0 .L0 
     /tmp/cc7R4v5Z.s:389    .text:00000000000001e8 .L0 
     /tmp/cc7R4v5Z.s:390    .text:00000000000001e8 .L0 
     /tmp/cc7R4v5Z.s:391    .text:00000000000001e8 .L0 
     /tmp/cc7R4v5Z.s:396    .text:00000000000001ec .L0 
     /tmp/cc7R4v5Z.s:397    .text:00000000000001ec .L0 
     /tmp/cc7R4v5Z.s:401    .text:00000000000001f8 .L0 
     /tmp/cc7R4v5Z.s:402    .text:00000000000001fc .L0 
     /tmp/cc7R4v5Z.s:403    .text:00000000000001fc .L0 
     /tmp/cc7R4v5Z.s:405    .text:0000000000000200 .L0 
     /tmp/cc7R4v5Z.s:406    .text:0000000000000200 .L0 
     /tmp/cc7R4v5Z.s:408    .text:0000000000000204 .L0 
     /tmp/cc7R4v5Z.s:411    .text:0000000000000208 .L0 
     /tmp/cc7R4v5Z.s:415    .text:000000000000020c .L0 
     /tmp/cc7R4v5Z.s:419    .text:000000000000020c .L0 
     /tmp/cc7R4v5Z.s:424    .text:0000000000000214 .L0 
     /tmp/cc7R4v5Z.s:428    .text:000000000000021c .L0 
     /tmp/cc7R4v5Z.s:434    .text:000000000000021c _ZN4_sem6signalEv
     /tmp/cc7R4v5Z.s:437    .text:000000000000021c .L0 
     /tmp/cc7R4v5Z.s:439    .text:000000000000021c .L0 
     /tmp/cc7R4v5Z.s:440    .text:000000000000021c .L0 
     /tmp/cc7R4v5Z.s:442    .text:0000000000000220 .L0 
     /tmp/cc7R4v5Z.s:446    .text:000000000000022c .L0 
     /tmp/cc7R4v5Z.s:448    .text:0000000000000230 .L0 
     /tmp/cc7R4v5Z.s:449    .text:0000000000000230 .L0 
     /tmp/cc7R4v5Z.s:455    .text:0000000000000238 .L0 
GAS LISTING /tmp/cc7R4v5Z.s 			page 19


     /tmp/cc7R4v5Z.s:456    .text:000000000000023c .L0 
     /tmp/cc7R4v5Z.s:459    .text:0000000000000244 .L0 
     /tmp/cc7R4v5Z.s:460    .text:0000000000000244 .L0 
     /tmp/cc7R4v5Z.s:462    .text:0000000000000248 .L0 
     /tmp/cc7R4v5Z.s:464    .text:0000000000000248 .L0 
     /tmp/cc7R4v5Z.s:465    .text:0000000000000248 .L0 
     /tmp/cc7R4v5Z.s:468    .text:0000000000000250 .L0 
     /tmp/cc7R4v5Z.s:469    .text:0000000000000250 .L0 
     /tmp/cc7R4v5Z.s:471    .text:0000000000000258 .L0 
     /tmp/cc7R4v5Z.s:473    .text:000000000000025c .L0 
     /tmp/cc7R4v5Z.s:474    .text:000000000000025c .L0 
     /tmp/cc7R4v5Z.s:476    .text:0000000000000260 .L0 
     /tmp/cc7R4v5Z.s:478    .text:0000000000000264 .L0 
     /tmp/cc7R4v5Z.s:484    .text:0000000000000264 _ZN4_sem15createSemaphoreEPPS_j
     /tmp/cc7R4v5Z.s:487    .text:0000000000000264 .L0 
     /tmp/cc7R4v5Z.s:489    .text:0000000000000264 .L0 
     /tmp/cc7R4v5Z.s:490    .text:0000000000000268 .L0 
     /tmp/cc7R4v5Z.s:495    .text:0000000000000278 .L0 
     /tmp/cc7R4v5Z.s:496    .text:0000000000000278 .L0 
     /tmp/cc7R4v5Z.s:497    .text:0000000000000278 .L0 
     /tmp/cc7R4v5Z.s:498    .text:0000000000000278 .L0 
     /tmp/cc7R4v5Z.s:500    .text:000000000000027c .L0 
     /tmp/cc7R4v5Z.s:504    .text:0000000000000284 .L0 
     /tmp/cc7R4v5Z.s:505    .text:0000000000000284 .L0 
     /tmp/cc7R4v5Z.s:513    .text:0000000000000290 .L0 
     /tmp/cc7R4v5Z.s:521    .text:00000000000002a0 .L0 
     /tmp/cc7R4v5Z.s:529    .text:00000000000002a8 .L0 
     /tmp/cc7R4v5Z.s:531    .text:00000000000002ac .L0 
     /tmp/cc7R4v5Z.s:532    .text:00000000000002ac .L0 
     /tmp/cc7R4v5Z.s:533    .text:00000000000002b0 .L0 
     /tmp/cc7R4v5Z.s:535    .text:00000000000002b4 .L0 
     /tmp/cc7R4v5Z.s:536    .text:00000000000002b4 .L0 
     /tmp/cc7R4v5Z.s:538    .text:00000000000002b8 .L0 
     /tmp/cc7R4v5Z.s:541    .text:00000000000002bc .L0 
     /tmp/cc7R4v5Z.s:543    .text:00000000000002c0 .L0 
     /tmp/cc7R4v5Z.s:545    .text:00000000000002c4 .L0 
     /tmp/cc7R4v5Z.s:551    .text:00000000000002c4 _ZN4_semD2Ev
     /tmp/cc7R4v5Z.s:554    .text:00000000000002c4 .L0 
     /tmp/cc7R4v5Z.s:3945   .data.rel.local.DW.ref.__gxx_personality_v0:0000000000000000 DW.ref.__gxx_personality_v0
     /tmp/cc7R4v5Z.s:558    .text:00000000000002c4 .L0 
     /tmp/cc7R4v5Z.s:559    .text:00000000000002c8 .L0 
     /tmp/cc7R4v5Z.s:562    .text:00000000000002d0 .L0 
     /tmp/cc7R4v5Z.s:563    .text:00000000000002d0 .L0 
     /tmp/cc7R4v5Z.s:565    .text:00000000000002d4 .L0 
     /tmp/cc7R4v5Z.s:568    .text:00000000000002d4 .L0 
     /tmp/cc7R4v5Z.s:569    .text:00000000000002d4 .L0 
     /tmp/cc7R4v5Z.s:573    .text:00000000000002dc .L0 
     /tmp/cc7R4v5Z.s:574    .text:00000000000002dc .L0 
     /tmp/cc7R4v5Z.s:575    .text:00000000000002e0 .L0 
     /tmp/cc7R4v5Z.s:577    .text:00000000000002e4 .L0 
     /tmp/cc7R4v5Z.s:578    .text:00000000000002e4 .L0 
     /tmp/cc7R4v5Z.s:580    .text:00000000000002e8 .L0 
     /tmp/cc7R4v5Z.s:582    .text:00000000000002ec .L0 
     /tmp/cc7R4v5Z.s:551    .text:00000000000002c4 _ZN4_semD1Ev
     /tmp/cc7R4v5Z.s:598    .text:00000000000002ec .L0 
     /tmp/cc7R4v5Z.s:186    .text:00000000000000cc .L0 
     /tmp/cc7R4v5Z.s:143    .text:000000000000009c .L8
GAS LISTING /tmp/cc7R4v5Z.s 			page 20


     /tmp/cc7R4v5Z.s:49     .text:0000000000000030 .L3
     /tmp/cc7R4v5Z.s:82     .text:000000000000005c .L7
     /tmp/cc7R4v5Z.s:120    .text:000000000000007c .L4
     /tmp/cc7R4v5Z.s:77     .text:0000000000000054 .L6
     /tmp/cc7R4v5Z.s:71     .text:0000000000000050 .L13
     /tmp/cc7R4v5Z.s:246    .text:0000000000000124 .L15
     /tmp/cc7R4v5Z.s:222    .text:0000000000000104 .L16
     /tmp/cc7R4v5Z.s:313    .text:0000000000000180 .L23
     /tmp/cc7R4v5Z.s:329    .text:000000000000019c .L21
     /tmp/cc7R4v5Z.s:320    .text:000000000000018c .L24
     /tmp/cc7R4v5Z.s:287    .text:000000000000015c .L19
     /tmp/cc7R4v5Z.s:298    .text:000000000000016c .L20
     /tmp/cc7R4v5Z.s:422    .text:0000000000000214 .L28
     /tmp/cc7R4v5Z.s:414    .text:000000000000020c .L30
     /tmp/cc7R4v5Z.s:376    .text:00000000000001dc .L27
     /tmp/cc7R4v5Z.s:383    .text:00000000000001e8 .L26
     /tmp/cc7R4v5Z.s:453    .text:0000000000000238 .L37
     /tmp/cc7R4v5Z.s:2079   .debug_abbrev:0000000000000000 .Ldebug_abbrev0
     /tmp/cc7R4v5Z.s:3893   .debug_str:000000000000063f .LASF118
     /tmp/cc7R4v5Z.s:3693   .debug_str:0000000000000066 .LASF119
     /tmp/cc7R4v5Z.s:3727   .debug_str:0000000000000194 .LASF120
     /tmp/cc7R4v5Z.s:5      .text:0000000000000000 .Ltext0
     /tmp/cc7R4v5Z.s:595    .text:00000000000002ec .Letext0
     /tmp/cc7R4v5Z.s:3677   .debug_line:0000000000000000 .Ldebug_line0
     /tmp/cc7R4v5Z.s:3825   .debug_str:000000000000046b .LASF0
     /tmp/cc7R4v5Z.s:3837   .debug_str:00000000000004b2 .LASF1
     /tmp/cc7R4v5Z.s:3811   .debug_str:00000000000003ff .LASF2
     /tmp/cc7R4v5Z.s:3775   .debug_str:0000000000000331 .LASF4
     /tmp/cc7R4v5Z.s:3875   .debug_str:00000000000005bf .LASF3
     /tmp/cc7R4v5Z.s:3705   .debug_str:00000000000000e6 .LASF5
     /tmp/cc7R4v5Z.s:3839   .debug_str:00000000000004c5 .LASF6
     /tmp/cc7R4v5Z.s:3823   .debug_str:0000000000000458 .LASF7
     /tmp/cc7R4v5Z.s:3909   .debug_str:0000000000000762 .LASF8
     /tmp/cc7R4v5Z.s:3757   .debug_str:000000000000028b .LASF9
     /tmp/cc7R4v5Z.s:3851   .debug_str:0000000000000523 .LASF10
     /tmp/cc7R4v5Z.s:3897   .debug_str:000000000000070f .LASF11
     /tmp/cc7R4v5Z.s:3711   .debug_str:000000000000010a .LASF12
     /tmp/cc7R4v5Z.s:3685   .debug_str:0000000000000037 .LASF13
     /tmp/cc7R4v5Z.s:3719   .debug_str:000000000000014c .LASF14
     /tmp/cc7R4v5Z.s:3867   .debug_str:0000000000000598 .LASF15
     /tmp/cc7R4v5Z.s:3729   .debug_str:00000000000001b7 .LASF16
     /tmp/cc7R4v5Z.s:3849   .debug_str:0000000000000519 .LASF17
     /tmp/cc7R4v5Z.s:3751   .debug_str:0000000000000268 .LASF76
     /tmp/cc7R4v5Z.s:3769   .debug_str:00000000000002f0 .LASF121
     /tmp/cc7R4v5Z.s:3717   .debug_str:0000000000000134 .LASF122
     /tmp/cc7R4v5Z.s:3799   .debug_str:00000000000003bb .LASF18
     /tmp/cc7R4v5Z.s:3899   .debug_str:000000000000071e .LASF21
     /tmp/cc7R4v5Z.s:3861   .debug_str:000000000000056c .LASF19
     /tmp/cc7R4v5Z.s:3929   .debug_str:00000000000007e3 .LASF20
     /tmp/cc7R4v5Z.s:3817   .debug_str:0000000000000429 .LASF70
     /tmp/cc7R4v5Z.s:3733   .debug_str:00000000000001de .LASF22
     /tmp/cc7R4v5Z.s:3805   .debug_str:00000000000003e5 .LASF23
     /tmp/cc7R4v5Z.s:3773   .debug_str:000000000000032c .LASF24
     /tmp/cc7R4v5Z.s:3883   .debug_str:00000000000005f9 .LASF26
     /tmp/cc7R4v5Z.s:3865   .debug_str:0000000000000581 .LASF31
     /tmp/cc7R4v5Z.s:3819   .debug_str:0000000000000448 .LASF123
     /tmp/cc7R4v5Z.s:3763   .debug_str:00000000000002b5 .LASF124
GAS LISTING /tmp/cc7R4v5Z.s 			page 21


     /tmp/cc7R4v5Z.s:3891   .debug_str:0000000000000636 .LASF25
     /tmp/cc7R4v5Z.s:3737   .debug_str:00000000000001ff .LASF27
     /tmp/cc7R4v5Z.s:3755   .debug_str:0000000000000283 .LASF28
     /tmp/cc7R4v5Z.s:3735   .debug_str:00000000000001e3 .LASF29
     /tmp/cc7R4v5Z.s:3895   .debug_str:0000000000000703 .LASF30
     /tmp/cc7R4v5Z.s:3683   .debug_str:0000000000000019 .LASF32
     /tmp/cc7R4v5Z.s:3715   .debug_str:000000000000012a .LASF33
     /tmp/cc7R4v5Z.s:3787   .debug_str:0000000000000366 .LASF34
     /tmp/cc7R4v5Z.s:3831   .debug_str:0000000000000486 .LASF35
     /tmp/cc7R4v5Z.s:3699   .debug_str:00000000000000a3 .LASF36
     /tmp/cc7R4v5Z.s:3791   .debug_str:0000000000000396 .LASF37
     /tmp/cc7R4v5Z.s:3921   .debug_str:00000000000007ab .LASF38
     /tmp/cc7R4v5Z.s:3691   .debug_str:000000000000005e .LASF39
     /tmp/cc7R4v5Z.s:3739   .debug_str:000000000000021c .LASF40
     /tmp/cc7R4v5Z.s:3857   .debug_str:000000000000055b .LASF41
     /tmp/cc7R4v5Z.s:3731   .debug_str:00000000000001cd .LASF61
     /tmp/cc7R4v5Z.s:3841   .debug_str:00000000000004d8 .LASF84
     /tmp/cc7R4v5Z.s:3843   .debug_str:00000000000004f5 .LASF42
     /tmp/cc7R4v5Z.s:3725   .debug_str:000000000000017d .LASF43
     /tmp/cc7R4v5Z.s:3813   .debug_str:000000000000040d .LASF44
     /tmp/cc7R4v5Z.s:3931   .debug_str:00000000000007e8 .LASF45
     /tmp/cc7R4v5Z.s:3901   .debug_str:0000000000000723 .LASF46
     /tmp/cc7R4v5Z.s:3743   .debug_str:000000000000022d .LASF47
     /tmp/cc7R4v5Z.s:3741   .debug_str:0000000000000221 .LASF48
     /tmp/cc7R4v5Z.s:3747   .debug_str:000000000000024c .LASF49
     /tmp/cc7R4v5Z.s:3689   .debug_str:0000000000000054 .LASF50
     /tmp/cc7R4v5Z.s:3789   .debug_str:0000000000000381 .LASF51
     /tmp/cc7R4v5Z.s:3777   .debug_str:0000000000000338 .LASF52
     /tmp/cc7R4v5Z.s:3903   .debug_str:000000000000072e .LASF53
     /tmp/cc7R4v5Z.s:3801   .debug_str:00000000000003c5 .LASF54
     /tmp/cc7R4v5Z.s:3703   .debug_str:00000000000000cd .LASF55
     /tmp/cc7R4v5Z.s:3785   .debug_str:0000000000000359 .LASF56
     /tmp/cc7R4v5Z.s:3695   .debug_str:0000000000000073 .LASF57
     /tmp/cc7R4v5Z.s:3859   .debug_str:0000000000000567 .LASF125
     /tmp/cc7R4v5Z.s:3869   .debug_str:00000000000005ae .LASF126
     /tmp/cc7R4v5Z.s:3815   .debug_str:0000000000000419 .LASF127
     /tmp/cc7R4v5Z.s:3885   .debug_str:000000000000060c .LASF58
     /tmp/cc7R4v5Z.s:3889   .debug_str:0000000000000626 .LASF59
     /tmp/cc7R4v5Z.s:3745   .debug_str:0000000000000244 .LASF60
     /tmp/cc7R4v5Z.s:3835   .debug_str:000000000000049b .LASF128
     /tmp/cc7R4v5Z.s:3781   .debug_str:000000000000034c .LASF62
     /tmp/cc7R4v5Z.s:3721   .debug_str:0000000000000158 .LASF63
     /tmp/cc7R4v5Z.s:3783   .debug_str:0000000000000351 .LASF64
     /tmp/cc7R4v5Z.s:3833   .debug_str:0000000000000491 .LASF65
     /tmp/cc7R4v5Z.s:3779   .debug_str:0000000000000343 .LASF66
     /tmp/cc7R4v5Z.s:3853   .debug_str:0000000000000532 .LASF67
     /tmp/cc7R4v5Z.s:3679   .debug_str:0000000000000000 .LASF68
     /tmp/cc7R4v5Z.s:3793   .debug_str:000000000000039f .LASF72
     /tmp/cc7R4v5Z.s:3765   .debug_str:00000000000002cc .LASF74
     /tmp/cc7R4v5Z.s:3915   .debug_str:000000000000078b .LASF69
     /tmp/cc7R4v5Z.s:3771   .debug_str:0000000000000304 .LASF71
     /tmp/cc7R4v5Z.s:3827   .debug_str:0000000000000478 .LASF73
     /tmp/cc7R4v5Z.s:3803   .debug_str:00000000000003d2 .LASF75
     /tmp/cc7R4v5Z.s:3877   .debug_str:00000000000005d1 .LASF77
     /tmp/cc7R4v5Z.s:3709   .debug_str:00000000000000ff .LASF78
     /tmp/cc7R4v5Z.s:3767   .debug_str:00000000000002e5 .LASF79
     /tmp/cc7R4v5Z.s:3749   .debug_str:0000000000000263 .LASF80
GAS LISTING /tmp/cc7R4v5Z.s 			page 22


     /tmp/cc7R4v5Z.s:3919   .debug_str:00000000000007a6 .LASF81
     /tmp/cc7R4v5Z.s:3905   .debug_str:0000000000000744 .LASF82
     /tmp/cc7R4v5Z.s:3879   .debug_str:00000000000005e2 .LASF83
     /tmp/cc7R4v5Z.s:3807   .debug_str:00000000000003ea .LASF85
     /tmp/cc7R4v5Z.s:3797   .debug_str:00000000000003b5 .LASF86
     /tmp/cc7R4v5Z.s:3701   .debug_str:00000000000000c0 .LASF87
     /tmp/cc7R4v5Z.s:3933   .debug_str:00000000000007ff .LASF88
     /tmp/cc7R4v5Z.s:3863   .debug_str:0000000000000571 .LASF89
     /tmp/cc7R4v5Z.s:3845   .debug_str:0000000000000500 .LASF90
     /tmp/cc7R4v5Z.s:3707   .debug_str:00000000000000ed .LASF91
     /tmp/cc7R4v5Z.s:3913   .debug_str:0000000000000785 .LASF92
     /tmp/cc7R4v5Z.s:3907   .debug_str:0000000000000751 .LASF93
     /tmp/cc7R4v5Z.s:3923   .debug_str:00000000000007c5 .LASF94
     /tmp/cc7R4v5Z.s:3847   .debug_str:0000000000000507 .LASF95
     /tmp/cc7R4v5Z.s:3713   .debug_str:000000000000011a .LASF96
     /tmp/cc7R4v5Z.s:3855   .debug_str:000000000000053b .LASF97
     /tmp/cc7R4v5Z.s:3821   .debug_str:0000000000000452 .LASF98
     /tmp/cc7R4v5Z.s:3681   .debug_str:0000000000000008 .LASF99
     /tmp/cc7R4v5Z.s:3795   .debug_str:00000000000003ad .LASF100
     /tmp/cc7R4v5Z.s:3927   .debug_str:00000000000007d0 .LASF101
     /tmp/cc7R4v5Z.s:3809   .debug_str:00000000000003f8 .LASF102
     /tmp/cc7R4v5Z.s:3759   .debug_str:0000000000000299 .LASF103
     /tmp/cc7R4v5Z.s:3887   .debug_str:0000000000000612 .LASF104
     /tmp/cc7R4v5Z.s:3925   .debug_str:00000000000007cb .LASF105
     /tmp/cc7R4v5Z.s:3723   .debug_str:000000000000015e .LASF107
     /tmp/cc7R4v5Z.s:3871   .debug_str:00000000000005b4 .LASF106
     /tmp/cc7R4v5Z.s:3911   .debug_str:0000000000000772 .LASF108
     /tmp/cc7R4v5Z.s:3697   .debug_str:0000000000000099 .LASF109
     /tmp/cc7R4v5Z.s:3761   .debug_str:00000000000002a8 .LASF129
     /tmp/cc7R4v5Z.s:552    .text:00000000000002c4 .LFB34
     /tmp/cc7R4v5Z.s:583    .text:00000000000002ec .LFE34
     /tmp/cc7R4v5Z.s:3240   .debug_loc:0000000000000000 .LLST31
     /tmp/cc7R4v5Z.s:570    .text:00000000000002dc .LVL53
     /tmp/cc7R4v5Z.s:566    .text:00000000000002d4 .LBB76
     /tmp/cc7R4v5Z.s:572    .text:00000000000002dc .LBE76
     /tmp/cc7R4v5Z.s:485    .text:0000000000000264 .LFB32
     /tmp/cc7R4v5Z.s:546    .text:00000000000002c4 .LFE32
     /tmp/cc7R4v5Z.s:3881   .debug_str:00000000000005f2 .LASF110
     /tmp/cc7R4v5Z.s:3254   .debug_loc:0000000000000039 .LLST26
     /tmp/cc7R4v5Z.s:3935   .debug_str:0000000000000804 .LASF111
     /tmp/cc7R4v5Z.s:3272   .debug_loc:0000000000000085 .LLST27
     /tmp/cc7R4v5Z.s:509    .text:0000000000000290 .LBB72
     /tmp/cc7R4v5Z.s:527    .text:00000000000002a8 .LBE72
     /tmp/cc7R4v5Z.s:3286   .debug_loc:00000000000000be .LLST28
     /tmp/cc7R4v5Z.s:3293   .debug_loc:00000000000000e1 .LLST29
     /tmp/cc7R4v5Z.s:518    .text:00000000000002a0 .LBB74
     /tmp/cc7R4v5Z.s:525    .text:00000000000002a8 .LBE74
     /tmp/cc7R4v5Z.s:3300   .debug_loc:0000000000000104 .LLST30
     /tmp/cc7R4v5Z.s:508    .text:0000000000000290 .LVL48
     /tmp/cc7R4v5Z.s:340    .text:00000000000001a4 .LFB31
     /tmp/cc7R4v5Z.s:429    .text:000000000000021c .LFE31
     /tmp/cc7R4v5Z.s:3309   .debug_loc:0000000000000129 .LLST18
     /tmp/cc7R4v5Z.s:3829   .debug_str:0000000000000481 .LASF112
     /tmp/cc7R4v5Z.s:3331   .debug_loc:0000000000000188 .LLST19
     /tmp/cc7R4v5Z.s:362    .text:00000000000001c8 .LBB66
     /tmp/cc7R4v5Z.s:3657   .debug_ranges:0000000000000000 .Ldebug_ranges0
     /tmp/cc7R4v5Z.s:3338   .debug_loc:00000000000001ab .LLST20
GAS LISTING /tmp/cc7R4v5Z.s 			page 23


     /tmp/cc7R4v5Z.s:3368   .debug_loc:0000000000000212 .LLST21
     /tmp/cc7R4v5Z.s:3379   .debug_loc:0000000000000248 .LLST22
     /tmp/cc7R4v5Z.s:382    .text:00000000000001e8 .LVL36
     /tmp/cc7R4v5Z.s:387    .text:00000000000001e8 .LBB69
     /tmp/cc7R4v5Z.s:394    .text:00000000000001ec .LBE69
     /tmp/cc7R4v5Z.s:3386   .debug_loc:000000000000026b .LLST23
     /tmp/cc7R4v5Z.s:3394   .debug_loc:000000000000028f .LLST24
     /tmp/cc7R4v5Z.s:399    .text:00000000000001f8 .LVL38
     /tmp/cc7R4v5Z.s:162    .text:00000000000000a4 .LFB30
     /tmp/cc7R4v5Z.s:257    .text:0000000000000130 .LFE30
     /tmp/cc7R4v5Z.s:3401   .debug_loc:00000000000002b2 .LLST8
     /tmp/cc7R4v5Z.s:189    .text:00000000000000d8 .LBB58
     /tmp/cc7R4v5Z.s:197    .text:00000000000000e0 .LBE58
     /tmp/cc7R4v5Z.s:3423   .debug_loc:0000000000000311 .LLST9
     /tmp/cc7R4v5Z.s:3431   .debug_loc:0000000000000335 .LLST10
     /tmp/cc7R4v5Z.s:199    .text:00000000000000e0 .LBB60
     /tmp/cc7R4v5Z.s:3438   .debug_loc:0000000000000358 .LLST11
     /tmp/cc7R4v5Z.s:3449   .debug_loc:000000000000038e .LLST12
     /tmp/cc7R4v5Z.s:3470   .debug_loc:00000000000003dd .LLST13
     /tmp/cc7R4v5Z.s:206    .text:00000000000000ec .LBB62
     /tmp/cc7R4v5Z.s:213    .text:00000000000000f4 .LBE62
     /tmp/cc7R4v5Z.s:3481   .debug_loc:0000000000000413 .LLST14
     /tmp/cc7R4v5Z.s:3489   .debug_loc:0000000000000437 .LLST15
     /tmp/cc7R4v5Z.s:3496   .debug_loc:000000000000045a .LLST16
     /tmp/cc7R4v5Z.s:205    .text:00000000000000ec .LVL20
     /tmp/cc7R4v5Z.s:229    .text:000000000000010c .LVL23
     /tmp/cc7R4v5Z.s:10     .text:0000000000000000 .LFB29
     /tmp/cc7R4v5Z.s:156    .text:00000000000000a4 .LFE29
     /tmp/cc7R4v5Z.s:3503   .debug_loc:000000000000047d .LLST0
     /tmp/cc7R4v5Z.s:34     .text:0000000000000020 .LBB46
     /tmp/cc7R4v5Z.s:45     .text:000000000000002c .LBE46
     /tmp/cc7R4v5Z.s:3536   .debug_loc:0000000000000505 .LLST1
     /tmp/cc7R4v5Z.s:73     .text:0000000000000050 .LBB48
     /tmp/cc7R4v5Z.s:3545   .debug_loc:000000000000052a .LLST2
     /tmp/cc7R4v5Z.s:3556   .debug_loc:0000000000000560 .LLST3
     /tmp/cc7R4v5Z.s:81     .text:000000000000005c .LVL7
     /tmp/cc7R4v5Z.s:87     .text:000000000000005c .LBB51
     /tmp/cc7R4v5Z.s:97     .text:0000000000000068 .LBE51
     /tmp/cc7R4v5Z.s:3564   .debug_loc:0000000000000584 .LLST4
     /tmp/cc7R4v5Z.s:102    .text:000000000000006c .LBB53
     /tmp/cc7R4v5Z.s:110    .text:0000000000000070 .LBE53
     /tmp/cc7R4v5Z.s:3573   .debug_loc:00000000000005a9 .LLST5
     /tmp/cc7R4v5Z.s:3581   .debug_loc:00000000000005cd .LLST6
     /tmp/cc7R4v5Z.s:112    .text:0000000000000070 .LBB55
     /tmp/cc7R4v5Z.s:123    .text:000000000000007c .LBE55
     /tmp/cc7R4v5Z.s:3588   .debug_loc:00000000000005f0 .LLST7
     /tmp/cc7R4v5Z.s:126    .text:0000000000000084 .LVL12
     /tmp/cc7R4v5Z.s:435    .text:000000000000021c .LFB28
     /tmp/cc7R4v5Z.s:479    .text:0000000000000264 .LFE28
     /tmp/cc7R4v5Z.s:3597   .debug_loc:0000000000000615 .LLST25
     /tmp/cc7R4v5Z.s:466    .text:0000000000000250 .LVL45
     /tmp/cc7R4v5Z.s:263    .text:0000000000000130 .LFB27
     /tmp/cc7R4v5Z.s:334    .text:00000000000001a4 .LFE27
     /tmp/cc7R4v5Z.s:3622   .debug_loc:0000000000000677 .LLST17
     /tmp/cc7R4v5Z.s:318    .text:0000000000000188 .LVL30
     /tmp/cc7R4v5Z.s:3753   .debug_str:0000000000000279 .LASF113
     /tmp/cc7R4v5Z.s:3687   .debug_str:0000000000000047 .LASF114
GAS LISTING /tmp/cc7R4v5Z.s 			page 24


     /tmp/cc7R4v5Z.s:3873   .debug_str:00000000000005b9 .LASF115
     /tmp/cc7R4v5Z.s:3917   .debug_str:0000000000000799 .LASF117
     /tmp/cc7R4v5Z.s:3937   .debug_str:0000000000000809 .LASF116
     /tmp/cc7R4v5Z.s:557    .text:00000000000002c4 .LVL52
     /tmp/cc7R4v5Z.s:488    .text:0000000000000264 .LVL46
     /tmp/cc7R4v5Z.s:506    .text:0000000000000288 .LVL47
     /tmp/cc7R4v5Z.s:539    .text:00000000000002b8 .LVL51
     /tmp/cc7R4v5Z.s:523    .text:00000000000002a8 .LVL50
     /tmp/cc7R4v5Z.s:517    .text:00000000000002a0 .LVL49
     /tmp/cc7R4v5Z.s:343    .text:00000000000001a4 .LVL31
     /tmp/cc7R4v5Z.s:366    .text:00000000000001cc .LVL33
     /tmp/cc7R4v5Z.s:413    .text:000000000000020c .LVL40
     /tmp/cc7R4v5Z.s:409    .text:0000000000000204 .LVL39
     /tmp/cc7R4v5Z.s:361    .text:00000000000001c8 .LVL32
     /tmp/cc7R4v5Z.s:369    .text:00000000000001d0 .LVL34
     /tmp/cc7R4v5Z.s:421    .text:0000000000000214 .LVL41
     /tmp/cc7R4v5Z.s:379    .text:00000000000001e0 .LVL35
     /tmp/cc7R4v5Z.s:392    .text:00000000000001ec .LVL37
     /tmp/cc7R4v5Z.s:165    .text:00000000000000a4 .LVL16
     /tmp/cc7R4v5Z.s:203    .text:00000000000000e4 .LVL19
     /tmp/cc7R4v5Z.s:239    .text:0000000000000118 .LVL24
     /tmp/cc7R4v5Z.s:245    .text:0000000000000124 .LVL25
     /tmp/cc7R4v5Z.s:188    .text:00000000000000d8 .LVL17
     /tmp/cc7R4v5Z.s:195    .text:00000000000000e0 .LVL18
     /tmp/cc7R4v5Z.s:223    .text:0000000000000104 .LVL22
     /tmp/cc7R4v5Z.s:211    .text:00000000000000f4 .LVL21
     /tmp/cc7R4v5Z.s:14     .text:0000000000000000 .LVL0
     /tmp/cc7R4v5Z.s:48     .text:0000000000000030 .LVL3
     /tmp/cc7R4v5Z.s:66     .text:0000000000000048 .LVL4
     /tmp/cc7R4v5Z.s:70     .text:0000000000000050 .LVL5
     /tmp/cc7R4v5Z.s:142    .text:000000000000009c .LVL14
     /tmp/cc7R4v5Z.s:152    .text:00000000000000a0 .LVL15
     /tmp/cc7R4v5Z.s:33     .text:0000000000000020 .LVL1
     /tmp/cc7R4v5Z.s:43     .text:000000000000002c .LVL2
     /tmp/cc7R4v5Z.s:134    .text:000000000000008c .LVL13
     /tmp/cc7R4v5Z.s:78     .text:0000000000000054 .LVL6
     /tmp/cc7R4v5Z.s:95     .text:0000000000000068 .LVL8
     /tmp/cc7R4v5Z.s:101    .text:000000000000006c .LVL9
     /tmp/cc7R4v5Z.s:108    .text:0000000000000070 .LVL10
     /tmp/cc7R4v5Z.s:121    .text:000000000000007c .LVL11
     /tmp/cc7R4v5Z.s:438    .text:000000000000021c .LVL42
     /tmp/cc7R4v5Z.s:450    .text:0000000000000234 .LVL43
     /tmp/cc7R4v5Z.s:452    .text:0000000000000238 .LVL44
     /tmp/cc7R4v5Z.s:266    .text:0000000000000130 .LVL26
     /tmp/cc7R4v5Z.s:286    .text:000000000000015c .LVL27
     /tmp/cc7R4v5Z.s:308    .text:0000000000000178 .LVL28
     /tmp/cc7R4v5Z.s:312    .text:0000000000000180 .LVL29
     /tmp/cc7R4v5Z.s:599    .debug_info:0000000000000000 .Ldebug_info0
     /tmp/cc7R4v5Z.s:84     .text:000000000000005c .LBE48
     /tmp/cc7R4v5Z.s:128    .text:0000000000000084 .LBB57
     /tmp/cc7R4v5Z.s:149    .text:000000000000009c .LBE57
     /tmp/cc7R4v5Z.s:225    .text:0000000000000104 .LBE60
     /tmp/cc7R4v5Z.s:248    .text:0000000000000124 .LBB65
     /tmp/cc7R4v5Z.s:255    .text:0000000000000130 .LBE65
     /tmp/cc7R4v5Z.s:385    .text:00000000000001e8 .LBE66
     /tmp/cc7R4v5Z.s:416    .text:000000000000020c .LBB71
     /tmp/cc7R4v5Z.s:427    .text:000000000000021c .LBE71
GAS LISTING /tmp/cc7R4v5Z.s 			page 25


     /tmp/cc7R4v5Z.s:586    .gcc_except_table:0000000000000000 .LLSDA34

UNDEFINED SYMBOLS
_ZdlPv
_ZN9Scheduler3putEP3TCB
_ZN3TCB7runningE
_Znwm
_ZN3TCB8dispatchEv
__gxx_personality_v0
