GAS LISTING /tmp/ccU2lQwC.s 			page 1


   1              		.file	"buffer.cpp"
   2              		.option pic
   3              		.option norelax
   4              		.text
   5              	.Ltext0:
   6              		.align	2
   7              		.globl	_ZN6BufferC2Ev
   9              	_ZN6BufferC2Ev:
  10              	.LFB14:
  11              		.file 1 "src/buffer.cpp"
   1:src/buffer.cpp **** #include "../h/buffer.hpp"
   2:src/buffer.cpp **** #include "../h/syscall_c.h"
   3:src/buffer.cpp **** 
   4:src/buffer.cpp **** Buffer::Buffer() : head(0),tail(0),count(0) {
  12              		.loc 1 4 1
  13              		.cfi_startproc
  14              	.LVL0:
  15 0000 130101FF 		addi	sp,sp,-16
  16              		.cfi_def_cfa_offset 16
  17 0004 23341100 		sd	ra,8(sp)
  18 0008 23308100 		sd	s0,0(sp)
  19              		.cfi_offset 1, -8
  20              		.cfi_offset 8, -16
  21 000c 13040101 		addi	s0,sp,16
  22              		.cfi_def_cfa 8, 0
  23              	.LBB2:
  24              		.loc 1 4 43 is_stmt 0
  25 0010 23340510 		sd	zero,264(a0)
  26 0014 23380510 		sd	zero,272(a0)
  27 0018 233C0510 		sd	zero,280(a0)
   5:src/buffer.cpp ****     sem_open(&itemAvailable, 0);
  28              		.loc 1 5 5 is_stmt 1
  29              		.loc 1 5 13 is_stmt 0
  30 001c 93050000 		li	a1,0
  31 0020 97000000 		call	_Z8sem_openPP4_semj@plt
  31      E7800000 
  32              	.LVL1:
  33              	.LBE2:
   6:src/buffer.cpp **** }
  34              		.loc 1 6 1
  35 0028 83308100 		ld	ra,8(sp)
  36              		.cfi_restore 1
  37 002c 03340100 		ld	s0,0(sp)
  38              		.cfi_restore 8
  39              		.cfi_def_cfa 2, 16
  40 0030 13010101 		addi	sp,sp,16
  41              		.cfi_def_cfa_offset 0
  42 0034 67800000 		jr	ra
  43              		.cfi_endproc
  44              	.LFE14:
  46              		.globl	_ZN6BufferC1Ev
  47              		.set	_ZN6BufferC1Ev,_ZN6BufferC2Ev
  48              		.align	2
  49              		.globl	_ZN6Buffer4getcEv
  51              	_ZN6Buffer4getcEv:
  52              	.LFB16:
   7:src/buffer.cpp **** 
GAS LISTING /tmp/ccU2lQwC.s 			page 2


   8:src/buffer.cpp **** char Buffer::getc () {
  53              		.loc 1 8 22 is_stmt 1
  54              		.cfi_startproc
  55              	.LVL2:
  56 0038 130101FE 		addi	sp,sp,-32
  57              		.cfi_def_cfa_offset 32
  58 003c 233C1100 		sd	ra,24(sp)
  59 0040 23388100 		sd	s0,16(sp)
  60 0044 23349100 		sd	s1,8(sp)
  61              		.cfi_offset 1, -8
  62              		.cfi_offset 8, -16
  63              		.cfi_offset 9, -24
  64 0048 13040102 		addi	s0,sp,32
  65              		.cfi_def_cfa 8, 0
  66 004c 93040500 		mv	s1,a0
   9:src/buffer.cpp ****     itemAvailable->wait();
  67              		.loc 1 9 5
  68              		.loc 1 9 24 is_stmt 0
  69 0050 03350500 		ld	a0,0(a0)
  70              	.LVL3:
  71 0054 97000000 		call	_ZN4_sem4waitEv@plt
  71      E7800000 
  72              	.LVL4:
  10:src/buffer.cpp ****     char c = buffer[head];
  73              		.loc 1 10 5 is_stmt 1
  74              		.loc 1 10 21 is_stmt 0
  75 005c 83B78410 		ld	a5,264(s1)
  76              		.loc 1 10 10
  77 0060 3387F400 		add	a4,s1,a5
  78 0064 03458700 		lbu	a0,8(a4)
  79              	.LVL5:
  11:src/buffer.cpp ****     head = (head+1)%KB_SIZE;
  80              		.loc 1 11 5 is_stmt 1
  81              		.loc 1 11 17 is_stmt 0
  82 0068 93871700 		addi	a5,a5,1
  83              		.loc 1 11 20
  84 006c 93F7F70F 		andi	a5,a5,255
  85              		.loc 1 11 10
  86 0070 23B4F410 		sd	a5,264(s1)
  12:src/buffer.cpp ****     count--;
  87              		.loc 1 12 5 is_stmt 1
  88 0074 83B78411 		ld	a5,280(s1)
  89              		.loc 1 12 10 is_stmt 0
  90 0078 9387F7FF 		addi	a5,a5,-1
  91 007c 23BCF410 		sd	a5,280(s1)
  13:src/buffer.cpp ****     return c;
  92              		.loc 1 13 5 is_stmt 1
  14:src/buffer.cpp **** }
  93              		.loc 1 14 1 is_stmt 0
  94 0080 83308101 		ld	ra,24(sp)
  95              		.cfi_restore 1
  96 0084 03340101 		ld	s0,16(sp)
  97              		.cfi_restore 8
  98              		.cfi_def_cfa 2, 32
  99 0088 83348100 		ld	s1,8(sp)
 100              		.cfi_restore 9
 101              	.LVL6:
GAS LISTING /tmp/ccU2lQwC.s 			page 3


 102 008c 13010102 		addi	sp,sp,32
 103              		.cfi_def_cfa_offset 0
 104 0090 67800000 		jr	ra
 105              		.cfi_endproc
 106              	.LFE16:
 108              		.align	2
 109              		.globl	_ZN6Buffer4putcEc
 111              	_ZN6Buffer4putcEc:
 112              	.LFB17:
  15:src/buffer.cpp **** void Buffer::putc (char c) {
 113              		.loc 1 15 28 is_stmt 1
 114              		.cfi_startproc
 115              	.LVL7:
  16:src/buffer.cpp ****     if (count<KB_SIZE) {
 116              		.loc 1 16 5
 117              		.loc 1 16 9 is_stmt 0
 118 0094 83378511 		ld	a5,280(a0)
 119              		.loc 1 16 5
 120 0098 1307F00F 		li	a4,255
 121 009c 6374F700 		bleu	a5,a4,.L11
 122 00a0 67800000 		ret
 123              	.L11:
  15:src/buffer.cpp **** void Buffer::putc (char c) {
 124              		.loc 1 15 28
 125 00a4 130101FF 		addi	sp,sp,-16
 126              		.cfi_def_cfa_offset 16
 127 00a8 23341100 		sd	ra,8(sp)
 128 00ac 23308100 		sd	s0,0(sp)
 129              		.cfi_offset 1, -8
 130              		.cfi_offset 8, -16
 131 00b0 13040101 		addi	s0,sp,16
 132              		.cfi_def_cfa 8, 0
  17:src/buffer.cpp ****         buffer[tail] = c;
 133              		.loc 1 17 9 is_stmt 1
 134              		.loc 1 17 16 is_stmt 0
 135 00b4 03370511 		ld	a4,272(a0)
 136              		.loc 1 17 22
 137 00b8 B306E500 		add	a3,a0,a4
 138 00bc 2384B600 		sb	a1,8(a3)
  18:src/buffer.cpp ****         tail = (tail+1)%KB_SIZE;
 139              		.loc 1 18 9 is_stmt 1
 140              		.loc 1 18 21 is_stmt 0
 141 00c0 13071700 		addi	a4,a4,1
 142              		.loc 1 18 24
 143 00c4 1377F70F 		andi	a4,a4,255
 144              		.loc 1 18 14
 145 00c8 2338E510 		sd	a4,272(a0)
  19:src/buffer.cpp ****         count++;
 146              		.loc 1 19 9 is_stmt 1
 147              		.loc 1 19 14 is_stmt 0
 148 00cc 93871700 		addi	a5,a5,1
 149 00d0 233CF510 		sd	a5,280(a0)
  20:src/buffer.cpp ****         itemAvailable->signal();
 150              		.loc 1 20 9 is_stmt 1
 151              		.loc 1 20 30 is_stmt 0
 152 00d4 03350500 		ld	a0,0(a0)
 153              	.LVL8:
GAS LISTING /tmp/ccU2lQwC.s 			page 4


 154 00d8 97000000 		call	_ZN4_sem6signalEv@plt
 154      E7800000 
 155              	.LVL9:
  21:src/buffer.cpp ****     }
  22:src/buffer.cpp **** }
 156              		.loc 1 22 1
 157 00e0 83308100 		ld	ra,8(sp)
 158              		.cfi_restore 1
 159 00e4 03340100 		ld	s0,0(sp)
 160              		.cfi_restore 8
 161              		.cfi_def_cfa 2, 16
 162 00e8 13010101 		addi	sp,sp,16
 163              		.cfi_def_cfa_offset 0
 164 00ec 67800000 		jr	ra
 165              		.cfi_endproc
 166              	.LFE17:
 168              	.Letext0:
 169              		.file 2 "src/../h/../lib/hw.h"
 170              		.file 3 "src/../h/../h/list.hpp"
 171              		.file 4 "src/../h/../h/_sem.hpp"
 172              		.file 5 "src/../h/buffer.hpp"
 173              		.file 6 "src/../h/syscall_c.h"
GAS LISTING /tmp/ccU2lQwC.s 			page 5


DEFINED SYMBOLS
                            *ABS*:0000000000000000 buffer.cpp
     /tmp/ccU2lQwC.s:9      .text:0000000000000000 _ZN6BufferC2Ev
     /tmp/ccU2lQwC.s:13     .text:0000000000000000 .L0 
     /tmp/ccU2lQwC.s:15     .text:0000000000000000 .L0 
     /tmp/ccU2lQwC.s:16     .text:0000000000000004 .L0 
     /tmp/ccU2lQwC.s:19     .text:000000000000000c .L0 
     /tmp/ccU2lQwC.s:20     .text:000000000000000c .L0 
     /tmp/ccU2lQwC.s:22     .text:0000000000000010 .L0 
     /tmp/ccU2lQwC.s:25     .text:0000000000000010 .L0 
     /tmp/ccU2lQwC.s:29     .text:000000000000001c .L0 
     /tmp/ccU2lQwC.s:30     .text:000000000000001c .L0 
     /tmp/ccU2lQwC.s:35     .text:0000000000000028 .L0 
     /tmp/ccU2lQwC.s:36     .text:000000000000002c .L0 
     /tmp/ccU2lQwC.s:38     .text:0000000000000030 .L0 
     /tmp/ccU2lQwC.s:39     .text:0000000000000030 .L0 
     /tmp/ccU2lQwC.s:41     .text:0000000000000034 .L0 
     /tmp/ccU2lQwC.s:43     .text:0000000000000038 .L0 
     /tmp/ccU2lQwC.s:9      .text:0000000000000000 _ZN6BufferC1Ev
     /tmp/ccU2lQwC.s:51     .text:0000000000000038 _ZN6Buffer4getcEv
     /tmp/ccU2lQwC.s:54     .text:0000000000000038 .L0 
     /tmp/ccU2lQwC.s:56     .text:0000000000000038 .L0 
     /tmp/ccU2lQwC.s:57     .text:000000000000003c .L0 
     /tmp/ccU2lQwC.s:61     .text:0000000000000048 .L0 
     /tmp/ccU2lQwC.s:62     .text:0000000000000048 .L0 
     /tmp/ccU2lQwC.s:63     .text:0000000000000048 .L0 
     /tmp/ccU2lQwC.s:65     .text:000000000000004c .L0 
     /tmp/ccU2lQwC.s:68     .text:0000000000000050 .L0 
     /tmp/ccU2lQwC.s:69     .text:0000000000000050 .L0 
     /tmp/ccU2lQwC.s:74     .text:000000000000005c .L0 
     /tmp/ccU2lQwC.s:75     .text:000000000000005c .L0 
     /tmp/ccU2lQwC.s:77     .text:0000000000000060 .L0 
     /tmp/ccU2lQwC.s:81     .text:0000000000000068 .L0 
     /tmp/ccU2lQwC.s:82     .text:0000000000000068 .L0 
     /tmp/ccU2lQwC.s:84     .text:000000000000006c .L0 
     /tmp/ccU2lQwC.s:86     .text:0000000000000070 .L0 
     /tmp/ccU2lQwC.s:88     .text:0000000000000074 .L0 
     /tmp/ccU2lQwC.s:90     .text:0000000000000078 .L0 
     /tmp/ccU2lQwC.s:93     .text:0000000000000080 .L0 
     /tmp/ccU2lQwC.s:94     .text:0000000000000080 .L0 
     /tmp/ccU2lQwC.s:95     .text:0000000000000084 .L0 
     /tmp/ccU2lQwC.s:97     .text:0000000000000088 .L0 
     /tmp/ccU2lQwC.s:98     .text:0000000000000088 .L0 
     /tmp/ccU2lQwC.s:100    .text:000000000000008c .L0 
     /tmp/ccU2lQwC.s:103    .text:0000000000000090 .L0 
     /tmp/ccU2lQwC.s:105    .text:0000000000000094 .L0 
     /tmp/ccU2lQwC.s:111    .text:0000000000000094 _ZN6Buffer4putcEc
     /tmp/ccU2lQwC.s:114    .text:0000000000000094 .L0 
     /tmp/ccU2lQwC.s:116    .text:0000000000000094 .L0 
     /tmp/ccU2lQwC.s:117    .text:0000000000000094 .L0 
     /tmp/ccU2lQwC.s:118    .text:0000000000000094 .L0 
     /tmp/ccU2lQwC.s:120    .text:0000000000000098 .L0 
     /tmp/ccU2lQwC.s:125    .text:00000000000000a4 .L0 
     /tmp/ccU2lQwC.s:126    .text:00000000000000a8 .L0 
     /tmp/ccU2lQwC.s:129    .text:00000000000000b0 .L0 
     /tmp/ccU2lQwC.s:130    .text:00000000000000b0 .L0 
     /tmp/ccU2lQwC.s:132    .text:00000000000000b4 .L0 
GAS LISTING /tmp/ccU2lQwC.s 			page 6


     /tmp/ccU2lQwC.s:134    .text:00000000000000b4 .L0 
     /tmp/ccU2lQwC.s:135    .text:00000000000000b4 .L0 
     /tmp/ccU2lQwC.s:137    .text:00000000000000b8 .L0 
     /tmp/ccU2lQwC.s:140    .text:00000000000000c0 .L0 
     /tmp/ccU2lQwC.s:141    .text:00000000000000c0 .L0 
     /tmp/ccU2lQwC.s:143    .text:00000000000000c4 .L0 
     /tmp/ccU2lQwC.s:145    .text:00000000000000c8 .L0 
     /tmp/ccU2lQwC.s:147    .text:00000000000000cc .L0 
     /tmp/ccU2lQwC.s:148    .text:00000000000000cc .L0 
     /tmp/ccU2lQwC.s:151    .text:00000000000000d4 .L0 
     /tmp/ccU2lQwC.s:152    .text:00000000000000d4 .L0 
     /tmp/ccU2lQwC.s:157    .text:00000000000000e0 .L0 
     /tmp/ccU2lQwC.s:158    .text:00000000000000e4 .L0 
     /tmp/ccU2lQwC.s:160    .text:00000000000000e8 .L0 
     /tmp/ccU2lQwC.s:161    .text:00000000000000e8 .L0 
     /tmp/ccU2lQwC.s:163    .text:00000000000000ec .L0 
     /tmp/ccU2lQwC.s:165    .text:00000000000000f0 .L0 
     /tmp/ccU2lQwC.s:174    .text:00000000000000f0 .L0 
     /tmp/ccU2lQwC.s:123    .text:00000000000000a4 .L11
     /tmp/ccU2lQwC.s:859    .debug_abbrev:0000000000000000 .Ldebug_abbrev0
     /tmp/ccU2lQwC.s:1681   .debug_str:000000000000021f .LASF70
     /tmp/ccU2lQwC.s:1685   .debug_str:00000000000002eb .LASF71
     /tmp/ccU2lQwC.s:1711   .debug_str:000000000000037d .LASF72
     /tmp/ccU2lQwC.s:5      .text:0000000000000000 .Ltext0
     /tmp/ccU2lQwC.s:168    .text:00000000000000f0 .Letext0
     /tmp/ccU2lQwC.s:1601   .debug_line:0000000000000000 .Ldebug_line0
     /tmp/ccU2lQwC.s:1693   .debug_str:000000000000030c .LASF0
     /tmp/ccU2lQwC.s:1669   .debug_str:00000000000001bb .LASF1
     /tmp/ccU2lQwC.s:1655   .debug_str:0000000000000145 .LASF2
     /tmp/ccU2lQwC.s:1623   .debug_str:000000000000007f .LASF4
     /tmp/ccU2lQwC.s:1667   .debug_str:00000000000001a9 .LASF3
     /tmp/ccU2lQwC.s:1607   .debug_str:0000000000000025 .LASF5
     /tmp/ccU2lQwC.s:1605   .debug_str:0000000000000012 .LASF6
     /tmp/ccU2lQwC.s:1643   .debug_str:00000000000000ed .LASF7
     /tmp/ccU2lQwC.s:1705   .debug_str:0000000000000352 .LASF8
     /tmp/ccU2lQwC.s:1619   .debug_str:000000000000005d .LASF9
     /tmp/ccU2lQwC.s:1761   .debug_str:0000000000000509 .LASF10
     /tmp/ccU2lQwC.s:1649   .debug_str:0000000000000124 .LASF11
     /tmp/ccU2lQwC.s:1751   .debug_str:00000000000004bd .LASF12
     /tmp/ccU2lQwC.s:1713   .debug_str:00000000000003a5 .LASF13
     /tmp/ccU2lQwC.s:1673   .debug_str:00000000000001d5 .LASF14
     /tmp/ccU2lQwC.s:1633   .debug_str:00000000000000af .LASF15
     /tmp/ccU2lQwC.s:1707   .debug_str:0000000000000362 .LASF16
     /tmp/ccU2lQwC.s:1641   .debug_str:00000000000000e3 .LASF34
     /tmp/ccU2lQwC.s:1709   .debug_str:0000000000000378 .LASF73
     /tmp/ccU2lQwC.s:1689   .debug_str:0000000000000302 .LASF17
     /tmp/ccU2lQwC.s:1741   .debug_str:0000000000000488 .LASF18
     /tmp/ccU2lQwC.s:1635   .debug_str:00000000000000c5 .LASF19
     /tmp/ccU2lQwC.s:1627   .debug_str:000000000000008b .LASF21
     /tmp/ccU2lQwC.s:1699   .debug_str:000000000000032d .LASF26
     /tmp/ccU2lQwC.s:1753   .debug_str:00000000000004cd .LASF74
     /tmp/ccU2lQwC.s:1717   .debug_str:00000000000003c5 .LASF75
     /tmp/ccU2lQwC.s:1609   .debug_str:000000000000002c .LASF20
     /tmp/ccU2lQwC.s:1759   .debug_str:00000000000004ec .LASF22
     /tmp/ccU2lQwC.s:1683   .debug_str:00000000000002e3 .LASF23
     /tmp/ccU2lQwC.s:1747   .debug_str:000000000000049c .LASF24
     /tmp/ccU2lQwC.s:1629   .debug_str:000000000000009e .LASF25
GAS LISTING /tmp/ccU2lQwC.s 			page 7


     /tmp/ccU2lQwC.s:1645   .debug_str:0000000000000100 .LASF27
     /tmp/ccU2lQwC.s:1651   .debug_str:0000000000000133 .LASF28
     /tmp/ccU2lQwC.s:1733   .debug_str:0000000000000447 .LASF29
     /tmp/ccU2lQwC.s:1637   .debug_str:00000000000000ca .LASF30
     /tmp/ccU2lQwC.s:1659   .debug_str:0000000000000158 .LASF31
     /tmp/ccU2lQwC.s:1701   .debug_str:0000000000000344 .LASF32
     /tmp/ccU2lQwC.s:1719   .debug_str:00000000000003dc .LASF33
     /tmp/ccU2lQwC.s:1703   .debug_str:000000000000034d .LASF35
     /tmp/ccU2lQwC.s:1665   .debug_str:000000000000019c .LASF36
     /tmp/ccU2lQwC.s:1723   .debug_str:0000000000000407 .LASF37
     /tmp/ccU2lQwC.s:1677   .debug_str:0000000000000201 .LASF38
     /tmp/ccU2lQwC.s:1691   .debug_str:0000000000000307 .LASF39
     /tmp/ccU2lQwC.s:1731   .debug_str:0000000000000437 .LASF40
     /tmp/ccU2lQwC.s:1617   .debug_str:0000000000000056 .LASF41
     /tmp/ccU2lQwC.s:1725   .debug_str:000000000000040d .LASF42
     /tmp/ccU2lQwC.s:1755   .debug_str:00000000000004d7 .LASF43
     /tmp/ccU2lQwC.s:1679   .debug_str:000000000000020e .LASF44
     /tmp/ccU2lQwC.s:1615   .debug_str:0000000000000050 .LASF45
     /tmp/ccU2lQwC.s:1603   .debug_str:0000000000000000 .LASF46
     /tmp/ccU2lQwC.s:1715   .debug_str:00000000000003b5 .LASF47
     /tmp/ccU2lQwC.s:1675   .debug_str:00000000000001e1 .LASF48
     /tmp/ccU2lQwC.s:1647   .debug_str:000000000000011e .LASF49
     /tmp/ccU2lQwC.s:1721   .debug_str:00000000000003f6 .LASF50
     /tmp/ccU2lQwC.s:1653   .debug_str:000000000000013d .LASF51
     /tmp/ccU2lQwC.s:1661   .debug_str:0000000000000175 .LASF52
     /tmp/ccU2lQwC.s:1671   .debug_str:00000000000001ce .LASF53
     /tmp/ccU2lQwC.s:1621   .debug_str:000000000000006b .LASF54
     /tmp/ccU2lQwC.s:1687   .debug_str:00000000000002fa .LASF55
     /tmp/ccU2lQwC.s:1749   .debug_str:00000000000004b8 .LASF56
     /tmp/ccU2lQwC.s:1745   .debug_str:0000000000000495 .LASF57
     /tmp/ccU2lQwC.s:1757   .debug_str:00000000000004dd .LASF58
     /tmp/ccU2lQwC.s:1657   .debug_str:0000000000000153 .LASF59
     /tmp/ccU2lQwC.s:1611   .debug_str:0000000000000035 .LASF60
     /tmp/ccU2lQwC.s:1631   .debug_str:00000000000000aa .LASF61
     /tmp/ccU2lQwC.s:1729   .debug_str:0000000000000425 .LASF62
     /tmp/ccU2lQwC.s:1613   .debug_str:0000000000000047 .LASF63
     /tmp/ccU2lQwC.s:1735   .debug_str:0000000000000462 .LASF64
     /tmp/ccU2lQwC.s:1639   .debug_str:00000000000000d5 .LASF65
     /tmp/ccU2lQwC.s:1743   .debug_str:000000000000048d .LASF76
     /tmp/ccU2lQwC.s:1737   .debug_str:0000000000000478 .LASF66
     /tmp/ccU2lQwC.s:1727   .debug_str:000000000000041f .LASF67
     /tmp/ccU2lQwC.s:1695   .debug_str:0000000000000319 .LASF68
     /tmp/ccU2lQwC.s:112    .text:0000000000000094 .LFB17
     /tmp/ccU2lQwC.s:166    .text:00000000000000f0 .LFE17
     /tmp/ccU2lQwC.s:1625   .debug_str:0000000000000086 .LASF69
     /tmp/ccU2lQwC.s:1528   .debug_loc:0000000000000000 .LLST2
     /tmp/ccU2lQwC.s:1542   .debug_loc:0000000000000039 .LLST3
     /tmp/ccU2lQwC.s:155    .text:00000000000000e0 .LVL9
     /tmp/ccU2lQwC.s:52     .text:0000000000000038 .LFB16
     /tmp/ccU2lQwC.s:106    .text:0000000000000094 .LFE16
     /tmp/ccU2lQwC.s:1556   .debug_loc:0000000000000072 .LLST1
     /tmp/ccU2lQwC.s:72     .text:000000000000005c .LVL4
     /tmp/ccU2lQwC.s:1697   .debug_str:000000000000031e .LASF77
     /tmp/ccU2lQwC.s:10     .text:0000000000000000 .LFB14
     /tmp/ccU2lQwC.s:44     .text:0000000000000038 .LFE14
     /tmp/ccU2lQwC.s:1574   .debug_loc:00000000000000be .LLST0
     /tmp/ccU2lQwC.s:32     .text:0000000000000028 .LVL1
GAS LISTING /tmp/ccU2lQwC.s 			page 8


     /tmp/ccU2lQwC.s:1663   .debug_str:0000000000000188 .LASF78
     /tmp/ccU2lQwC.s:1739   .debug_str:000000000000047f .LASF79
     /tmp/ccU2lQwC.s:115    .text:0000000000000094 .LVL7
     /tmp/ccU2lQwC.s:153    .text:00000000000000d8 .LVL8
     /tmp/ccU2lQwC.s:55     .text:0000000000000038 .LVL2
     /tmp/ccU2lQwC.s:70     .text:0000000000000054 .LVL3
     /tmp/ccU2lQwC.s:101    .text:000000000000008c .LVL6
     /tmp/ccU2lQwC.s:14     .text:0000000000000000 .LVL0
     /tmp/ccU2lQwC.s:175    .debug_info:0000000000000000 .Ldebug_info0

UNDEFINED SYMBOLS
_Z8sem_openPP4_semj
_ZN4_sem4waitEv
_ZN4_sem6signalEv
