GAS LISTING /tmp/ccGNPDYB.s 			page 1


   1              		.file	"main.cpp"
   2              		.option pic
   3              		.option norelax
   4              		.text
   5              	.Ltext0:
   6              		.section	.rodata.str1.8,"aMS",@progbits,1
   7              		.align	3
   8              	.LC0:
   9 0000 48656C6C 		.string	"Hello "
   9      6F2000
  10 0007 00       		.align	3
  11              	.LC1:
  12 0008 20210A00 		.string	" !\n"
  13              		.text
  14              		.align	2
  15              		.globl	_Z9sleepyRunPv
  17              	_Z9sleepyRunPv:
  18              	.LFB57:
  19              		.file 1 "src/../h/ThreadSleep_C_API_test.hpp"
   1:src/../h/ThreadSleep_C_API_test.hpp **** //
   2:src/../h/ThreadSleep_C_API_test.hpp **** // Created by os on 4/17/22.
   3:src/../h/ThreadSleep_C_API_test.hpp **** //
   4:src/../h/ThreadSleep_C_API_test.hpp **** 
   5:src/../h/ThreadSleep_C_API_test.hpp **** #ifndef XV6_THREADSLEEP_C_API_TEST_HPP
   6:src/../h/ThreadSleep_C_API_test.hpp **** #define XV6_THREADSLEEP_C_API_TEST_HPP
   7:src/../h/ThreadSleep_C_API_test.hpp **** 
   8:src/../h/ThreadSleep_C_API_test.hpp **** #include "../h/syscall_c.h"
   9:src/../h/ThreadSleep_C_API_test.hpp **** #include "../h/print.hpp"
  10:src/../h/ThreadSleep_C_API_test.hpp **** 
  11:src/../h/ThreadSleep_C_API_test.hpp **** bool finished[2];
  12:src/../h/ThreadSleep_C_API_test.hpp **** 
  13:src/../h/ThreadSleep_C_API_test.hpp **** void sleepyRun(void *arg) {
  20              		.loc 1 13 27
  21              		.cfi_startproc
  22              	.LVL0:
  23 0000 130101FE 		addi	sp,sp,-32
  24              		.cfi_def_cfa_offset 32
  25 0004 233C1100 		sd	ra,24(sp)
  26 0008 23388100 		sd	s0,16(sp)
  27 000c 23349100 		sd	s1,8(sp)
  28 0010 23302101 		sd	s2,0(sp)
  29              		.cfi_offset 1, -8
  30              		.cfi_offset 8, -16
  31              		.cfi_offset 9, -24
  32              		.cfi_offset 18, -32
  33 0014 13040102 		addi	s0,sp,32
  34              		.cfi_def_cfa 8, 0
  14:src/../h/ThreadSleep_C_API_test.hpp ****     time_t sleep_time = *((time_t *) arg);
  35              		.loc 1 14 5
  36              		.loc 1 14 12 is_stmt 0
  37 0018 03390500 		ld	s2,0(a0)
  38              	.LVL1:
  15:src/../h/ThreadSleep_C_API_test.hpp ****     int i = 6;
  39              		.loc 1 15 5 is_stmt 1
  40              		.loc 1 15 9 is_stmt 0
  41 001c 93046000 		li	s1,6
  42              	.LVL2:
GAS LISTING /tmp/ccGNPDYB.s 			page 2


  43              	.L3:
  16:src/../h/ThreadSleep_C_API_test.hpp ****     while (--i > 0) {
  44              		.loc 1 16 5 is_stmt 1
  45              		.loc 1 16 16
  46 0020 9B84F4FF 		addiw	s1,s1,-1
  47              	.LVL3:
  48 0024 63509004 		blez	s1,.L2
  17:src/../h/ThreadSleep_C_API_test.hpp **** 
  18:src/../h/ThreadSleep_C_API_test.hpp ****         printString("Hello ");
  49              		.loc 1 18 9
  50              		.loc 1 18 20 is_stmt 0
  51 0028 17050000 		lla	a0,.LC0
  51      13050500 
  52 0030 97000000 		call	_Z11printStringPKc@plt
  52      E7800000 
  53              	.LVL4:
  19:src/../h/ThreadSleep_C_API_test.hpp ****         printInteger(sleep_time);
  54              		.loc 1 19 9 is_stmt 1
  55              		.loc 1 19 21 is_stmt 0
  56 0038 13050900 		mv	a0,s2
  57 003c 97000000 		call	_Z12printIntegerm@plt
  57      E7800000 
  58              	.LVL5:
  20:src/../h/ThreadSleep_C_API_test.hpp ****         printString(" !\n");
  59              		.loc 1 20 9 is_stmt 1
  60              		.loc 1 20 20 is_stmt 0
  61 0044 17050000 		lla	a0,.LC1
  61      13050500 
  62 004c 97000000 		call	_Z11printStringPKc@plt
  62      E7800000 
  63              	.LVL6:
  21:src/../h/ThreadSleep_C_API_test.hpp ****         time_sleep(sleep_time);
  64              		.loc 1 21 9 is_stmt 1
  65              		.loc 1 21 19 is_stmt 0
  66 0054 13050900 		mv	a0,s2
  67 0058 97000000 		call	_Z10time_sleepm@plt
  67      E7800000 
  68              	.LVL7:
  16:src/../h/ThreadSleep_C_API_test.hpp **** 
  69              		.loc 1 16 5
  70 0060 6FF01FFC 		j	.L3
  71              	.L2:
  22:src/../h/ThreadSleep_C_API_test.hpp ****     }
  23:src/../h/ThreadSleep_C_API_test.hpp ****     finished[sleep_time/10-1] = true;
  72              		.loc 1 23 5 is_stmt 1
  73              		.loc 1 23 24 is_stmt 0
  74 0064 9307A000 		li	a5,10
  75 0068 3359F902 		divu	s2,s2,a5
  76              	.LVL8:
  77              		.loc 1 23 27
  78 006c 1309F9FF 		addi	s2,s2,-1
  79              		.loc 1 23 31
  80 0070 97070000 		lla	a5,.LANCHOR0
  80      93870700 
  81 0078 33892701 		add	s2,a5,s2
  82 007c 93071000 		li	a5,1
  83 0080 2300F900 		sb	a5,0(s2)
GAS LISTING /tmp/ccGNPDYB.s 			page 3


  24:src/../h/ThreadSleep_C_API_test.hpp **** }
  84              		.loc 1 24 1
  85 0084 83308101 		ld	ra,24(sp)
  86              		.cfi_restore 1
  87 0088 03340101 		ld	s0,16(sp)
  88              		.cfi_restore 8
  89              		.cfi_def_cfa 2, 32
  90 008c 83348100 		ld	s1,8(sp)
  91              		.cfi_restore 9
  92 0090 03390100 		ld	s2,0(sp)
  93              		.cfi_restore 18
  94 0094 13010102 		addi	sp,sp,32
  95              		.cfi_def_cfa_offset 0
  96 0098 67800000 		jr	ra
  97              		.cfi_endproc
  98              	.LFE57:
 100              		.section	.rodata.str1.8
 101 000c 00000000 		.align	3
 102              	.LC2:
 103 0010 413A2069 		.string	"A: i="
 103      3D00
 104 0016 0000     		.align	3
 105              	.LC3:
 106 0018 0A00     		.string	"\n"
 107 001a 00000000 		.align	3
 107      0000
 108              	.LC4:
 109 0020 41206669 		.string	"A finished!\n"
 109      6E697368 
 109      6564210A 
 109      00
 110              		.text
 111              		.align	2
 112              		.globl	_Z12workerBodyA2Pv
 114              	_Z12workerBodyA2Pv:
 115              	.LFB60:
 116              		.file 2 "src/main.cpp"
   1:src/main.cpp  **** //
   2:src/main.cpp  **** // Created by marko on 20.4.22..
   3:src/main.cpp  **** //
   4:src/main.cpp  **** 
   5:src/main.cpp  **** #include "../h/tcb.hpp"
   6:src/main.cpp  **** #include "../h/riscv.hpp"
   7:src/main.cpp  **** #include "../h/syscall_c.h"
   8:src/main.cpp  **** #include "../h/ThreadSleep_C_API_test.hpp"
   9:src/main.cpp  **** 
  10:src/main.cpp  **** bool finishedA = false;
  11:src/main.cpp  **** bool finishedB = false;
  12:src/main.cpp  **** bool finishedC = false;
  13:src/main.cpp  **** bool finishedD = false;
  14:src/main.cpp  **** bool finishedTastatura = false;
  15:src/main.cpp  **** _sem* sem;
  16:src/main.cpp  **** 
  17:src/main.cpp  **** 
  18:src/main.cpp  **** uint64 fibonacci(uint64 n) {
  19:src/main.cpp  ****     if (n == 0 || n == 1) { return n; }
  20:src/main.cpp  ****     if (n % 10 == 0) { thread_dispatch(); }
GAS LISTING /tmp/ccGNPDYB.s 			page 4


  21:src/main.cpp  ****     return fibonacci(n - 1) + fibonacci(n - 2);
  22:src/main.cpp  **** }
  23:src/main.cpp  **** 
  24:src/main.cpp  **** void workerBodyA2(void* arg) {
 117              		.loc 2 24 30 is_stmt 1
 118              		.cfi_startproc
 119              	.LVL9:
 120 009c 130101FD 		addi	sp,sp,-48
 121              		.cfi_def_cfa_offset 48
 122 00a0 23341102 		sd	ra,40(sp)
 123 00a4 23308102 		sd	s0,32(sp)
 124 00a8 233C9100 		sd	s1,24(sp)
 125 00ac 23382101 		sd	s2,16(sp)
 126              		.cfi_offset 1, -8
 127              		.cfi_offset 8, -16
 128              		.cfi_offset 9, -24
 129              		.cfi_offset 18, -32
 130 00b0 13040103 		addi	s0,sp,48
 131              		.cfi_def_cfa 8, 0
  25:src/main.cpp  ****     for (uint64 i = 0; i < 10; i++) {
 132              		.loc 2 25 5
 133              	.LVL10:
 134              	.LBB30:
 135              		.loc 2 25 17 is_stmt 0
 136 00b4 13090000 		li	s2,0
 137 00b8 6F008003 		j	.L11
 138              	.LVL11:
 139              	.L8:
 140              	.LBB31:
 141              	.LBB32:
 142              	.LBB33:
  26:src/main.cpp  ****         printString("A: i="); printInteger(i); printString("\n");
  27:src/main.cpp  ****         for (uint64 j = 0; j < 10000; j++) {
  28:src/main.cpp  ****             for (uint64 k = 0; k < 3000; k++) { /* busy wait */ }
  29:src/main.cpp  ****             thread_dispatch();
 143              		.loc 2 29 13 is_stmt 1 discriminator 2
 144              		.loc 2 29 28 is_stmt 0 discriminator 2
 145 00bc 97000000 		call	_Z15thread_dispatchv@plt
 145      E7800000 
 146              	.LVL12:
 147              	.LBE33:
  27:src/main.cpp  ****             for (uint64 k = 0; k < 3000; k++) { /* busy wait */ }
 148              		.loc 2 27 9 is_stmt 1 discriminator 2
 149 00c4 93841400 		addi	s1,s1,1
 150              	.LVL13:
 151              	.L10:
  27:src/main.cpp  ****             for (uint64 k = 0; k < 3000; k++) { /* busy wait */ }
 152              		.loc 2 27 30 discriminator 1
 153 00c8 B7270000 		li	a5,8192
 154 00cc 9387F770 		addi	a5,a5,1807
 155 00d0 63EE9700 		bgtu	s1,a5,.L7
 156              	.LBB35:
 157              	.LBB34:
  28:src/main.cpp  ****             thread_dispatch();
 158              		.loc 2 28 25 is_stmt 0
 159 00d4 13070000 		li	a4,0
 160              	.L9:
GAS LISTING /tmp/ccGNPDYB.s 			page 5


 161              	.LVL14:
  28:src/main.cpp  ****             thread_dispatch();
 162              		.loc 2 28 34 is_stmt 1 discriminator 3
 163 00d8 B7170000 		li	a5,4096
 164 00dc 938777BB 		addi	a5,a5,-1097
 165 00e0 E3EEE7FC 		bgtu	a4,a5,.L8
  28:src/main.cpp  ****             thread_dispatch();
 166              		.loc 2 28 13 discriminator 2
 167 00e4 13071700 		addi	a4,a4,1
 168              	.LVL15:
 169 00e8 6FF01FFF 		j	.L9
 170              	.LVL16:
 171              	.L7:
 172              	.LBE34:
 173              	.LBE35:
 174              	.LBE32:
 175              	.LBE31:
  25:src/main.cpp  ****         printString("A: i="); printInteger(i); printString("\n");
 176              		.loc 2 25 5 discriminator 2
 177 00ec 13091900 		addi	s2,s2,1
 178              	.LVL17:
 179              	.L11:
  25:src/main.cpp  ****         printString("A: i="); printInteger(i); printString("\n");
 180              		.loc 2 25 26 discriminator 1
 181 00f0 93079000 		li	a5,9
 182 00f4 63EC2703 		bgtu	s2,a5,.L6
 183              	.LBB37:
  26:src/main.cpp  ****         for (uint64 j = 0; j < 10000; j++) {
 184              		.loc 2 26 9
  26:src/main.cpp  ****         for (uint64 j = 0; j < 10000; j++) {
 185              		.loc 2 26 20 is_stmt 0
 186 00f8 17050000 		lla	a0,.LC2
 186      13050500 
 187 0100 97000000 		call	_Z11printStringPKc@plt
 187      E7800000 
 188              	.LVL18:
  26:src/main.cpp  ****         for (uint64 j = 0; j < 10000; j++) {
 189              		.loc 2 26 31 is_stmt 1
  26:src/main.cpp  ****         for (uint64 j = 0; j < 10000; j++) {
 190              		.loc 2 26 43 is_stmt 0
 191 0108 13050900 		mv	a0,s2
 192 010c 97000000 		call	_Z12printIntegerm@plt
 192      E7800000 
 193              	.LVL19:
  26:src/main.cpp  ****         for (uint64 j = 0; j < 10000; j++) {
 194              		.loc 2 26 48 is_stmt 1
  26:src/main.cpp  ****         for (uint64 j = 0; j < 10000; j++) {
 195              		.loc 2 26 59 is_stmt 0
 196 0114 17050000 		lla	a0,.LC3
 196      13050500 
 197 011c 97000000 		call	_Z11printStringPKc@plt
 197      E7800000 
 198              	.LVL20:
  27:src/main.cpp  ****             for (uint64 k = 0; k < 3000; k++) { /* busy wait */ }
 199              		.loc 2 27 9 is_stmt 1
 200              	.LBB36:
  27:src/main.cpp  ****             for (uint64 k = 0; k < 3000; k++) { /* busy wait */ }
GAS LISTING /tmp/ccGNPDYB.s 			page 6


 201              		.loc 2 27 21 is_stmt 0
 202 0124 93040000 		li	s1,0
 203 0128 6FF01FFA 		j	.L10
 204              	.LVL21:
 205              	.L6:
 206              	.LBE36:
 207              	.LBE37:
 208              	.LBE30:
  30:src/main.cpp  ****         }
  31:src/main.cpp  **** //        thread_exit();
  32:src/main.cpp  ****     }
  33:src/main.cpp  **** //    putc('A');
  34:src/main.cpp  ****     volatile char x = getc();
 209              		.loc 2 34 5 is_stmt 1
 210              		.loc 2 34 27 is_stmt 0
 211 012c 97000000 		call	_Z4getcv@plt
 211      E7800000 
 212              	.LVL22:
 213              		.loc 2 34 28
 214 0134 A30FA4FC 		sb	a0,-33(s0)
  35:src/main.cpp  ****     volatile char y = getc();
 215              		.loc 2 35 5 is_stmt 1
 216              		.loc 2 35 27 is_stmt 0
 217 0138 97000000 		call	_Z4getcv@plt
 217      E7800000 
 218              	.LVL23:
 219              		.loc 2 35 28
 220 0140 230FA4FC 		sb	a0,-34(s0)
  36:src/main.cpp  **** //    printString("x = "); putc(x); printString("\n");
  37:src/main.cpp  **** //    printString("y = "); putc(y); printString("\n");
  38:src/main.cpp  ****     putc(x);
 221              		.loc 2 38 5 is_stmt 1
 222              		.loc 2 38 9 is_stmt 0
 223 0144 0345F4FD 		lbu	a0,-33(s0)
 224 0148 1375F50F 		andi	a0,a0,0xff
 225 014c 97000000 		call	_Z4putcc@plt
 225      E7800000 
 226              	.LVL24:
  39:src/main.cpp  ****     putc(y);
 227              		.loc 2 39 5 is_stmt 1
 228              		.loc 2 39 9 is_stmt 0
 229 0154 0345E4FD 		lbu	a0,-34(s0)
 230 0158 1375F50F 		andi	a0,a0,0xff
 231 015c 97000000 		call	_Z4putcc@plt
 231      E7800000 
 232              	.LVL25:
  40:src/main.cpp  **** //    putc(x);
  41:src/main.cpp  ****         printString("A finished!\n");
 233              		.loc 2 41 9 is_stmt 1
 234              		.loc 2 41 20 is_stmt 0
 235 0164 17050000 		lla	a0,.LC4
 235      13050500 
 236 016c 97000000 		call	_Z11printStringPKc@plt
 236      E7800000 
 237              	.LVL26:
  42:src/main.cpp  ****     finishedA = true;
 238              		.loc 2 42 5 is_stmt 1
GAS LISTING /tmp/ccGNPDYB.s 			page 7


 239              		.loc 2 42 15 is_stmt 0
 240 0174 93071000 		li	a5,1
 241 0178 17070000 		sb	a5,.LANCHOR0+2,a4
 241      2300F700 
  43:src/main.cpp  **** }
 242              		.loc 2 43 1
 243 0180 83308102 		ld	ra,40(sp)
 244              		.cfi_restore 1
 245 0184 03340102 		ld	s0,32(sp)
 246              		.cfi_restore 8
 247              		.cfi_def_cfa 2, 48
 248 0188 83348101 		ld	s1,24(sp)
 249              		.cfi_restore 9
 250 018c 03390101 		ld	s2,16(sp)
 251              		.cfi_restore 18
 252              	.LVL27:
 253 0190 13010103 		addi	sp,sp,48
 254              		.cfi_def_cfa_offset 0
 255 0194 67800000 		jr	ra
 256              		.cfi_endproc
 257              	.LFE60:
 259              		.section	.rodata.str1.8
 260 002d 000000   		.align	3
 261              	.LC5:
 262 0030 54617374 		.string	"Tastatura: i="
 262      61747572 
 262      613A2069 
 262      3D00
 263 003e 0000     		.align	3
 264              	.LC6:
 265 0040 0A546173 		.string	"\nTastatura finished!\n"
 265      74617475 
 265      72612066 
 265      696E6973 
 265      68656421 
 266              		.text
 267              		.align	2
 268              		.globl	_Z15TastaturaWorkerPv
 270              	_Z15TastaturaWorkerPv:
 271              	.LFB64:
  44:src/main.cpp  **** 
  45:src/main.cpp  **** void workerBodyB2(void* arg) {
  46:src/main.cpp  ****     for (uint64 i = 0; i < 16; i++) {
  47:src/main.cpp  ****         if (i == 15){
  48:src/main.cpp  ****             sem_signal(sem);
  49:src/main.cpp  ****         }
  50:src/main.cpp  ****         if (i == 8){
  51:src/main.cpp  ****             time_sleep(50);
  52:src/main.cpp  ****             sem_signal(sem);
  53:src/main.cpp  ****         }
  54:src/main.cpp  **** 
  55:src/main.cpp  ****         printString("B: i="); printInteger(i); printString("\n");
  56:src/main.cpp  ****         for (uint64 j = 0; j < 10000; j++) {
  57:src/main.cpp  ****             for (uint64 k = 0; k < 30000; k++) { /* busy wait */ }
  58:src/main.cpp  ****             thread_dispatch();
  59:src/main.cpp  ****         }
  60:src/main.cpp  ****     }
GAS LISTING /tmp/ccGNPDYB.s 			page 8


  61:src/main.cpp  ****     printString("B finished!\n");
  62:src/main.cpp  ****     finishedB = true;
  63:src/main.cpp  ****     thread_dispatch();
  64:src/main.cpp  **** }
  65:src/main.cpp  **** 
  66:src/main.cpp  **** void workerBodyC2(void* arg) {
  67:src/main.cpp  ****     uint8 i = 0;
  68:src/main.cpp  ****     for (; i < 3; i++) {
  69:src/main.cpp  ****         printString("C: i="); printInteger(i); printString("\n");
  70:src/main.cpp  ****     }
  71:src/main.cpp  ****     sem_wait(sem);
  72:src/main.cpp  ****     printString("C: dispatch\n");
  73:src/main.cpp  ****     __asm__ ("li t1, 7");
  74:src/main.cpp  ****     thread_dispatch();
  75:src/main.cpp  **** 
  76:src/main.cpp  ****     uint64 t1 = 0;
  77:src/main.cpp  ****     __asm__ ("mv %[t1], t1" : [t1] "=r"(t1));
  78:src/main.cpp  **** 
  79:src/main.cpp  ****     printString("C: t1="); printInteger(t1); printString("\n");
  80:src/main.cpp  **** 
  81:src/main.cpp  ****     uint64 result = fibonacci(12);
  82:src/main.cpp  ****     printString("C: fibonaci="); printInteger(result); printString("\n");
  83:src/main.cpp  ****     time_sleep(100);
  84:src/main.cpp  ****     for (; i < 6; i++) {
  85:src/main.cpp  ****         printString("C: i="); printInteger(i); printString("\n");
  86:src/main.cpp  ****     }
  87:src/main.cpp  **** 
  88:src/main.cpp  ****     printString("C finished!\n");
  89:src/main.cpp  ****     finishedC = true;
  90:src/main.cpp  ****     thread_dispatch();
  91:src/main.cpp  **** }
  92:src/main.cpp  **** 
  93:src/main.cpp  **** void workerBodyD2(void* arg) {
  94:src/main.cpp  ****     uint8 i = 10;
  95:src/main.cpp  ****     putc('\n');
  96:src/main.cpp  ****     putc('L');
  97:src/main.cpp  ****     putc('\n');
  98:src/main.cpp  ****     for (; i < 13; i++) {
  99:src/main.cpp  ****         printString("D: i="); printInteger(i); printString("\n");
 100:src/main.cpp  ****         if (i == 10) {
 101:src/main.cpp  ****             sem_wait(sem);
 102:src/main.cpp  ****         }
 103:src/main.cpp  ****     }
 104:src/main.cpp  **** 
 105:src/main.cpp  ****     printString("D: dispatch\n");
 106:src/main.cpp  ****     __asm__ ("li t1, 5");
 107:src/main.cpp  ****     thread_dispatch();
 108:src/main.cpp  **** 
 109:src/main.cpp  ****     uint64 result = fibonacci(16);
 110:src/main.cpp  ****     printString("D: fibonaci="); printInteger(result); printString("\n");
 111:src/main.cpp  **** 
 112:src/main.cpp  ****     for (; i < 16; i++) {
 113:src/main.cpp  ****         printString("D: i="); printInteger(i); printString("\n");
 114:src/main.cpp  ****     }
 115:src/main.cpp  ****     printString("D finished!\n");
 116:src/main.cpp  ****     finishedD = true;
 117:src/main.cpp  ****     thread_dispatch();
GAS LISTING /tmp/ccGNPDYB.s 			page 9


 118:src/main.cpp  **** }
 119:src/main.cpp  **** 
 120:src/main.cpp  **** void TastaturaWorker(void* arg) {
 272              		.loc 2 120 33 is_stmt 1
 273              		.cfi_startproc
 274              	.LVL28:
 275 0198 130101FE 		addi	sp,sp,-32
 276              		.cfi_def_cfa_offset 32
 277 019c 233C1100 		sd	ra,24(sp)
 278 01a0 23388100 		sd	s0,16(sp)
 279 01a4 23349100 		sd	s1,8(sp)
 280 01a8 23302101 		sd	s2,0(sp)
 281              		.cfi_offset 1, -8
 282              		.cfi_offset 8, -16
 283              		.cfi_offset 9, -24
 284              		.cfi_offset 18, -32
 285 01ac 13040102 		addi	s0,sp,32
 286              		.cfi_def_cfa 8, 0
 121:src/main.cpp  ****     for (uint64 i = 0; i < 16; i++) {
 287              		.loc 2 121 5
 288              	.LVL29:
 289              	.LBB38:
 290              		.loc 2 121 17 is_stmt 0
 291 01b0 13090000 		li	s2,0
 292 01b4 6F008004 		j	.L20
 293              	.LVL30:
 294              	.L23:
 295              	.LBB39:
 122:src/main.cpp  ****         if (i == 15){
 123:src/main.cpp  **** //            sem_signal(sem);
 124:src/main.cpp  ****         }
 125:src/main.cpp  ****         if (i == 8){
 126:src/main.cpp  ****             time_sleep(50);
 296              		.loc 2 126 13 is_stmt 1
 297              		.loc 2 126 23 is_stmt 0
 298 01b8 13052003 		li	a0,50
 299 01bc 97000000 		call	_Z10time_sleepm@plt
 299      E7800000 
 300              	.LVL31:
 301 01c4 6F008004 		j	.L15
 302              	.LVL32:
 303              	.L17:
 304              	.LBB40:
 305              	.LBB41:
 127:src/main.cpp  **** //            sem_signal(sem);
 128:src/main.cpp  ****         }
 129:src/main.cpp  **** 
 130:src/main.cpp  ****         printString("Tastatura: i="); printInteger(i); printString("\n");
 131:src/main.cpp  ****         for (uint64 j = 0; j < 10000; j++) {
 132:src/main.cpp  ****             for (uint64 k = 0; k < 30000; k++) { /* busy wait */ }
 133:src/main.cpp  ****             thread_dispatch();
 306              		.loc 2 133 13 is_stmt 1 discriminator 2
 307              		.loc 2 133 28 is_stmt 0 discriminator 2
 308 01c8 97000000 		call	_Z15thread_dispatchv@plt
 308      E7800000 
 309              	.LVL33:
 310              	.LBE41:
GAS LISTING /tmp/ccGNPDYB.s 			page 10


 131:src/main.cpp  ****             for (uint64 k = 0; k < 30000; k++) { /* busy wait */ }
 311              		.loc 2 131 9 is_stmt 1 discriminator 2
 312 01d0 93841400 		addi	s1,s1,1
 313              	.LVL34:
 314              	.L19:
 131:src/main.cpp  ****             for (uint64 k = 0; k < 30000; k++) { /* busy wait */ }
 315              		.loc 2 131 30 discriminator 1
 316 01d4 B7270000 		li	a5,8192
 317 01d8 9387F770 		addi	a5,a5,1807
 318 01dc 63EE9700 		bgtu	s1,a5,.L16
 319              	.LBB43:
 320              	.LBB42:
 132:src/main.cpp  ****             thread_dispatch();
 321              		.loc 2 132 25 is_stmt 0
 322 01e0 13070000 		li	a4,0
 323              	.L18:
 324              	.LVL35:
 132:src/main.cpp  ****             thread_dispatch();
 325              		.loc 2 132 34 is_stmt 1 discriminator 3
 326 01e4 B7770000 		li	a5,28672
 327 01e8 9387F752 		addi	a5,a5,1327
 328 01ec E3EEE7FC 		bgtu	a4,a5,.L17
 132:src/main.cpp  ****             thread_dispatch();
 329              		.loc 2 132 13 discriminator 2
 330 01f0 13071700 		addi	a4,a4,1
 331              	.LVL36:
 332 01f4 6FF01FFF 		j	.L18
 333              	.LVL37:
 334              	.L16:
 335              	.LBE42:
 336              	.LBE43:
 337              	.LBE40:
 338              	.LBE39:
 121:src/main.cpp  ****         if (i == 15){
 339              		.loc 2 121 5 discriminator 2
 340 01f8 13091900 		addi	s2,s2,1
 341              	.LVL38:
 342              	.L20:
 121:src/main.cpp  ****         if (i == 15){
 343              		.loc 2 121 26 discriminator 1
 344 01fc 9307F000 		li	a5,15
 345 0200 63E02705 		bgtu	s2,a5,.L14
 346              	.LBB45:
 122:src/main.cpp  **** //            sem_signal(sem);
 347              		.loc 2 122 9
 125:src/main.cpp  ****             time_sleep(50);
 348              		.loc 2 125 9
 349 0204 93078000 		li	a5,8
 350 0208 E308F9FA 		beq	s2,a5,.L23
 351              	.L15:
 130:src/main.cpp  ****         for (uint64 j = 0; j < 10000; j++) {
 352              		.loc 2 130 9
 130:src/main.cpp  ****         for (uint64 j = 0; j < 10000; j++) {
 353              		.loc 2 130 20 is_stmt 0
 354 020c 17050000 		lla	a0,.LC5
 354      13050500 
 355 0214 97000000 		call	_Z11printStringPKc@plt
GAS LISTING /tmp/ccGNPDYB.s 			page 11


 355      E7800000 
 356              	.LVL39:
 130:src/main.cpp  ****         for (uint64 j = 0; j < 10000; j++) {
 357              		.loc 2 130 39 is_stmt 1
 130:src/main.cpp  ****         for (uint64 j = 0; j < 10000; j++) {
 358              		.loc 2 130 51 is_stmt 0
 359 021c 13050900 		mv	a0,s2
 360 0220 97000000 		call	_Z12printIntegerm@plt
 360      E7800000 
 361              	.LVL40:
 130:src/main.cpp  ****         for (uint64 j = 0; j < 10000; j++) {
 362              		.loc 2 130 56 is_stmt 1
 130:src/main.cpp  ****         for (uint64 j = 0; j < 10000; j++) {
 363              		.loc 2 130 67 is_stmt 0
 364 0228 17050000 		lla	a0,.LC3
 364      13050500 
 365 0230 97000000 		call	_Z11printStringPKc@plt
 365      E7800000 
 366              	.LVL41:
 131:src/main.cpp  ****             for (uint64 k = 0; k < 30000; k++) { /* busy wait */ }
 367              		.loc 2 131 9 is_stmt 1
 368              	.LBB44:
 131:src/main.cpp  ****             for (uint64 k = 0; k < 30000; k++) { /* busy wait */ }
 369              		.loc 2 131 21 is_stmt 0
 370 0238 93040000 		li	s1,0
 371 023c 6FF09FF9 		j	.L19
 372              	.LVL42:
 373              	.L14:
 374              	.LBE44:
 375              	.LBE45:
 376              	.LBE38:
 134:src/main.cpp  ****         }
 135:src/main.cpp  ****     }
 136:src/main.cpp  ****     while (Riscv::getCBuffer.getCount() > 0){
 377              		.loc 2 136 5 is_stmt 1
 378              		.loc 2 136 41
 379              	.LBB46:
 380              	.LBB47:
 381              		.file 3 "src/../h/buffer.h"
   1:src/../h/buffer.h **** //
   2:src/../h/buffer.h **** // Created by os on 9/10/22.
   3:src/../h/buffer.h **** //
   4:src/../h/buffer.h **** 
   5:src/../h/buffer.h **** #ifndef PROJECT_BASE_V1_1_BUFFER_H
   6:src/../h/buffer.h **** #define PROJECT_BASE_V1_1_BUFFER_H
   7:src/../h/buffer.h **** #include "../h/_sem.h"
   8:src/../h/buffer.h **** 
   9:src/../h/buffer.h **** class Buffer {
  10:src/../h/buffer.h **** public:
  11:src/../h/buffer.h ****     Buffer() : head(0),tail(0),count(0) {}
  12:src/../h/buffer.h ****     char getc ();
  13:src/../h/buffer.h ****     void putc (char c);
  14:src/../h/buffer.h **** 
  15:src/../h/buffer.h ****     _sem *itemAvailable;
  16:src/../h/buffer.h ****     uint64 getCount() { return count; }
 382              		.loc 3 16 25
 383              		.loc 3 16 32 is_stmt 0
GAS LISTING /tmp/ccGNPDYB.s 			page 12


 384 0240 97070000 		la	a5,_ZN5Riscv10getCBufferE
 384      83B70700 
 385 0248 83B78711 		ld	a5,280(a5)
 386              	.LVL43:
 387              	.LBE47:
 388              	.LBE46:
 389              		.loc 2 136 41
 390 024c 638C0700 		beqz	a5,.L21
 391              	.LBB48:
 137:src/main.cpp  ****         char x = getc();
 392              		.loc 2 137 9 is_stmt 1
 393              		.loc 2 137 22 is_stmt 0
 394 0250 97000000 		call	_Z4getcv@plt
 394      E7800000 
 395              	.LVL44:
 138:src/main.cpp  ****         putc(x);
 396              		.loc 2 138 9 is_stmt 1
 397              		.loc 2 138 13 is_stmt 0
 398 0258 97000000 		call	_Z4putcc@plt
 398      E7800000 
 399              	.LVL45:
 400              	.LBE48:
 136:src/main.cpp  ****         char x = getc();
 401              		.loc 2 136 5
 402 0260 6FF01FFE 		j	.L14
 403              	.L21:
 139:src/main.cpp  ****     }
 140:src/main.cpp  ****     printString("\nTastatura finished!\n");
 404              		.loc 2 140 5 is_stmt 1
 405              		.loc 2 140 16 is_stmt 0
 406 0264 17050000 		lla	a0,.LC6
 406      13050500 
 407 026c 97000000 		call	_Z11printStringPKc@plt
 407      E7800000 
 408              	.LVL46:
 141:src/main.cpp  ****     finishedTastatura = true;
 409              		.loc 2 141 5 is_stmt 1
 410              		.loc 2 141 23 is_stmt 0
 411 0274 93071000 		li	a5,1
 412 0278 17070000 		sb	a5,.LANCHOR0+3,a4
 412      2300F700 
 142:src/main.cpp  ****     thread_dispatch();
 413              		.loc 2 142 5 is_stmt 1
 414              		.loc 2 142 20 is_stmt 0
 415 0280 97000000 		call	_Z15thread_dispatchv@plt
 415      E7800000 
 416              	.LVL47:
 143:src/main.cpp  **** }
 417              		.loc 2 143 1
 418 0288 83308101 		ld	ra,24(sp)
 419              		.cfi_restore 1
 420 028c 03340101 		ld	s0,16(sp)
 421              		.cfi_restore 8
 422              		.cfi_def_cfa 2, 32
 423 0290 83348100 		ld	s1,8(sp)
 424              		.cfi_restore 9
 425 0294 03390100 		ld	s2,0(sp)
GAS LISTING /tmp/ccGNPDYB.s 			page 13


 426              		.cfi_restore 18
 427              	.LVL48:
 428 0298 13010102 		addi	sp,sp,32
 429              		.cfi_def_cfa_offset 0
 430 029c 67800000 		jr	ra
 431              		.cfi_endproc
 432              	.LFE64:
 434              		.section	.rodata.str1.8
 435 0056 0000     		.align	3
 436              	.LC7:
 437 0058 423A2069 		.string	"B: i="
 437      3D00
 438 005e 0000     		.align	3
 439              	.LC8:
 440 0060 42206669 		.string	"B finished!\n"
 440      6E697368 
 440      6564210A 
 440      00
 441              		.text
 442              		.align	2
 443              		.globl	_Z12workerBodyB2Pv
 445              	_Z12workerBodyB2Pv:
 446              	.LFB61:
  45:src/main.cpp  ****     for (uint64 i = 0; i < 16; i++) {
 447              		.loc 2 45 30 is_stmt 1
 448              		.cfi_startproc
 449              	.LVL49:
 450 02a0 130101FE 		addi	sp,sp,-32
 451              		.cfi_def_cfa_offset 32
 452 02a4 233C1100 		sd	ra,24(sp)
 453 02a8 23388100 		sd	s0,16(sp)
 454 02ac 23349100 		sd	s1,8(sp)
 455 02b0 23302101 		sd	s2,0(sp)
 456              		.cfi_offset 1, -8
 457              		.cfi_offset 8, -16
 458              		.cfi_offset 9, -24
 459              		.cfi_offset 18, -32
 460 02b4 13040102 		addi	s0,sp,32
 461              		.cfi_def_cfa 8, 0
  46:src/main.cpp  ****         if (i == 15){
 462              		.loc 2 46 5
 463              	.LVL50:
 464              	.LBB49:
  46:src/main.cpp  ****         if (i == 15){
 465              		.loc 2 46 17 is_stmt 0
 466 02b8 13090000 		li	s2,0
 467 02bc 6F00C006 		j	.L32
 468              	.LVL51:
 469              	.L34:
 470              	.LBB50:
  48:src/main.cpp  ****         }
 471              		.loc 2 48 13 is_stmt 1
  48:src/main.cpp  ****         }
 472              		.loc 2 48 23 is_stmt 0
 473 02c0 17050000 		ld	a0,.LANCHOR0+8
 473      03350500 
 474 02c8 97000000 		call	_Z10sem_signalP4_sem@plt
GAS LISTING /tmp/ccGNPDYB.s 			page 14


 474      E7800000 
 475              	.LVL52:
 476 02d0 6F004006 		j	.L26
 477              	.L35:
  51:src/main.cpp  ****             sem_signal(sem);
 478              		.loc 2 51 13 is_stmt 1
  51:src/main.cpp  ****             sem_signal(sem);
 479              		.loc 2 51 23 is_stmt 0
 480 02d4 13052003 		li	a0,50
 481 02d8 97000000 		call	_Z10time_sleepm@plt
 481      E7800000 
 482              	.LVL53:
  52:src/main.cpp  ****         }
 483              		.loc 2 52 13 is_stmt 1
  52:src/main.cpp  ****         }
 484              		.loc 2 52 23 is_stmt 0
 485 02e0 17050000 		ld	a0,.LANCHOR0+8
 485      03350500 
 486 02e8 97000000 		call	_Z10sem_signalP4_sem@plt
 486      E7800000 
 487              	.LVL54:
 488 02f0 6F00C004 		j	.L27
 489              	.LVL55:
 490              	.L29:
 491              	.LBB51:
 492              	.LBB52:
  58:src/main.cpp  ****         }
 493              		.loc 2 58 13 is_stmt 1 discriminator 2
  58:src/main.cpp  ****         }
 494              		.loc 2 58 28 is_stmt 0 discriminator 2
 495 02f4 97000000 		call	_Z15thread_dispatchv@plt
 495      E7800000 
 496              	.LVL56:
 497              	.LBE52:
  56:src/main.cpp  ****             for (uint64 k = 0; k < 30000; k++) { /* busy wait */ }
 498              		.loc 2 56 9 is_stmt 1 discriminator 2
 499 02fc 93841400 		addi	s1,s1,1
 500              	.LVL57:
 501              	.L31:
  56:src/main.cpp  ****             for (uint64 k = 0; k < 30000; k++) { /* busy wait */ }
 502              		.loc 2 56 30 discriminator 1
 503 0300 B7270000 		li	a5,8192
 504 0304 9387F770 		addi	a5,a5,1807
 505 0308 63EE9700 		bgtu	s1,a5,.L28
 506              	.LBB54:
 507              	.LBB53:
  57:src/main.cpp  ****             thread_dispatch();
 508              		.loc 2 57 25 is_stmt 0
 509 030c 13070000 		li	a4,0
 510              	.L30:
 511              	.LVL58:
  57:src/main.cpp  ****             thread_dispatch();
 512              		.loc 2 57 34 is_stmt 1 discriminator 3
 513 0310 B7770000 		li	a5,28672
 514 0314 9387F752 		addi	a5,a5,1327
 515 0318 E3EEE7FC 		bgtu	a4,a5,.L29
  57:src/main.cpp  ****             thread_dispatch();
GAS LISTING /tmp/ccGNPDYB.s 			page 15


 516              		.loc 2 57 13 discriminator 2
 517 031c 13071700 		addi	a4,a4,1
 518              	.LVL59:
 519 0320 6FF01FFF 		j	.L30
 520              	.LVL60:
 521              	.L28:
 522              	.LBE53:
 523              	.LBE54:
 524              	.LBE51:
 525              	.LBE50:
  46:src/main.cpp  ****         if (i == 15){
 526              		.loc 2 46 5 discriminator 2
 527 0324 13091900 		addi	s2,s2,1
 528              	.LVL61:
 529              	.L32:
  46:src/main.cpp  ****         if (i == 15){
 530              		.loc 2 46 26 discriminator 1
 531 0328 9307F000 		li	a5,15
 532 032c 63E22705 		bgtu	s2,a5,.L25
 533              	.LBB56:
  47:src/main.cpp  ****             sem_signal(sem);
 534              		.loc 2 47 9
 535 0330 E308F9F8 		beq	s2,a5,.L34
 536              	.L26:
  50:src/main.cpp  ****             time_sleep(50);
 537              		.loc 2 50 9
 538 0334 93078000 		li	a5,8
 539 0338 E30EF9F8 		beq	s2,a5,.L35
 540              	.L27:
  55:src/main.cpp  ****         for (uint64 j = 0; j < 10000; j++) {
 541              		.loc 2 55 9
  55:src/main.cpp  ****         for (uint64 j = 0; j < 10000; j++) {
 542              		.loc 2 55 20 is_stmt 0
 543 033c 17050000 		lla	a0,.LC7
 543      13050500 
 544 0344 97000000 		call	_Z11printStringPKc@plt
 544      E7800000 
 545              	.LVL62:
  55:src/main.cpp  ****         for (uint64 j = 0; j < 10000; j++) {
 546              		.loc 2 55 31 is_stmt 1
  55:src/main.cpp  ****         for (uint64 j = 0; j < 10000; j++) {
 547              		.loc 2 55 43 is_stmt 0
 548 034c 13050900 		mv	a0,s2
 549 0350 97000000 		call	_Z12printIntegerm@plt
 549      E7800000 
 550              	.LVL63:
  55:src/main.cpp  ****         for (uint64 j = 0; j < 10000; j++) {
 551              		.loc 2 55 48 is_stmt 1
  55:src/main.cpp  ****         for (uint64 j = 0; j < 10000; j++) {
 552              		.loc 2 55 59 is_stmt 0
 553 0358 17050000 		lla	a0,.LC3
 553      13050500 
 554 0360 97000000 		call	_Z11printStringPKc@plt
 554      E7800000 
 555              	.LVL64:
  56:src/main.cpp  ****             for (uint64 k = 0; k < 30000; k++) { /* busy wait */ }
 556              		.loc 2 56 9 is_stmt 1
GAS LISTING /tmp/ccGNPDYB.s 			page 16


 557              	.LBB55:
  56:src/main.cpp  ****             for (uint64 k = 0; k < 30000; k++) { /* busy wait */ }
 558              		.loc 2 56 21 is_stmt 0
 559 0368 93040000 		li	s1,0
 560 036c 6FF05FF9 		j	.L31
 561              	.LVL65:
 562              	.L25:
 563              	.LBE55:
 564              	.LBE56:
 565              	.LBE49:
  61:src/main.cpp  ****     finishedB = true;
 566              		.loc 2 61 5 is_stmt 1
  61:src/main.cpp  ****     finishedB = true;
 567              		.loc 2 61 16 is_stmt 0
 568 0370 17050000 		lla	a0,.LC8
 568      13050500 
 569 0378 97000000 		call	_Z11printStringPKc@plt
 569      E7800000 
 570              	.LVL66:
  62:src/main.cpp  ****     thread_dispatch();
 571              		.loc 2 62 5 is_stmt 1
  62:src/main.cpp  ****     thread_dispatch();
 572              		.loc 2 62 15 is_stmt 0
 573 0380 93071000 		li	a5,1
 574 0384 17070000 		sb	a5,.LANCHOR0+16,a4
 574      2300F700 
  63:src/main.cpp  **** }
 575              		.loc 2 63 5 is_stmt 1
  63:src/main.cpp  **** }
 576              		.loc 2 63 20 is_stmt 0
 577 038c 97000000 		call	_Z15thread_dispatchv@plt
 577      E7800000 
 578              	.LVL67:
  64:src/main.cpp  **** 
 579              		.loc 2 64 1
 580 0394 83308101 		ld	ra,24(sp)
 581              		.cfi_restore 1
 582 0398 03340101 		ld	s0,16(sp)
 583              		.cfi_restore 8
 584              		.cfi_def_cfa 2, 32
 585 039c 83348100 		ld	s1,8(sp)
 586              		.cfi_restore 9
 587 03a0 03390100 		ld	s2,0(sp)
 588              		.cfi_restore 18
 589              	.LVL68:
 590 03a4 13010102 		addi	sp,sp,32
 591              		.cfi_def_cfa_offset 0
 592 03a8 67800000 		jr	ra
 593              		.cfi_endproc
 594              	.LFE61:
 596              		.align	2
 597              		.globl	_Z12testSleepingv
 599              	_Z12testSleepingv:
 600              	.LFB58:
  25:src/../h/ThreadSleep_C_API_test.hpp **** 
  26:src/../h/ThreadSleep_C_API_test.hpp **** void testSleeping() {
 601              		.loc 1 26 21 is_stmt 1
GAS LISTING /tmp/ccGNPDYB.s 			page 17


 602              		.cfi_startproc
 603 03ac 130101FC 		addi	sp,sp,-64
 604              		.cfi_def_cfa_offset 64
 605 03b0 233C1102 		sd	ra,56(sp)
 606 03b4 23388102 		sd	s0,48(sp)
 607 03b8 23349102 		sd	s1,40(sp)
 608              		.cfi_offset 1, -8
 609              		.cfi_offset 8, -16
 610              		.cfi_offset 9, -24
 611 03bc 13040104 		addi	s0,sp,64
 612              		.cfi_def_cfa 8, 0
  27:src/../h/ThreadSleep_C_API_test.hpp ****     const int sleepy_thread_count = 2;
 613              		.loc 1 27 5
 614              	.LVL69:
  28:src/../h/ThreadSleep_C_API_test.hpp ****     time_t sleep_times[sleepy_thread_count] = {10, 20};
 615              		.loc 1 28 5
 616              		.loc 1 28 12 is_stmt 0
 617 03c0 9307A000 		li	a5,10
 618 03c4 2338F4FC 		sd	a5,-48(s0)
 619 03c8 93074001 		li	a5,20
 620 03cc 233CF4FC 		sd	a5,-40(s0)
  29:src/../h/ThreadSleep_C_API_test.hpp ****     thread_t sleepyThread[sleepy_thread_count];
 621              		.loc 1 29 5 is_stmt 1
  30:src/../h/ThreadSleep_C_API_test.hpp **** 
  31:src/../h/ThreadSleep_C_API_test.hpp ****     for (int i = 0; i < sleepy_thread_count; i++) {
 622              		.loc 1 31 5
 623              	.LVL70:
 624              	.LBB57:
 625              		.loc 1 31 14 is_stmt 0
 626 03d0 93040000 		li	s1,0
 627 03d4 6F00C002 		j	.L38
 628              	.LVL71:
 629              	.L41:
  32:src/../h/ThreadSleep_C_API_test.hpp ****         if (sleep_times == nullptr) {
 630              		.loc 1 32 9 is_stmt 1
  33:src/../h/ThreadSleep_C_API_test.hpp ****         }
  34:src/../h/ThreadSleep_C_API_test.hpp ****         thread_create(&sleepyThread[i], sleepyRun, sleep_times + i);
 631              		.loc 1 34 9
 632              		.loc 1 34 64 is_stmt 0
 633 03d8 93973400 		slli	a5,s1,3
 634              		.loc 1 34 22
 635 03dc 130604FD 		addi	a2,s0,-48
 636 03e0 3306F600 		add	a2,a2,a5
 637 03e4 97050000 		lla	a1,_Z9sleepyRunPv
 637      93850500 
 638 03ec 130504FC 		addi	a0,s0,-64
 639 03f0 3305F500 		add	a0,a0,a5
 640 03f4 97000000 		call	_Z13thread_createPP3TCBPFvPvES2_@plt
 640      E7800000 
 641              	.LVL72:
  31:src/../h/ThreadSleep_C_API_test.hpp ****         if (sleep_times == nullptr) {
 642              		.loc 1 31 5 is_stmt 1
 643 03fc 9B841400 		addiw	s1,s1,1
 644              	.LVL73:
 645              	.L38:
  31:src/../h/ThreadSleep_C_API_test.hpp ****         if (sleep_times == nullptr) {
 646              		.loc 1 31 23 discriminator 1
GAS LISTING /tmp/ccGNPDYB.s 			page 18


 647 0400 93071000 		li	a5,1
 648 0404 E3DA97FC 		ble	s1,a5,.L41
 649              	.L39:
 650              	.LBE57:
  35:src/../h/ThreadSleep_C_API_test.hpp ****     }
  36:src/../h/ThreadSleep_C_API_test.hpp **** 
  37:src/../h/ThreadSleep_C_API_test.hpp ****     while (!(finished[0] && finished[1])) {}
 651              		.loc 1 37 5
 652              		.loc 1 37 12
 653              		.loc 1 37 24 is_stmt 0
 654 0408 97070000 		lbu	a5,.LANCHOR0
 654      83C70700 
 655              		.loc 1 37 12
 656 0410 E38C07FE 		beqz	a5,.L39
 657              		.loc 1 37 39 discriminator 1
 658 0414 97070000 		lbu	a5,.LANCHOR0+1
 658      83C70700 
 659              		.loc 1 37 12 discriminator 1
 660 041c E38607FE 		beqz	a5,.L39
  38:src/../h/ThreadSleep_C_API_test.hpp **** }
 661              		.loc 1 38 1
 662 0420 83308103 		ld	ra,56(sp)
 663              		.cfi_restore 1
 664 0424 03340103 		ld	s0,48(sp)
 665              		.cfi_restore 8
 666              		.cfi_def_cfa 2, 64
 667 0428 83348102 		ld	s1,40(sp)
 668              		.cfi_restore 9
 669              	.LVL74:
 670 042c 13010104 		addi	sp,sp,64
 671              		.cfi_def_cfa_offset 0
 672 0430 67800000 		jr	ra
 673              		.cfi_endproc
 674              	.LFE58:
 676              		.align	2
 677              		.globl	_Z9fibonaccim
 679              	_Z9fibonaccim:
 680              	.LFB59:
  18:src/main.cpp  ****     if (n == 0 || n == 1) { return n; }
 681              		.loc 2 18 28 is_stmt 1
 682              		.cfi_startproc
 683              	.LVL75:
 684 0434 130101FE 		addi	sp,sp,-32
 685              		.cfi_def_cfa_offset 32
 686 0438 233C1100 		sd	ra,24(sp)
 687 043c 23388100 		sd	s0,16(sp)
 688 0440 23349100 		sd	s1,8(sp)
 689 0444 23302101 		sd	s2,0(sp)
 690              		.cfi_offset 1, -8
 691              		.cfi_offset 8, -16
 692              		.cfi_offset 9, -24
 693              		.cfi_offset 18, -32
 694 0448 13040102 		addi	s0,sp,32
 695              		.cfi_def_cfa 8, 0
 696 044c 93040500 		mv	s1,a0
  19:src/main.cpp  ****     if (n % 10 == 0) { thread_dispatch(); }
 697              		.loc 2 19 5
GAS LISTING /tmp/ccGNPDYB.s 			page 19


 698 0450 93071000 		li	a5,1
 699 0454 63F8A702 		bleu	a0,a5,.L42
  20:src/main.cpp  ****     return fibonacci(n - 1) + fibonacci(n - 2);
 700              		.loc 2 20 5
  20:src/main.cpp  ****     return fibonacci(n - 1) + fibonacci(n - 2);
 701              		.loc 2 20 11 is_stmt 0
 702 0458 9307A000 		li	a5,10
 703 045c B377F502 		remu	a5,a0,a5
  20:src/main.cpp  ****     return fibonacci(n - 1) + fibonacci(n - 2);
 704              		.loc 2 20 5
 705 0460 638E0702 		beqz	a5,.L47
 706              	.LVL76:
 707              	.L44:
  21:src/main.cpp  **** }
 708              		.loc 2 21 5 is_stmt 1
  21:src/main.cpp  **** }
 709              		.loc 2 21 21 is_stmt 0
 710 0464 1385F4FF 		addi	a0,s1,-1
 711 0468 97000000 		call	_Z9fibonaccim
 711      E7800000 
 712              	.LVL77:
 713 0470 13090500 		mv	s2,a0
  21:src/main.cpp  **** }
 714              		.loc 2 21 40
 715 0474 1385E4FF 		addi	a0,s1,-2
 716 0478 97000000 		call	_Z9fibonaccim
 716      E7800000 
 717              	.LVL78:
  21:src/main.cpp  **** }
 718              		.loc 2 21 46
 719 0480 3305A900 		add	a0,s2,a0
 720              	.L42:
  22:src/main.cpp  **** 
 721              		.loc 2 22 1
 722 0484 83308101 		ld	ra,24(sp)
 723              		.cfi_remember_state
 724              		.cfi_restore 1
 725 0488 03340101 		ld	s0,16(sp)
 726              		.cfi_restore 8
 727              		.cfi_def_cfa 2, 32
 728 048c 83348100 		ld	s1,8(sp)
 729              		.cfi_restore 9
 730              	.LVL79:
 731 0490 03390100 		ld	s2,0(sp)
 732              		.cfi_restore 18
 733 0494 13010102 		addi	sp,sp,32
 734              		.cfi_def_cfa_offset 0
 735 0498 67800000 		jr	ra
 736              	.LVL80:
 737              	.L47:
 738              		.cfi_restore_state
  20:src/main.cpp  ****     return fibonacci(n - 1) + fibonacci(n - 2);
 739              		.loc 2 20 24 is_stmt 1 discriminator 1
  20:src/main.cpp  ****     return fibonacci(n - 1) + fibonacci(n - 2);
 740              		.loc 2 20 39 is_stmt 0 discriminator 1
 741 049c 97000000 		call	_Z15thread_dispatchv@plt
 741      E7800000 
GAS LISTING /tmp/ccGNPDYB.s 			page 20


 742              	.LVL81:
 743 04a4 6FF01FFC 		j	.L44
 744              		.cfi_endproc
 745              	.LFE59:
 747              		.section	.rodata.str1.8
 748 006d 000000   		.align	3
 749              	.LC9:
 750 0070 433A2069 		.string	"C: i="
 750      3D00
 751 0076 0000     		.align	3
 752              	.LC10:
 753 0078 433A2064 		.string	"C: dispatch\n"
 753      69737061 
 753      7463680A 
 753      00
 754 0085 000000   		.align	3
 755              	.LC11:
 756 0088 433A2074 		.string	"C: t1="
 756      313D00
 757 008f 00       		.align	3
 758              	.LC12:
 759 0090 433A2066 		.string	"C: fibonaci="
 759      69626F6E 
 759      6163693D 
 759      00
 760 009d 000000   		.align	3
 761              	.LC13:
 762 00a0 43206669 		.string	"C finished!\n"
 762      6E697368 
 762      6564210A 
 762      00
 763              		.text
 764              		.align	2
 765              		.globl	_Z12workerBodyC2Pv
 767              	_Z12workerBodyC2Pv:
 768              	.LFB62:
  66:src/main.cpp  ****     uint8 i = 0;
 769              		.loc 2 66 30 is_stmt 1
 770              		.cfi_startproc
 771              	.LVL82:
 772 04a8 130101FE 		addi	sp,sp,-32
 773              		.cfi_def_cfa_offset 32
 774 04ac 233C1100 		sd	ra,24(sp)
 775 04b0 23388100 		sd	s0,16(sp)
 776 04b4 23349100 		sd	s1,8(sp)
 777 04b8 23302101 		sd	s2,0(sp)
 778              		.cfi_offset 1, -8
 779              		.cfi_offset 8, -16
 780              		.cfi_offset 9, -24
 781              		.cfi_offset 18, -32
 782 04bc 13040102 		addi	s0,sp,32
 783              		.cfi_def_cfa 8, 0
  67:src/main.cpp  ****     for (; i < 3; i++) {
 784              		.loc 2 67 5
 785              	.LVL83:
  67:src/main.cpp  ****     for (; i < 3; i++) {
 786              		.loc 2 67 11 is_stmt 0
GAS LISTING /tmp/ccGNPDYB.s 			page 21


 787 04c0 93040000 		li	s1,0
 788 04c4 6F008003 		j	.L50
 789              	.LVL84:
 790              	.L54:
  69:src/main.cpp  ****     }
 791              		.loc 2 69 9 is_stmt 1 discriminator 1
  69:src/main.cpp  ****     }
 792              		.loc 2 69 20 is_stmt 0 discriminator 1
 793 04c8 17050000 		lla	a0,.LC9
 793      13050500 
 794 04d0 97000000 		call	_Z11printStringPKc@plt
 794      E7800000 
 795              	.LVL85:
  69:src/main.cpp  ****     }
 796              		.loc 2 69 31 is_stmt 1 discriminator 1
  69:src/main.cpp  ****     }
 797              		.loc 2 69 43 is_stmt 0 discriminator 1
 798 04d8 13850400 		mv	a0,s1
 799 04dc 97000000 		call	_Z12printIntegerm@plt
 799      E7800000 
 800              	.LVL86:
  69:src/main.cpp  ****     }
 801              		.loc 2 69 48 is_stmt 1 discriminator 1
  69:src/main.cpp  ****     }
 802              		.loc 2 69 59 is_stmt 0 discriminator 1
 803 04e4 17050000 		lla	a0,.LC3
 803      13050500 
 804 04ec 97000000 		call	_Z11printStringPKc@plt
 804      E7800000 
 805              	.LVL87:
  68:src/main.cpp  ****         printString("C: i="); printInteger(i); printString("\n");
 806              		.loc 2 68 5 is_stmt 1 discriminator 1
 807 04f4 9B841400 		addiw	s1,s1,1
 808              	.LVL88:
 809 04f8 93F4F40F 		andi	s1,s1,0xff
 810              	.LVL89:
 811              	.L50:
  68:src/main.cpp  ****         printString("C: i="); printInteger(i); printString("\n");
 812              		.loc 2 68 5 discriminator 2
  68:src/main.cpp  ****         printString("C: i="); printInteger(i); printString("\n");
 813              		.loc 2 68 14 discriminator 2
 814 04fc 93072000 		li	a5,2
 815 0500 E3F497FC 		bleu	s1,a5,.L54
  71:src/main.cpp  ****     printString("C: dispatch\n");
 816              		.loc 2 71 5
  71:src/main.cpp  ****     printString("C: dispatch\n");
 817              		.loc 2 71 13 is_stmt 0
 818 0504 17050000 		ld	a0,.LANCHOR0+8
 818      03350500 
 819 050c 97000000 		call	_Z8sem_waitP4_sem@plt
 819      E7800000 
 820              	.LVL90:
  72:src/main.cpp  ****     __asm__ ("li t1, 7");
 821              		.loc 2 72 5 is_stmt 1
  72:src/main.cpp  ****     __asm__ ("li t1, 7");
 822              		.loc 2 72 16 is_stmt 0
 823 0514 17050000 		lla	a0,.LC10
GAS LISTING /tmp/ccGNPDYB.s 			page 22


 823      13050500 
 824 051c 97000000 		call	_Z11printStringPKc@plt
 824      E7800000 
 825              	.LVL91:
  73:src/main.cpp  ****     thread_dispatch();
 826              		.loc 2 73 5 is_stmt 1
  73:src/main.cpp  ****     thread_dispatch();
 827              		.loc 2 73 25 is_stmt 0
 828              	#APP
 829              	# 73 "src/main.cpp" 1
  74:src/main.cpp  **** 
 830              		li t1, 7
 831              	# 0 "" 2
 832              		.loc 2 74 5 is_stmt 1
  74:src/main.cpp  **** 
 833              		.loc 2 74 20 is_stmt 0
 834              	#NO_APP
 835 0528 97000000 		call	_Z15thread_dispatchv@plt
 835      E7800000 
 836              	.LVL92:
  76:src/main.cpp  ****     __asm__ ("mv %[t1], t1" : [t1] "=r"(t1));
 837              		.loc 2 76 5 is_stmt 1
  77:src/main.cpp  **** 
 838              		.loc 2 77 5
  77:src/main.cpp  **** 
 839              		.loc 2 77 45 is_stmt 0
 840              	#APP
 841              	# 77 "src/main.cpp" 1
 842              		mv s2, t1
 843              	# 0 "" 2
 844              	.LVL93:
  79:src/main.cpp  **** 
 845              		.loc 2 79 5 is_stmt 1
  79:src/main.cpp  **** 
 846              		.loc 2 79 16 is_stmt 0
 847              	#NO_APP
 848 0534 17050000 		lla	a0,.LC11
 848      13050500 
 849 053c 97000000 		call	_Z11printStringPKc@plt
 849      E7800000 
 850              	.LVL94:
  79:src/main.cpp  **** 
 851              		.loc 2 79 28 is_stmt 1
  79:src/main.cpp  **** 
 852              		.loc 2 79 40 is_stmt 0
 853 0544 13050900 		mv	a0,s2
 854 0548 97000000 		call	_Z12printIntegerm@plt
 854      E7800000 
 855              	.LVL95:
  79:src/main.cpp  **** 
 856              		.loc 2 79 46 is_stmt 1
  79:src/main.cpp  **** 
 857              		.loc 2 79 57 is_stmt 0
 858 0550 17050000 		lla	a0,.LC3
 858      13050500 
 859 0558 97000000 		call	_Z11printStringPKc@plt
 859      E7800000 
GAS LISTING /tmp/ccGNPDYB.s 			page 23


 860              	.LVL96:
  81:src/main.cpp  ****     printString("C: fibonaci="); printInteger(result); printString("\n");
 861              		.loc 2 81 5 is_stmt 1
  81:src/main.cpp  ****     printString("C: fibonaci="); printInteger(result); printString("\n");
 862              		.loc 2 81 30 is_stmt 0
 863 0560 1305C000 		li	a0,12
 864 0564 97000000 		call	_Z9fibonaccim
 864      E7800000 
 865              	.LVL97:
 866 056c 13090500 		mv	s2,a0
 867              	.LVL98:
  82:src/main.cpp  ****     time_sleep(100);
 868              		.loc 2 82 5 is_stmt 1
  82:src/main.cpp  ****     time_sleep(100);
 869              		.loc 2 82 16 is_stmt 0
 870 0570 17050000 		lla	a0,.LC12
 870      13050500 
 871              	.LVL99:
 872 0578 97000000 		call	_Z11printStringPKc@plt
 872      E7800000 
 873              	.LVL100:
  82:src/main.cpp  ****     time_sleep(100);
 874              		.loc 2 82 34 is_stmt 1
  82:src/main.cpp  ****     time_sleep(100);
 875              		.loc 2 82 46 is_stmt 0
 876 0580 13050900 		mv	a0,s2
 877 0584 97000000 		call	_Z12printIntegerm@plt
 877      E7800000 
 878              	.LVL101:
  82:src/main.cpp  ****     time_sleep(100);
 879              		.loc 2 82 56 is_stmt 1
  82:src/main.cpp  ****     time_sleep(100);
 880              		.loc 2 82 67 is_stmt 0
 881 058c 17050000 		lla	a0,.LC3
 881      13050500 
 882 0594 97000000 		call	_Z11printStringPKc@plt
 882      E7800000 
 883              	.LVL102:
  83:src/main.cpp  ****     for (; i < 6; i++) {
 884              		.loc 2 83 5 is_stmt 1
  83:src/main.cpp  ****     for (; i < 6; i++) {
 885              		.loc 2 83 15 is_stmt 0
 886 059c 13054006 		li	a0,100
 887 05a0 97000000 		call	_Z10time_sleepm@plt
 887      E7800000 
 888              	.LVL103:
 889 05a8 6F008003 		j	.L52
 890              	.L55:
  85:src/main.cpp  ****     }
 891              		.loc 2 85 9 is_stmt 1 discriminator 1
  85:src/main.cpp  ****     }
 892              		.loc 2 85 20 is_stmt 0 discriminator 1
 893 05ac 17050000 		lla	a0,.LC9
 893      13050500 
 894 05b4 97000000 		call	_Z11printStringPKc@plt
 894      E7800000 
 895              	.LVL104:
GAS LISTING /tmp/ccGNPDYB.s 			page 24


  85:src/main.cpp  ****     }
 896              		.loc 2 85 31 is_stmt 1 discriminator 1
  85:src/main.cpp  ****     }
 897              		.loc 2 85 43 is_stmt 0 discriminator 1
 898 05bc 13850400 		mv	a0,s1
 899 05c0 97000000 		call	_Z12printIntegerm@plt
 899      E7800000 
 900              	.LVL105:
  85:src/main.cpp  ****     }
 901              		.loc 2 85 48 is_stmt 1 discriminator 1
  85:src/main.cpp  ****     }
 902              		.loc 2 85 59 is_stmt 0 discriminator 1
 903 05c8 17050000 		lla	a0,.LC3
 903      13050500 
 904 05d0 97000000 		call	_Z11printStringPKc@plt
 904      E7800000 
 905              	.LVL106:
  84:src/main.cpp  ****         printString("C: i="); printInteger(i); printString("\n");
 906              		.loc 2 84 5 is_stmt 1 discriminator 1
 907 05d8 9B841400 		addiw	s1,s1,1
 908              	.LVL107:
 909 05dc 93F4F40F 		andi	s1,s1,0xff
 910              	.LVL108:
 911              	.L52:
  84:src/main.cpp  ****         printString("C: i="); printInteger(i); printString("\n");
 912              		.loc 2 84 5 discriminator 2
  84:src/main.cpp  ****         printString("C: i="); printInteger(i); printString("\n");
 913              		.loc 2 84 14 discriminator 2
 914 05e0 93075000 		li	a5,5
 915 05e4 E3F497FC 		bleu	s1,a5,.L55
  88:src/main.cpp  ****     finishedC = true;
 916              		.loc 2 88 5
  88:src/main.cpp  ****     finishedC = true;
 917              		.loc 2 88 16 is_stmt 0
 918 05e8 17050000 		lla	a0,.LC13
 918      13050500 
 919 05f0 97000000 		call	_Z11printStringPKc@plt
 919      E7800000 
 920              	.LVL109:
  89:src/main.cpp  ****     thread_dispatch();
 921              		.loc 2 89 5 is_stmt 1
  89:src/main.cpp  ****     thread_dispatch();
 922              		.loc 2 89 15 is_stmt 0
 923 05f8 93071000 		li	a5,1
 924 05fc 17070000 		sb	a5,.LANCHOR0+17,a4
 924      2300F700 
  90:src/main.cpp  **** }
 925              		.loc 2 90 5 is_stmt 1
  90:src/main.cpp  **** }
 926              		.loc 2 90 20 is_stmt 0
 927 0604 97000000 		call	_Z15thread_dispatchv@plt
 927      E7800000 
 928              	.LVL110:
  91:src/main.cpp  **** 
 929              		.loc 2 91 1
 930 060c 83308101 		ld	ra,24(sp)
 931              		.cfi_restore 1
GAS LISTING /tmp/ccGNPDYB.s 			page 25


 932 0610 03340101 		ld	s0,16(sp)
 933              		.cfi_restore 8
 934              		.cfi_def_cfa 2, 32
 935 0614 83348100 		ld	s1,8(sp)
 936              		.cfi_restore 9
 937              	.LVL111:
 938 0618 03390100 		ld	s2,0(sp)
 939              		.cfi_restore 18
 940              	.LVL112:
 941 061c 13010102 		addi	sp,sp,32
 942              		.cfi_def_cfa_offset 0
 943 0620 67800000 		jr	ra
 944              		.cfi_endproc
 945              	.LFE62:
 947              		.section	.rodata.str1.8
 948 00ad 000000   		.align	3
 949              	.LC14:
 950 00b0 443A2069 		.string	"D: i="
 950      3D00
 951 00b6 0000     		.align	3
 952              	.LC15:
 953 00b8 443A2064 		.string	"D: dispatch\n"
 953      69737061 
 953      7463680A 
 953      00
 954 00c5 000000   		.align	3
 955              	.LC16:
 956 00c8 443A2066 		.string	"D: fibonaci="
 956      69626F6E 
 956      6163693D 
 956      00
 957 00d5 000000   		.align	3
 958              	.LC17:
 959 00d8 44206669 		.string	"D finished!\n"
 959      6E697368 
 959      6564210A 
 959      00
 960              		.text
 961              		.align	2
 962              		.globl	_Z12workerBodyD2Pv
 964              	_Z12workerBodyD2Pv:
 965              	.LFB63:
  93:src/main.cpp  ****     uint8 i = 10;
 966              		.loc 2 93 30 is_stmt 1
 967              		.cfi_startproc
 968              	.LVL113:
 969 0624 130101FE 		addi	sp,sp,-32
 970              		.cfi_def_cfa_offset 32
 971 0628 233C1100 		sd	ra,24(sp)
 972 062c 23388100 		sd	s0,16(sp)
 973 0630 23349100 		sd	s1,8(sp)
 974 0634 23302101 		sd	s2,0(sp)
 975              		.cfi_offset 1, -8
 976              		.cfi_offset 8, -16
 977              		.cfi_offset 9, -24
 978              		.cfi_offset 18, -32
 979 0638 13040102 		addi	s0,sp,32
GAS LISTING /tmp/ccGNPDYB.s 			page 26


 980              		.cfi_def_cfa 8, 0
  94:src/main.cpp  ****     putc('\n');
 981              		.loc 2 94 5
 982              	.LVL114:
  95:src/main.cpp  ****     putc('L');
 983              		.loc 2 95 5
  95:src/main.cpp  ****     putc('L');
 984              		.loc 2 95 9 is_stmt 0
 985 063c 1305A000 		li	a0,10
 986              	.LVL115:
 987 0640 97000000 		call	_Z4putcc@plt
 987      E7800000 
 988              	.LVL116:
  96:src/main.cpp  ****     putc('\n');
 989              		.loc 2 96 5 is_stmt 1
  96:src/main.cpp  ****     putc('\n');
 990              		.loc 2 96 9 is_stmt 0
 991 0648 1305C004 		li	a0,76
 992 064c 97000000 		call	_Z4putcc@plt
 992      E7800000 
 993              	.LVL117:
  97:src/main.cpp  ****     for (; i < 13; i++) {
 994              		.loc 2 97 5 is_stmt 1
  97:src/main.cpp  ****     for (; i < 13; i++) {
 995              		.loc 2 97 9 is_stmt 0
 996 0654 1305A000 		li	a0,10
 997 0658 97000000 		call	_Z4putcc@plt
 997      E7800000 
 998              	.LVL118:
  94:src/main.cpp  ****     putc('\n');
 999              		.loc 2 94 11
 1000 0660 9304A000 		li	s1,10
 1001 0664 6F00C001 		j	.L59
 1002              	.LVL119:
 1003              	.L63:
 101:src/main.cpp  ****         }
 1004              		.loc 2 101 13 is_stmt 1
 101:src/main.cpp  ****         }
 1005              		.loc 2 101 21 is_stmt 0
 1006 0668 17050000 		ld	a0,.LANCHOR0+8
 1006      03350500 
 1007 0670 97000000 		call	_Z8sem_waitP4_sem@plt
 1007      E7800000 
 1008              	.LVL120:
 1009              	.L58:
  98:src/main.cpp  ****         printString("D: i="); printInteger(i); printString("\n");
 1010              		.loc 2 98 5 is_stmt 1
 1011 0678 9B841400 		addiw	s1,s1,1
 1012              	.LVL121:
 1013 067c 93F4F40F 		andi	s1,s1,0xff
 1014              	.LVL122:
 1015              	.L59:
  98:src/main.cpp  ****         printString("D: i="); printInteger(i); printString("\n");
 1016              		.loc 2 98 5 discriminator 1
  98:src/main.cpp  ****         printString("D: i="); printInteger(i); printString("\n");
 1017              		.loc 2 98 14 discriminator 1
 1018 0680 9307C000 		li	a5,12
GAS LISTING /tmp/ccGNPDYB.s 			page 27


 1019 0684 63EE9702 		bgtu	s1,a5,.L57
  99:src/main.cpp  ****         if (i == 10) {
 1020              		.loc 2 99 9
  99:src/main.cpp  ****         if (i == 10) {
 1021              		.loc 2 99 20 is_stmt 0
 1022 0688 17050000 		lla	a0,.LC14
 1022      13050500 
 1023 0690 97000000 		call	_Z11printStringPKc@plt
 1023      E7800000 
 1024              	.LVL123:
  99:src/main.cpp  ****         if (i == 10) {
 1025              		.loc 2 99 31 is_stmt 1
  99:src/main.cpp  ****         if (i == 10) {
 1026              		.loc 2 99 43 is_stmt 0
 1027 0698 13850400 		mv	a0,s1
 1028 069c 97000000 		call	_Z12printIntegerm@plt
 1028      E7800000 
 1029              	.LVL124:
  99:src/main.cpp  ****         if (i == 10) {
 1030              		.loc 2 99 48 is_stmt 1
  99:src/main.cpp  ****         if (i == 10) {
 1031              		.loc 2 99 59 is_stmt 0
 1032 06a4 17050000 		lla	a0,.LC3
 1032      13050500 
 1033 06ac 97000000 		call	_Z11printStringPKc@plt
 1033      E7800000 
 1034              	.LVL125:
 100:src/main.cpp  ****             sem_wait(sem);
 1035              		.loc 2 100 9 is_stmt 1
 1036 06b4 9307A000 		li	a5,10
 1037 06b8 E390F4FC 		bne	s1,a5,.L58
 1038 06bc 6FF0DFFA 		j	.L63
 1039              	.L57:
 105:src/main.cpp  ****     __asm__ ("li t1, 5");
 1040              		.loc 2 105 5
 105:src/main.cpp  ****     __asm__ ("li t1, 5");
 1041              		.loc 2 105 16 is_stmt 0
 1042 06c0 17050000 		lla	a0,.LC15
 1042      13050500 
 1043 06c8 97000000 		call	_Z11printStringPKc@plt
 1043      E7800000 
 1044              	.LVL126:
 106:src/main.cpp  ****     thread_dispatch();
 1045              		.loc 2 106 5 is_stmt 1
 106:src/main.cpp  ****     thread_dispatch();
 1046              		.loc 2 106 25 is_stmt 0
 1047              	#APP
 1048              	# 106 "src/main.cpp" 1
 107:src/main.cpp  **** 
 1049              		li t1, 5
 1050              	# 0 "" 2
 1051              		.loc 2 107 5 is_stmt 1
 107:src/main.cpp  **** 
 1052              		.loc 2 107 20 is_stmt 0
 1053              	#NO_APP
 1054 06d4 97000000 		call	_Z15thread_dispatchv@plt
 1054      E7800000 
GAS LISTING /tmp/ccGNPDYB.s 			page 28


 1055              	.LVL127:
 109:src/main.cpp  ****     printString("D: fibonaci="); printInteger(result); printString("\n");
 1056              		.loc 2 109 5 is_stmt 1
 109:src/main.cpp  ****     printString("D: fibonaci="); printInteger(result); printString("\n");
 1057              		.loc 2 109 30 is_stmt 0
 1058 06dc 13050001 		li	a0,16
 1059 06e0 97000000 		call	_Z9fibonaccim
 1059      E7800000 
 1060              	.LVL128:
 1061 06e8 13090500 		mv	s2,a0
 1062              	.LVL129:
 110:src/main.cpp  **** 
 1063              		.loc 2 110 5 is_stmt 1
 110:src/main.cpp  **** 
 1064              		.loc 2 110 16 is_stmt 0
 1065 06ec 17050000 		lla	a0,.LC16
 1065      13050500 
 1066              	.LVL130:
 1067 06f4 97000000 		call	_Z11printStringPKc@plt
 1067      E7800000 
 1068              	.LVL131:
 110:src/main.cpp  **** 
 1069              		.loc 2 110 34 is_stmt 1
 110:src/main.cpp  **** 
 1070              		.loc 2 110 46 is_stmt 0
 1071 06fc 13050900 		mv	a0,s2
 1072 0700 97000000 		call	_Z12printIntegerm@plt
 1072      E7800000 
 1073              	.LVL132:
 110:src/main.cpp  **** 
 1074              		.loc 2 110 56 is_stmt 1
 110:src/main.cpp  **** 
 1075              		.loc 2 110 67 is_stmt 0
 1076 0708 17050000 		lla	a0,.LC3
 1076      13050500 
 1077 0710 97000000 		call	_Z11printStringPKc@plt
 1077      E7800000 
 1078              	.LVL133:
 1079 0718 6F008003 		j	.L61
 1080              	.L64:
 113:src/main.cpp  ****     }
 1081              		.loc 2 113 9 is_stmt 1 discriminator 1
 113:src/main.cpp  ****     }
 1082              		.loc 2 113 20 is_stmt 0 discriminator 1
 1083 071c 17050000 		lla	a0,.LC14
 1083      13050500 
 1084 0724 97000000 		call	_Z11printStringPKc@plt
 1084      E7800000 
 1085              	.LVL134:
 113:src/main.cpp  ****     }
 1086              		.loc 2 113 31 is_stmt 1 discriminator 1
 113:src/main.cpp  ****     }
 1087              		.loc 2 113 43 is_stmt 0 discriminator 1
 1088 072c 13850400 		mv	a0,s1
 1089 0730 97000000 		call	_Z12printIntegerm@plt
 1089      E7800000 
 1090              	.LVL135:
GAS LISTING /tmp/ccGNPDYB.s 			page 29


 113:src/main.cpp  ****     }
 1091              		.loc 2 113 48 is_stmt 1 discriminator 1
 113:src/main.cpp  ****     }
 1092              		.loc 2 113 59 is_stmt 0 discriminator 1
 1093 0738 17050000 		lla	a0,.LC3
 1093      13050500 
 1094 0740 97000000 		call	_Z11printStringPKc@plt
 1094      E7800000 
 1095              	.LVL136:
 112:src/main.cpp  ****         printString("D: i="); printInteger(i); printString("\n");
 1096              		.loc 2 112 5 is_stmt 1 discriminator 1
 1097 0748 9B841400 		addiw	s1,s1,1
 1098              	.LVL137:
 1099 074c 93F4F40F 		andi	s1,s1,0xff
 1100              	.LVL138:
 1101              	.L61:
 112:src/main.cpp  ****         printString("D: i="); printInteger(i); printString("\n");
 1102              		.loc 2 112 5 discriminator 2
 112:src/main.cpp  ****         printString("D: i="); printInteger(i); printString("\n");
 1103              		.loc 2 112 14 discriminator 2
 1104 0750 9307F000 		li	a5,15
 1105 0754 E3F497FC 		bleu	s1,a5,.L64
 115:src/main.cpp  ****     finishedD = true;
 1106              		.loc 2 115 5
 115:src/main.cpp  ****     finishedD = true;
 1107              		.loc 2 115 16 is_stmt 0
 1108 0758 17050000 		lla	a0,.LC17
 1108      13050500 
 1109 0760 97000000 		call	_Z11printStringPKc@plt
 1109      E7800000 
 1110              	.LVL139:
 116:src/main.cpp  ****     thread_dispatch();
 1111              		.loc 2 116 5 is_stmt 1
 116:src/main.cpp  ****     thread_dispatch();
 1112              		.loc 2 116 15 is_stmt 0
 1113 0768 93071000 		li	a5,1
 1114 076c 17070000 		sb	a5,.LANCHOR0+18,a4
 1114      2300F700 
 117:src/main.cpp  **** }
 1115              		.loc 2 117 5 is_stmt 1
 117:src/main.cpp  **** }
 1116              		.loc 2 117 20 is_stmt 0
 1117 0774 97000000 		call	_Z15thread_dispatchv@plt
 1117      E7800000 
 1118              	.LVL140:
 118:src/main.cpp  **** 
 1119              		.loc 2 118 1
 1120 077c 83308101 		ld	ra,24(sp)
 1121              		.cfi_restore 1
 1122 0780 03340101 		ld	s0,16(sp)
 1123              		.cfi_restore 8
 1124              		.cfi_def_cfa 2, 32
 1125 0784 83348100 		ld	s1,8(sp)
 1126              		.cfi_restore 9
 1127              	.LVL141:
 1128 0788 03390100 		ld	s2,0(sp)
 1129              		.cfi_restore 18
GAS LISTING /tmp/ccGNPDYB.s 			page 30


 1130              	.LVL142:
 1131 078c 13010102 		addi	sp,sp,32
 1132              		.cfi_def_cfa_offset 0
 1133 0790 67800000 		jr	ra
 1134              		.cfi_endproc
 1135              	.LFE63:
 1137              		.section	.rodata.str1.8
 1138 00e5 000000   		.align	3
 1139              	.LC18:
 1140 00e8 54687265 		.string	"ThreadA created\n"
 1140      61644120 
 1140      63726561 
 1140      7465640A 
 1140      00
 1141 00f9 00000000 		.align	3
 1141      000000
 1142              	.LC19:
 1143 0100 54687265 		.string	"ThreadB created\n"
 1143      61644220 
 1143      63726561 
 1143      7465640A 
 1143      00
 1144 0111 00000000 		.align	3
 1144      000000
 1145              	.LC20:
 1146 0118 54687265 		.string	"ThreadC created\n"
 1146      61644320 
 1146      63726561 
 1146      7465640A 
 1146      00
 1147 0129 00000000 		.align	3
 1147      000000
 1148              	.LC21:
 1149 0130 54687265 		.string	"ThreadD created\n"
 1149      61644420 
 1149      63726561 
 1149      7465640A 
 1149      00
 1150              		.text
 1151              		.align	2
 1152              		.globl	_Z18Threads_C_API_testv
 1154              	_Z18Threads_C_API_testv:
 1155              	.LFB65:
 144:src/main.cpp  **** 
 145:src/main.cpp  **** 
 146:src/main.cpp  **** 
 147:src/main.cpp  **** void Threads_C_API_test() {
 1156              		.loc 2 147 27 is_stmt 1
 1157              		.cfi_startproc
 1158 0794 130101FD 		addi	sp,sp,-48
 1159              		.cfi_def_cfa_offset 48
 1160 0798 23341102 		sd	ra,40(sp)
 1161 079c 23308102 		sd	s0,32(sp)
 1162              		.cfi_offset 1, -8
 1163              		.cfi_offset 8, -16
 1164 07a0 13040103 		addi	s0,sp,48
 1165              		.cfi_def_cfa 8, 0
GAS LISTING /tmp/ccGNPDYB.s 			page 31


 148:src/main.cpp  ****     thread_t threads[4];
 1166              		.loc 2 148 5
 149:src/main.cpp  ****     thread_create(&threads[0], workerBodyA2, nullptr);
 1167              		.loc 2 149 5
 1168              		.loc 2 149 18 is_stmt 0
 1169 07a4 13060000 		li	a2,0
 1170 07a8 97050000 		lla	a1,_Z12workerBodyA2Pv
 1170      93850500 
 1171 07b0 130504FD 		addi	a0,s0,-48
 1172 07b4 97000000 		call	_Z13thread_createPP3TCBPFvPvES2_@plt
 1172      E7800000 
 1173              	.LVL143:
 150:src/main.cpp  ****     printString("ThreadA created\n");
 1174              		.loc 2 150 5 is_stmt 1
 1175              		.loc 2 150 16 is_stmt 0
 1176 07bc 17050000 		lla	a0,.LC18
 1176      13050500 
 1177 07c4 97000000 		call	_Z11printStringPKc@plt
 1177      E7800000 
 1178              	.LVL144:
 151:src/main.cpp  **** 
 152:src/main.cpp  ****     thread_create(&threads[1], workerBodyB2, nullptr);
 1179              		.loc 2 152 5 is_stmt 1
 1180              		.loc 2 152 18 is_stmt 0
 1181 07cc 13060000 		li	a2,0
 1182 07d0 97050000 		lla	a1,_Z12workerBodyB2Pv
 1182      93850500 
 1183 07d8 130584FD 		addi	a0,s0,-40
 1184 07dc 97000000 		call	_Z13thread_createPP3TCBPFvPvES2_@plt
 1184      E7800000 
 1185              	.LVL145:
 153:src/main.cpp  ****     printString("ThreadB created\n");
 1186              		.loc 2 153 5 is_stmt 1
 1187              		.loc 2 153 16 is_stmt 0
 1188 07e4 17050000 		lla	a0,.LC19
 1188      13050500 
 1189 07ec 97000000 		call	_Z11printStringPKc@plt
 1189      E7800000 
 1190              	.LVL146:
 154:src/main.cpp  **** 
 155:src/main.cpp  ****     thread_create(&threads[2], workerBodyC2, nullptr);
 1191              		.loc 2 155 5 is_stmt 1
 1192              		.loc 2 155 18 is_stmt 0
 1193 07f4 13060000 		li	a2,0
 1194 07f8 97050000 		lla	a1,_Z12workerBodyC2Pv
 1194      93850500 
 1195 0800 130504FE 		addi	a0,s0,-32
 1196 0804 97000000 		call	_Z13thread_createPP3TCBPFvPvES2_@plt
 1196      E7800000 
 1197              	.LVL147:
 156:src/main.cpp  ****     printString("ThreadC created\n");
 1198              		.loc 2 156 5 is_stmt 1
 1199              		.loc 2 156 16 is_stmt 0
 1200 080c 17050000 		lla	a0,.LC20
 1200      13050500 
 1201 0814 97000000 		call	_Z11printStringPKc@plt
 1201      E7800000 
GAS LISTING /tmp/ccGNPDYB.s 			page 32


 1202              	.LVL148:
 157:src/main.cpp  **** 
 158:src/main.cpp  ****     thread_create(&threads[3], workerBodyD2, nullptr);
 1203              		.loc 2 158 5 is_stmt 1
 1204              		.loc 2 158 18 is_stmt 0
 1205 081c 13060000 		li	a2,0
 1206 0820 97050000 		lla	a1,_Z12workerBodyD2Pv
 1206      93850500 
 1207 0828 130584FE 		addi	a0,s0,-24
 1208 082c 97000000 		call	_Z13thread_createPP3TCBPFvPvES2_@plt
 1208      E7800000 
 1209              	.LVL149:
 159:src/main.cpp  ****     printString("ThreadD created\n");
 1210              		.loc 2 159 5 is_stmt 1
 1211              		.loc 2 159 16 is_stmt 0
 1212 0834 17050000 		lla	a0,.LC21
 1212      13050500 
 1213 083c 97000000 		call	_Z11printStringPKc@plt
 1213      E7800000 
 1214              	.LVL150:
 1215 0844 6F00C000 		j	.L68
 1216              	.L66:
 160:src/main.cpp  **** 
 161:src/main.cpp  ****     while (!(finishedA && finishedB && finishedC && finishedD)) {
 162:src/main.cpp  ****         thread_dispatch();
 1217              		.loc 2 162 9 is_stmt 1
 1218              		.loc 2 162 24 is_stmt 0
 1219 0848 97000000 		call	_Z15thread_dispatchv@plt
 1219      E7800000 
 1220              	.LVL151:
 1221              	.L68:
 161:src/main.cpp  ****         thread_dispatch();
 1222              		.loc 2 161 5 is_stmt 1
 161:src/main.cpp  ****         thread_dispatch();
 1223              		.loc 2 161 12
 1224 0850 97070000 		lbu	a5,.LANCHOR0+2
 1224      83C70700 
 1225 0858 E38807FE 		beqz	a5,.L66
 161:src/main.cpp  ****         thread_dispatch();
 1226              		.loc 2 161 24 is_stmt 0 discriminator 1
 1227 085c 97070000 		lbu	a5,.LANCHOR0+16
 1227      83C70700 
 1228 0864 E38207FE 		beqz	a5,.L66
 161:src/main.cpp  ****         thread_dispatch();
 1229              		.loc 2 161 37 discriminator 2
 1230 0868 97070000 		lbu	a5,.LANCHOR0+17
 1230      83C70700 
 1231 0870 E38C07FC 		beqz	a5,.L66
 161:src/main.cpp  ****         thread_dispatch();
 1232              		.loc 2 161 12 discriminator 3
 1233 0874 97070000 		lbu	a5,.LANCHOR0+18
 1233      83C70700 
 1234 087c E38607FC 		beqz	a5,.L66
 163:src/main.cpp  ****     }
 164:src/main.cpp  **** //    while (!(finishedA)) {
 165:src/main.cpp  **** //        thread_dispatch();
 166:src/main.cpp  **** //    }
GAS LISTING /tmp/ccGNPDYB.s 			page 33


 167:src/main.cpp  **** }
 1235              		.loc 2 167 1
 1236 0880 83308102 		ld	ra,40(sp)
 1237              		.cfi_restore 1
 1238 0884 03340102 		ld	s0,32(sp)
 1239              		.cfi_restore 8
 1240              		.cfi_def_cfa 2, 48
 1241 0888 13010103 		addi	sp,sp,48
 1242              		.cfi_def_cfa_offset 0
 1243 088c 67800000 		jr	ra
 1244              		.cfi_endproc
 1245              	.LFE65:
 1247              		.section	.rodata.str1.8
 1248 0141 00000000 		.align	3
 1248      000000
 1249              	.LC22:
 1250 0148 54617374 		.string	"Tastatura created\n"
 1250      61747572 
 1250      61206372 
 1250      65617465 
 1250      640A00
 1251              		.text
 1252              		.align	2
 1253              		.globl	_Z13tastaturaTestv
 1255              	_Z13tastaturaTestv:
 1256              	.LFB66:
 168:src/main.cpp  **** 
 169:src/main.cpp  **** void tastaturaTest(){
 1257              		.loc 2 169 21 is_stmt 1
 1258              		.cfi_startproc
 1259 0890 130101FE 		addi	sp,sp,-32
 1260              		.cfi_def_cfa_offset 32
 1261 0894 233C1100 		sd	ra,24(sp)
 1262 0898 23388100 		sd	s0,16(sp)
 1263              		.cfi_offset 1, -8
 1264              		.cfi_offset 8, -16
 1265 089c 13040102 		addi	s0,sp,32
 1266              		.cfi_def_cfa 8, 0
 170:src/main.cpp  ****     thread_t Tastatura;
 1267              		.loc 2 170 5
 171:src/main.cpp  ****     thread_create(&Tastatura, TastaturaWorker, nullptr);
 1268              		.loc 2 171 5
 1269              		.loc 2 171 18 is_stmt 0
 1270 08a0 13060000 		li	a2,0
 1271 08a4 97050000 		lla	a1,_Z15TastaturaWorkerPv
 1271      93850500 
 1272 08ac 130584FE 		addi	a0,s0,-24
 1273 08b0 97000000 		call	_Z13thread_createPP3TCBPFvPvES2_@plt
 1273      E7800000 
 1274              	.LVL152:
 172:src/main.cpp  ****     printString("Tastatura created\n");
 1275              		.loc 2 172 5 is_stmt 1
 1276              		.loc 2 172 16 is_stmt 0
 1277 08b8 17050000 		lla	a0,.LC22
 1277      13050500 
 1278 08c0 97000000 		call	_Z11printStringPKc@plt
 1278      E7800000 
GAS LISTING /tmp/ccGNPDYB.s 			page 34


 1279              	.LVL153:
 1280              	.L72:
 173:src/main.cpp  **** 
 174:src/main.cpp  ****     while (!finishedTastatura) {
 1281              		.loc 2 174 5 is_stmt 1
 1282              		.loc 2 174 12
 1283 08c8 97070000 		lbu	a5,.LANCHOR0+3
 1283      83C70700 
 1284 08d0 63980700 		bnez	a5,.L70
 175:src/main.cpp  ****         thread_dispatch();
 1285              		.loc 2 175 9
 1286              		.loc 2 175 24 is_stmt 0
 1287 08d4 97000000 		call	_Z15thread_dispatchv@plt
 1287      E7800000 
 1288              	.LVL154:
 1289 08dc 6FF0DFFE 		j	.L72
 1290              	.L70:
 176:src/main.cpp  ****     }
 177:src/main.cpp  **** }
 1291              		.loc 2 177 1
 1292 08e0 83308101 		ld	ra,24(sp)
 1293              		.cfi_restore 1
 1294 08e4 03340101 		ld	s0,16(sp)
 1295              		.cfi_restore 8
 1296              		.cfi_def_cfa 2, 32
 1297 08e8 13010102 		addi	sp,sp,32
 1298              		.cfi_def_cfa_offset 0
 1299 08ec 67800000 		jr	ra
 1300              		.cfi_endproc
 1301              	.LFE66:
 1303              		.align	2
 1304              		.globl	_Z8userMainv
 1306              	_Z8userMainv:
 1307              	.LFB67:
 178:src/main.cpp  **** 
 179:src/main.cpp  **** void userMain() {
 1308              		.loc 2 179 17 is_stmt 1
 1309              		.cfi_startproc
 1310 08f0 130101FF 		addi	sp,sp,-16
 1311              		.cfi_def_cfa_offset 16
 1312 08f4 23341100 		sd	ra,8(sp)
 1313 08f8 23308100 		sd	s0,0(sp)
 1314              		.cfi_offset 1, -8
 1315              		.cfi_offset 8, -16
 1316 08fc 13040101 		addi	s0,sp,16
 1317              		.cfi_def_cfa 8, 0
 180:src/main.cpp  **** //    Threads_C_API_test(); // zadatak 2., niti C API i sinhrona promena konteksta
 181:src/main.cpp  **** //    testSleeping();       // ThreadSleeping test
 182:src/main.cpp  ****     tastaturaTest();
 1318              		.loc 2 182 5
 1319              		.loc 2 182 18 is_stmt 0
 1320 0900 97000000 		call	_Z13tastaturaTestv
 1320      E7800000 
 1321              	.LVL155:
 183:src/main.cpp  **** }
 1322              		.loc 2 183 1
 1323 0908 83308100 		ld	ra,8(sp)
GAS LISTING /tmp/ccGNPDYB.s 			page 35


 1324              		.cfi_restore 1
 1325 090c 03340100 		ld	s0,0(sp)
 1326              		.cfi_restore 8
 1327              		.cfi_def_cfa 2, 16
 1328 0910 13010101 		addi	sp,sp,16
 1329              		.cfi_def_cfa_offset 0
 1330 0914 67800000 		jr	ra
 1331              		.cfi_endproc
 1332              	.LFE67:
 1334              		.section	.rodata.str1.8
 1335 015b 00000000 		.align	3
 1335      00
 1336              	.LC23:
 1337 0160 46696E69 		.string	"Finished\n"
 1337      73686564 
 1337      0A00
 1338              		.text
 1339              		.align	2
 1340              		.globl	main
 1342              	main:
 1343              	.LFB68:
 184:src/main.cpp  **** 
 185:src/main.cpp  **** int main()
 186:src/main.cpp  **** {
 1344              		.loc 2 186 1 is_stmt 1
 1345              		.cfi_startproc
 1346 0918 130101FE 		addi	sp,sp,-32
 1347              		.cfi_def_cfa_offset 32
 1348 091c 233C1100 		sd	ra,24(sp)
 1349 0920 23388100 		sd	s0,16(sp)
 1350              		.cfi_offset 1, -8
 1351              		.cfi_offset 8, -16
 1352 0924 13040102 		addi	s0,sp,32
 1353              		.cfi_def_cfa 8, 0
 187:src/main.cpp  ****     Riscv::w_stvec((uint64) &Riscv::supervisorTrap);
 1354              		.loc 2 187 5
 1355              		.loc 2 187 19 is_stmt 0
 1356 0928 97070000 		la	a5,_ZN5Riscv14supervisorTrapEv
 1356      83B70700 
 1357              	.LVL156:
 1358              	.LBB58:
 1359              	.LBB59:
 1360              		.file 4 "src/../h/riscv.hpp"
   1:src/../h/riscv.hpp **** //
   2:src/../h/riscv.hpp **** // Created by marko on 20.4.22..
   3:src/../h/riscv.hpp **** //
   4:src/../h/riscv.hpp **** 
   5:src/../h/riscv.hpp **** #ifndef OS1_VEZBE07_RISCV_CONTEXT_SWITCH_2_INTERRUPT_RISCV_HPP
   6:src/../h/riscv.hpp **** #define OS1_VEZBE07_RISCV_CONTEXT_SWITCH_2_INTERRUPT_RISCV_HPP
   7:src/../h/riscv.hpp **** 
   8:src/../h/riscv.hpp **** #include "../lib/hw.h"
   9:src/../h/riscv.hpp **** #include "tcb.hpp"
  10:src/../h/riscv.hpp **** #include "../h/sleepingThreadsList.h"
  11:src/../h/riscv.hpp **** #include "buffer.h"
  12:src/../h/riscv.hpp **** 
  13:src/../h/riscv.hpp **** class Riscv
  14:src/../h/riscv.hpp **** {
GAS LISTING /tmp/ccGNPDYB.s 			page 36


  15:src/../h/riscv.hpp **** public:
  16:src/../h/riscv.hpp **** 
  17:src/../h/riscv.hpp ****     // pop sstatus.spp and sstatus.spie bits (has to be a non inline function)
  18:src/../h/riscv.hpp ****     static void popSppSpie();
  19:src/../h/riscv.hpp **** 
  20:src/../h/riscv.hpp ****     // read register scause
  21:src/../h/riscv.hpp ****     static uint64 r_scause();
  22:src/../h/riscv.hpp **** 
  23:src/../h/riscv.hpp ****     // write register scause
  24:src/../h/riscv.hpp ****     static void w_scause(uint64 scause);
  25:src/../h/riscv.hpp **** 
  26:src/../h/riscv.hpp ****     // read register sepc
  27:src/../h/riscv.hpp ****     static uint64 r_sepc();
  28:src/../h/riscv.hpp **** 
  29:src/../h/riscv.hpp ****     // write register sepc
  30:src/../h/riscv.hpp ****     static void w_sepc(uint64 sepc);
  31:src/../h/riscv.hpp **** 
  32:src/../h/riscv.hpp ****     // read register stvec
  33:src/../h/riscv.hpp ****     static uint64 r_stvec();
  34:src/../h/riscv.hpp **** 
  35:src/../h/riscv.hpp ****     // write register stvec
  36:src/../h/riscv.hpp ****     static void w_stvec(uint64 stvec);
  37:src/../h/riscv.hpp **** 
  38:src/../h/riscv.hpp ****     // read register stval
  39:src/../h/riscv.hpp ****     static uint64 r_stval();
  40:src/../h/riscv.hpp **** 
  41:src/../h/riscv.hpp ****     // write register stval
  42:src/../h/riscv.hpp ****     static void w_stval(uint64 stval);
  43:src/../h/riscv.hpp **** 
  44:src/../h/riscv.hpp ****     enum BitMaskSip
  45:src/../h/riscv.hpp ****     {
  46:src/../h/riscv.hpp ****         SIP_SSIP = (1 << 1),
  47:src/../h/riscv.hpp ****         SIP_STIP = (1 << 5),
  48:src/../h/riscv.hpp ****         SIP_SEIP = (1 << 9),
  49:src/../h/riscv.hpp ****     };
  50:src/../h/riscv.hpp **** 
  51:src/../h/riscv.hpp ****     // mask set register sip
  52:src/../h/riscv.hpp ****     static void ms_sip(uint64 mask);
  53:src/../h/riscv.hpp **** 
  54:src/../h/riscv.hpp ****     // mask clear register sip
  55:src/../h/riscv.hpp ****     static void mc_sip(uint64 mask);
  56:src/../h/riscv.hpp **** 
  57:src/../h/riscv.hpp ****     // read register sip
  58:src/../h/riscv.hpp ****     static uint64 r_sip();
  59:src/../h/riscv.hpp **** 
  60:src/../h/riscv.hpp ****     // write register sip
  61:src/../h/riscv.hpp ****     static void w_sip(uint64 sip);
  62:src/../h/riscv.hpp **** 
  63:src/../h/riscv.hpp ****     enum BitMaskSstatus
  64:src/../h/riscv.hpp ****     {
  65:src/../h/riscv.hpp ****         SSTATUS_SIE = (1 << 1),
  66:src/../h/riscv.hpp ****         SSTATUS_SPIE = (1 << 5),
  67:src/../h/riscv.hpp ****         SSTATUS_SPP = (1 << 8),
  68:src/../h/riscv.hpp ****     };
  69:src/../h/riscv.hpp **** 
  70:src/../h/riscv.hpp ****     // mask set register sstatus
  71:src/../h/riscv.hpp ****     static void ms_sstatus(uint64 mask);
GAS LISTING /tmp/ccGNPDYB.s 			page 37


  72:src/../h/riscv.hpp **** 
  73:src/../h/riscv.hpp ****     // mask clear register sstatus
  74:src/../h/riscv.hpp ****     static void mc_sstatus(uint64 mask);
  75:src/../h/riscv.hpp **** 
  76:src/../h/riscv.hpp ****     // read register sstatus
  77:src/../h/riscv.hpp ****     static uint64 r_sstatus();
  78:src/../h/riscv.hpp **** 
  79:src/../h/riscv.hpp ****     // write register sstatus
  80:src/../h/riscv.hpp ****     static void w_sstatus(uint64 sstatus);
  81:src/../h/riscv.hpp **** 
  82:src/../h/riscv.hpp ****     // supervisor trap
  83:src/../h/riscv.hpp ****     static void supervisorTrap();
  84:src/../h/riscv.hpp **** 
  85:src/../h/riscv.hpp ****     static Buffer putCBuffer;
  86:src/../h/riscv.hpp ****     static Buffer getCBuffer;
  87:src/../h/riscv.hpp **** 
  88:src/../h/riscv.hpp **** private:
  89:src/../h/riscv.hpp **** 
  90:src/../h/riscv.hpp ****     // supervisor trap handler
  91:src/../h/riscv.hpp ****     static void handleSupervisorTrap();
  92:src/../h/riscv.hpp ****     static SleepingThreadList sleepingThreads;
  93:src/../h/riscv.hpp **** 
  94:src/../h/riscv.hpp **** };
  95:src/../h/riscv.hpp **** 
  96:src/../h/riscv.hpp **** 
  97:src/../h/riscv.hpp **** inline uint64 Riscv::r_scause()
  98:src/../h/riscv.hpp **** {
  99:src/../h/riscv.hpp ****     uint64 volatile scause;
 100:src/../h/riscv.hpp ****     __asm__ volatile ("csrr %[scause], scause" : [scause] "=r"(scause));
 101:src/../h/riscv.hpp ****     return scause;
 102:src/../h/riscv.hpp **** }
 103:src/../h/riscv.hpp **** 
 104:src/../h/riscv.hpp **** inline void Riscv::w_scause(uint64 scause)
 105:src/../h/riscv.hpp **** {
 106:src/../h/riscv.hpp ****     __asm__ volatile ("csrw scause, %[scause]" : : [scause] "r"(scause));
 107:src/../h/riscv.hpp **** }
 108:src/../h/riscv.hpp **** 
 109:src/../h/riscv.hpp **** inline uint64 Riscv::r_sepc()
 110:src/../h/riscv.hpp **** {
 111:src/../h/riscv.hpp ****     uint64 volatile sepc;
 112:src/../h/riscv.hpp ****     __asm__ volatile ("csrr %[sepc], sepc" : [sepc] "=r"(sepc));
 113:src/../h/riscv.hpp ****     return sepc;
 114:src/../h/riscv.hpp **** }
 115:src/../h/riscv.hpp **** 
 116:src/../h/riscv.hpp **** inline void Riscv::w_sepc(uint64 sepc)
 117:src/../h/riscv.hpp **** {
 118:src/../h/riscv.hpp ****     __asm__ volatile ("csrw sepc, %[sepc]" : : [sepc] "r"(sepc));
 119:src/../h/riscv.hpp **** }
 120:src/../h/riscv.hpp **** 
 121:src/../h/riscv.hpp **** inline uint64 Riscv::r_stvec()
 122:src/../h/riscv.hpp **** {
 123:src/../h/riscv.hpp ****     uint64 volatile stvec;
 124:src/../h/riscv.hpp ****     __asm__ volatile ("csrr %[stvec], stvec" : [stvec] "=r"(stvec));
 125:src/../h/riscv.hpp ****     return stvec;
 126:src/../h/riscv.hpp **** }
 127:src/../h/riscv.hpp **** 
 128:src/../h/riscv.hpp **** inline void Riscv::w_stvec(uint64 stvec)
GAS LISTING /tmp/ccGNPDYB.s 			page 38


 129:src/../h/riscv.hpp **** {
 130:src/../h/riscv.hpp ****     __asm__ volatile ("csrw stvec, %[stvec]" : : [stvec] "r"(stvec));
 1361              		.loc 4 130 5 is_stmt 1
 1362              		.loc 4 130 69 is_stmt 0
 1363              	#APP
 1364              	# 130 "src/../h/riscv.hpp" 1
 131              	}
 1365              		csrw stvec, a5
 1366              	# 0 "" 2
 1367              	.LVL157:
 1368              	#NO_APP
 1369              	.LBE59:
 1370              	.LBE58:
 188:src/main.cpp  ****     TCB* outputThread;
 1371              		.loc 2 188 5 is_stmt 1
 189:src/main.cpp  ****     thread_create(&outputThread, &TCB::outputThreadBody, nullptr);
 1372              		.loc 2 189 5
 1373              		.loc 2 189 18 is_stmt 0
 1374 0934 13060000 		li	a2,0
 1375 0938 97050000 		la	a1,_ZN3TCB16outputThreadBodyEPv
 1375      83B50500 
 1376 0940 130584FE 		addi	a0,s0,-24
 1377 0944 97000000 		call	_Z13thread_createPP3TCBPFvPvES2_@plt
 1377      E7800000 
 1378              	.LVL158:
 190:src/main.cpp  ****     Riscv::putCBuffer.itemAvailable = new _sem();
 1379              		.loc 2 190 5 is_stmt 1
 1380              		.loc 2 190 48 is_stmt 0
 1381 094c 13050002 		li	a0,32
 1382 0950 97000000 		call	_Znwm@plt
 1382      E7800000 
 1383              	.LVL159:
 1384              	.LBB60:
 1385              	.LBB61:
 1386              		.file 5 "src/../h/../h/_sem.h"
   1:src/../h/../h/_sem.h **** //
   2:src/../h/../h/_sem.h **** // Created by os on 9/7/22.
   3:src/../h/../h/_sem.h **** //
   4:src/../h/../h/_sem.h **** 
   5:src/../h/../h/_sem.h **** #ifndef PROJECT_BASE_V1_1__SEM_H
   6:src/../h/../h/_sem.h **** #define PROJECT_BASE_V1_1__SEM_H
   7:src/../h/../h/_sem.h **** 
   8:src/../h/../h/_sem.h **** #include "tcb.hpp"
   9:src/../h/../h/_sem.h **** 
  10:src/../h/../h/_sem.h **** class _sem
  11:src/../h/../h/_sem.h **** {
  12:src/../h/../h/_sem.h **** public:
  13:src/../h/../h/_sem.h ****     explicit _sem (int initValue=0) : closed(false), val(initValue) {
 1387              		.loc 5 13 67
 1388 0958 23000500 		sb	zero,0(a0)
 1389 095c 23220500 		sw	zero,4(a0)
 1390 0960 23240500 		sw	zero,8(a0)
 1391 0964 23260500 		sw	zero,12(a0)
 1392              	.LVL160:
 1393              	.LBB62:
 1394              	.LBB63:
 1395              		.file 6 "src/../h/list.hpp"
GAS LISTING /tmp/ccGNPDYB.s 			page 39


   1:src/../h/list.hpp **** //
   2:src/../h/list.hpp **** // Created by marko on 20.4.22..
   3:src/../h/list.hpp **** //
   4:src/../h/list.hpp **** 
   5:src/../h/list.hpp **** #ifndef OS1_VEZBE07_RISCV_CONTEXT_SWITCH_2_INTERRUPT_LIST_HPP
   6:src/../h/list.hpp **** #define OS1_VEZBE07_RISCV_CONTEXT_SWITCH_2_INTERRUPT_LIST_HPP
   7:src/../h/list.hpp **** 
   8:src/../h/list.hpp **** #include "../h/print.hpp"
   9:src/../h/list.hpp **** 
  10:src/../h/list.hpp **** template<typename T>
  11:src/../h/list.hpp **** class List
  12:src/../h/list.hpp **** {
  13:src/../h/list.hpp **** private:
  14:src/../h/list.hpp ****     struct Elem
  15:src/../h/list.hpp ****     {
  16:src/../h/list.hpp ****         T *data;
  17:src/../h/list.hpp ****         Elem *next;
  18:src/../h/list.hpp **** 
  19:src/../h/list.hpp ****         Elem(T *data, Elem *next) : data(data), next(next) {}
  20:src/../h/list.hpp ****     };
  21:src/../h/list.hpp **** 
  22:src/../h/list.hpp ****     Elem *head, *tail;
  23:src/../h/list.hpp **** 
  24:src/../h/list.hpp **** public:
  25:src/../h/list.hpp ****     List() : head(0), tail(0) {}
 1396              		.loc 6 25 29
 1397 0968 23380500 		sd	zero,16(a0)
 1398 096c 233C0500 		sd	zero,24(a0)
 1399              	.LVL161:
 1400              	.LBE63:
 1401              	.LBE62:
 1402              	.LBE61:
 1403              	.LBE60:
 1404              		.loc 2 190 37
 1405 0970 97070000 		la	a5,_ZN5Riscv10putCBufferE
 1405      83B70700 
 1406 0978 23B0A700 		sd	a0,0(a5)
 191:src/main.cpp  ****     Riscv::getCBuffer.itemAvailable = new _sem();
 1407              		.loc 2 191 5 is_stmt 1
 1408              		.loc 2 191 48 is_stmt 0
 1409 097c 13050002 		li	a0,32
 1410 0980 97000000 		call	_Znwm@plt
 1410      E7800000 
 1411              	.LVL162:
 1412              	.LBB64:
 1413              	.LBB65:
 1414              		.loc 5 13 67
 1415 0988 23000500 		sb	zero,0(a0)
 1416 098c 23220500 		sw	zero,4(a0)
 1417 0990 23240500 		sw	zero,8(a0)
 1418 0994 23260500 		sw	zero,12(a0)
 1419              	.LVL163:
 1420              	.LBB66:
 1421              	.LBB67:
 1422              		.loc 6 25 29
 1423 0998 23380500 		sd	zero,16(a0)
 1424 099c 233C0500 		sd	zero,24(a0)
GAS LISTING /tmp/ccGNPDYB.s 			page 40


 1425              	.LVL164:
 1426              	.LBE67:
 1427              	.LBE66:
 1428              	.LBE65:
 1429              	.LBE64:
 1430              		.loc 2 191 37
 1431 09a0 97070000 		la	a5,_ZN5Riscv10getCBufferE
 1431      83B70700 
 1432 09a8 23B0A700 		sd	a0,0(a5)
 192:src/main.cpp  **** 
 193:src/main.cpp  ****     TCB* main;
 1433              		.loc 2 193 5 is_stmt 1
 194:src/main.cpp  ****     sem_open(&sem,0);
 1434              		.loc 2 194 5
 1435              		.loc 2 194 13 is_stmt 0
 1436 09ac 93050000 		li	a1,0
 1437 09b0 17050000 		lla	a0,.LANCHOR0+8
 1437      13050500 
 1438 09b8 97000000 		call	_Z8sem_openPP4_semj@plt
 1438      E7800000 
 1439              	.LVL165:
 195:src/main.cpp  ****     thread_create(&main, nullptr, nullptr);
 1440              		.loc 2 195 5 is_stmt 1
 1441              		.loc 2 195 18 is_stmt 0
 1442 09c0 13060000 		li	a2,0
 1443 09c4 93050000 		li	a1,0
 1444 09c8 130504FE 		addi	a0,s0,-32
 1445 09cc 97000000 		call	_Z13thread_createPP3TCBPFvPvES2_@plt
 1445      E7800000 
 1446              	.LVL166:
 196:src/main.cpp  ****     TCB::running = main;
 1447              		.loc 2 196 5 is_stmt 1
 1448              		.loc 2 196 18 is_stmt 0
 1449 09d4 97070000 		la	a5,_ZN3TCB7runningE
 1449      83B70700 
 1450 09dc 033704FE 		ld	a4,-32(s0)
 1451 09e0 23B0E700 		sd	a4,0(a5)
 197:src/main.cpp  **** 
 198:src/main.cpp  ****     Riscv::ms_sstatus(Riscv::SSTATUS_SIE);
 1452              		.loc 2 198 5 is_stmt 1
 1453              	.LVL167:
 1454              	.LBB68:
 1455              	.LBB69:
 132:src/../h/riscv.hpp **** 
 133:src/../h/riscv.hpp **** inline uint64 Riscv::r_stval()
 134:src/../h/riscv.hpp **** {
 135:src/../h/riscv.hpp ****     uint64 volatile stval;
 136:src/../h/riscv.hpp ****     __asm__ volatile ("csrr %[stval], stval" : [stval] "=r"(stval));
 137:src/../h/riscv.hpp ****     return stval;
 138:src/../h/riscv.hpp **** }
 139:src/../h/riscv.hpp **** 
 140:src/../h/riscv.hpp **** inline void Riscv::w_stval(uint64 stval)
 141:src/../h/riscv.hpp **** {
 142:src/../h/riscv.hpp ****     __asm__ volatile ("csrw stval, %[stval]" : : [stval] "r"(stval));
 143:src/../h/riscv.hpp **** }
 144:src/../h/riscv.hpp **** 
 145:src/../h/riscv.hpp **** inline void Riscv::ms_sip(uint64 mask)
GAS LISTING /tmp/ccGNPDYB.s 			page 41


 146:src/../h/riscv.hpp **** {
 147:src/../h/riscv.hpp ****     __asm__ volatile ("csrs sip, %[mask]" : : [mask] "r"(mask));
 148:src/../h/riscv.hpp **** }
 149:src/../h/riscv.hpp **** 
 150:src/../h/riscv.hpp **** inline void Riscv::mc_sip(uint64 mask)
 151:src/../h/riscv.hpp **** {
 152:src/../h/riscv.hpp ****     __asm__ volatile ("csrc sip, %[mask]" : : [mask] "r"(mask));
 153:src/../h/riscv.hpp **** }
 154:src/../h/riscv.hpp **** 
 155:src/../h/riscv.hpp **** inline uint64 Riscv::r_sip()
 156:src/../h/riscv.hpp **** {
 157:src/../h/riscv.hpp ****     uint64 volatile sip;
 158:src/../h/riscv.hpp ****     __asm__ volatile ("csrr %[sip], sip" : [sip] "=r"(sip));
 159:src/../h/riscv.hpp ****     return sip;
 160:src/../h/riscv.hpp **** }
 161:src/../h/riscv.hpp **** 
 162:src/../h/riscv.hpp **** inline void Riscv::w_sip(uint64 sip)
 163:src/../h/riscv.hpp **** {
 164:src/../h/riscv.hpp ****     __asm__ volatile ("csrw sip, %[sip]" : : [sip] "r"(sip));
 165:src/../h/riscv.hpp **** }
 166:src/../h/riscv.hpp **** 
 167:src/../h/riscv.hpp **** inline void Riscv::ms_sstatus(uint64 mask)
 168:src/../h/riscv.hpp **** {
 169:src/../h/riscv.hpp ****     __asm__ volatile ("csrs sstatus, %[mask]" : : [mask] "r"(mask));
 1456              		.loc 4 169 5
 1457              		.loc 4 169 68 is_stmt 0
 1458 09e4 93072000 		li	a5,2
 1459              	#APP
 1460              	# 169 "src/../h/riscv.hpp" 1
 170              	}
 1461              		csrs sstatus, a5
 1462              	# 0 "" 2
 1463              	.LVL168:
 1464              	#NO_APP
 1465              	.LBE69:
 1466              	.LBE68:
 199:src/main.cpp  **** 
 200:src/main.cpp  ****     userMain();
 1467              		.loc 2 200 5 is_stmt 1
 1468              		.loc 2 200 13 is_stmt 0
 1469 09ec 97000000 		call	_Z8userMainv
 1469      E7800000 
 1470              	.LVL169:
 201:src/main.cpp  **** 
 202:src/main.cpp  **** 
 203:src/main.cpp  ****     printString("Finished\n");
 1471              		.loc 2 203 5 is_stmt 1
 1472              		.loc 2 203 16 is_stmt 0
 1473 09f4 17050000 		lla	a0,.LC23
 1473      13050500 
 1474 09fc 97000000 		call	_Z11printStringPKc@plt
 1474      E7800000 
 1475              	.LVL170:
 204:src/main.cpp  ****     return 0;
 1476              		.loc 2 204 5 is_stmt 1
 205:src/main.cpp  **** 
 206:src/main.cpp  **** 
GAS LISTING /tmp/ccGNPDYB.s 			page 42


 207:src/main.cpp  **** //    Riscv::w_stvec((uint64) &Riscv::supervisorTrap);
 208:src/main.cpp  **** //    TCB *threads[5];
 209:src/main.cpp  **** //
 210:src/main.cpp  **** //    thread_create(&threads[0], nullptr, nullptr);
 211:src/main.cpp  **** //    TCB::running = threads[0];
 212:src/main.cpp  **** //    printString("Adresa koja je u threads[0] (handle) :   ");
 213:src/main.cpp  **** //    printInteger((uint64)&(*(threads[0])));
 214:src/main.cpp  **** //    printString("\n");
 215:src/main.cpp  **** //
 216:src/main.cpp  **** //    thread_create(&threads[1], workerBodyA, nullptr);
 217:src/main.cpp  **** //    printString("Adresa koja je u threads[1] (handle) :   ");
 218:src/main.cpp  **** //    printInteger((uint64)&(*(threads[1])));
 219:src/main.cpp  **** //    printString("\n");
 220:src/main.cpp  **** //    printString("ThreadA created\n");
 221:src/main.cpp  **** //
 222:src/main.cpp  **** //    thread_create(&threads[2], workerBodyB, nullptr);
 223:src/main.cpp  **** //    printString("Adresa koja je u threads[2] (handle) :   ");
 224:src/main.cpp  **** //    printInteger((uint64)&(*(threads[2])));
 225:src/main.cpp  **** //    printString("\n");
 226:src/main.cpp  **** //    printString("ThreadB created\n");
 227:src/main.cpp  **** //
 228:src/main.cpp  **** //    thread_create(&threads[3], workerBodyC, nullptr);
 229:src/main.cpp  **** //    printString("Adresa koja je u threads[3] (handle) :   ");
 230:src/main.cpp  **** //    printInteger((uint64)&(*(threads[3])));
 231:src/main.cpp  **** //    printString("\n");
 232:src/main.cpp  **** //    printString("ThreadC created\n");
 233:src/main.cpp  **** //
 234:src/main.cpp  **** //    thread_create(&threads[4], workerBodyD, nullptr);
 235:src/main.cpp  **** //    printString("Adresa koja je u threads[4] (handle) :   ");
 236:src/main.cpp  **** //    printInteger((uint64)&(*(threads[4])));
 237:src/main.cpp  **** //    printString("\n");
 238:src/main.cpp  **** //    printString("ThreadD created\n");
 239:src/main.cpp  **** //
 240:src/main.cpp  **** //    userMain();
 241:src/main.cpp  **** //    Riscv::ms_sstatus(Riscv::SSTATUS_SIE);
 242:src/main.cpp  **** //
 243:src/main.cpp  **** //    while (!(threads[1]->isFinished() &&
 244:src/main.cpp  **** //             threads[2]->isFinished() &&
 245:src/main.cpp  **** //             threads[3]->isFinished() &&
 246:src/main.cpp  **** //             threads[4]->isFinished()))
 247:src/main.cpp  **** //    {
 248:src/main.cpp  **** //        TCB::yield();
 249:src/main.cpp  **** //    }
 250:src/main.cpp  **** //
 251:src/main.cpp  **** //    for (auto &thread: threads)
 252:src/main.cpp  **** //    {
 253:src/main.cpp  **** //        delete thread;
 254:src/main.cpp  **** //    }
 255:src/main.cpp  **** //    printString("Finished\n");
 256:src/main.cpp  **** //
 257:src/main.cpp  **** //    return 0;
 258:src/main.cpp  **** 
 259:src/main.cpp  **** }
 1477              		.loc 2 259 1 is_stmt 0
 1478 0a04 13050000 		li	a0,0
 1479 0a08 83308101 		ld	ra,24(sp)
 1480              		.cfi_restore 1
GAS LISTING /tmp/ccGNPDYB.s 			page 43


 1481 0a0c 03340101 		ld	s0,16(sp)
 1482              		.cfi_restore 8
 1483              		.cfi_def_cfa 2, 32
 1484 0a10 13010102 		addi	sp,sp,32
 1485              		.cfi_def_cfa_offset 0
 1486 0a14 67800000 		jr	ra
 1487              		.cfi_endproc
 1488              	.LFE68:
 1490              		.globl	sem
 1491              		.globl	finishedTastatura
 1492              		.globl	finishedD
 1493              		.globl	finishedC
 1494              		.globl	finishedB
 1495              		.globl	finishedA
 1496              		.globl	finished
 1497              		.bss
 1498              		.align	3
 1499              		.set	.LANCHOR0,. + 0
 1502              	finished:
 1503 0000 0000     		.zero	2
 1506              	finishedA:
 1507 0002 00       		.zero	1
 1510              	finishedTastatura:
 1511 0003 00       		.zero	1
 1512 0004 00000000 		.zero	4
 1515              	sem:
 1516 0008 00000000 		.zero	8
 1516      00000000 
 1519              	finishedB:
 1520 0010 00       		.zero	1
 1523              	finishedC:
 1524 0011 00       		.zero	1
 1527              	finishedD:
 1528 0012 00       		.zero	1
 1529              		.text
 1530              	.Letext0:
 1531              		.file 7 "src/../h/../lib/hw.h"
 1532              		.file 8 "src/../h/tcb.hpp"
 1533              		.file 9 "src/../h/../h/syscall_c.h"
 1534              		.file 10 "src/../h/../h/sleepingThreadsList.h"
 1535              		.file 11 "src/../h/../h/print.hpp"
GAS LISTING /tmp/ccGNPDYB.s 			page 44


DEFINED SYMBOLS
                            *ABS*:0000000000000000 main.cpp
     /tmp/ccGNPDYB.s:17     .text:0000000000000000 _Z9sleepyRunPv
     /tmp/ccGNPDYB.s:21     .text:0000000000000000 .L0 
     /tmp/ccGNPDYB.s:23     .text:0000000000000000 .L0 
     /tmp/ccGNPDYB.s:24     .text:0000000000000004 .L0 
     /tmp/ccGNPDYB.s:29     .text:0000000000000014 .L0 
     /tmp/ccGNPDYB.s:30     .text:0000000000000014 .L0 
     /tmp/ccGNPDYB.s:31     .text:0000000000000014 .L0 
     /tmp/ccGNPDYB.s:32     .text:0000000000000014 .L0 
     /tmp/ccGNPDYB.s:34     .text:0000000000000018 .L0 
     /tmp/ccGNPDYB.s:36     .text:0000000000000018 .L0 
     /tmp/ccGNPDYB.s:37     .text:0000000000000018 .L0 
     /tmp/ccGNPDYB.s:40     .text:000000000000001c .L0 
     /tmp/ccGNPDYB.s:41     .text:000000000000001c .L0 
     /tmp/ccGNPDYB.s:45     .text:0000000000000020 .L0 
     /tmp/ccGNPDYB.s:46     .text:0000000000000020 .L0 
     /tmp/ccGNPDYB.s:50     .text:0000000000000028 .L0 
     /tmp/ccGNPDYB.s:51     .text:0000000000000028 .L0 
     /tmp/ccGNPDYB.s:55     .text:0000000000000038 .L0 
     /tmp/ccGNPDYB.s:56     .text:0000000000000038 .L0 
     /tmp/ccGNPDYB.s:60     .text:0000000000000044 .L0 
     /tmp/ccGNPDYB.s:61     .text:0000000000000044 .L0 
     /tmp/ccGNPDYB.s:65     .text:0000000000000054 .L0 
     /tmp/ccGNPDYB.s:66     .text:0000000000000054 .L0 
     /tmp/ccGNPDYB.s:70     .text:0000000000000060 .L0 
     /tmp/ccGNPDYB.s:73     .text:0000000000000064 .L0 
     /tmp/ccGNPDYB.s:74     .text:0000000000000064 .L0 
     /tmp/ccGNPDYB.s:78     .text:000000000000006c .L0 
     /tmp/ccGNPDYB.s:80     .text:0000000000000070 .L0 
     /tmp/ccGNPDYB.s:85     .text:0000000000000084 .L0 
     /tmp/ccGNPDYB.s:86     .text:0000000000000088 .L0 
     /tmp/ccGNPDYB.s:88     .text:000000000000008c .L0 
     /tmp/ccGNPDYB.s:89     .text:000000000000008c .L0 
     /tmp/ccGNPDYB.s:91     .text:0000000000000090 .L0 
     /tmp/ccGNPDYB.s:93     .text:0000000000000094 .L0 
     /tmp/ccGNPDYB.s:95     .text:0000000000000098 .L0 
     /tmp/ccGNPDYB.s:97     .text:000000000000009c .L0 
     /tmp/ccGNPDYB.s:114    .text:000000000000009c _Z12workerBodyA2Pv
     /tmp/ccGNPDYB.s:118    .text:000000000000009c .L0 
     /tmp/ccGNPDYB.s:120    .text:000000000000009c .L0 
     /tmp/ccGNPDYB.s:121    .text:00000000000000a0 .L0 
     /tmp/ccGNPDYB.s:126    .text:00000000000000b0 .L0 
     /tmp/ccGNPDYB.s:127    .text:00000000000000b0 .L0 
     /tmp/ccGNPDYB.s:128    .text:00000000000000b0 .L0 
     /tmp/ccGNPDYB.s:129    .text:00000000000000b0 .L0 
     /tmp/ccGNPDYB.s:131    .text:00000000000000b4 .L0 
     /tmp/ccGNPDYB.s:135    .text:00000000000000b4 .L0 
     /tmp/ccGNPDYB.s:136    .text:00000000000000b4 .L0 
     /tmp/ccGNPDYB.s:144    .text:00000000000000bc .L0 
     /tmp/ccGNPDYB.s:145    .text:00000000000000bc .L0 
     /tmp/ccGNPDYB.s:149    .text:00000000000000c4 .L0 
     /tmp/ccGNPDYB.s:153    .text:00000000000000c8 .L0 
     /tmp/ccGNPDYB.s:159    .text:00000000000000d4 .L0 
     /tmp/ccGNPDYB.s:163    .text:00000000000000d8 .L0 
     /tmp/ccGNPDYB.s:167    .text:00000000000000e4 .L0 
     /tmp/ccGNPDYB.s:177    .text:00000000000000ec .L0 
GAS LISTING /tmp/ccGNPDYB.s 			page 45


     /tmp/ccGNPDYB.s:181    .text:00000000000000f0 .L0 
     /tmp/ccGNPDYB.s:185    .text:00000000000000f8 .L0 
     /tmp/ccGNPDYB.s:186    .text:00000000000000f8 .L0 
     /tmp/ccGNPDYB.s:190    .text:0000000000000108 .L0 
     /tmp/ccGNPDYB.s:191    .text:0000000000000108 .L0 
     /tmp/ccGNPDYB.s:195    .text:0000000000000114 .L0 
     /tmp/ccGNPDYB.s:196    .text:0000000000000114 .L0 
     /tmp/ccGNPDYB.s:201    .text:0000000000000124 .L0 
     /tmp/ccGNPDYB.s:202    .text:0000000000000124 .L0 
     /tmp/ccGNPDYB.s:210    .text:000000000000012c .L0 
     /tmp/ccGNPDYB.s:211    .text:000000000000012c .L0 
     /tmp/ccGNPDYB.s:214    .text:0000000000000134 .L0 
     /tmp/ccGNPDYB.s:216    .text:0000000000000138 .L0 
     /tmp/ccGNPDYB.s:217    .text:0000000000000138 .L0 
     /tmp/ccGNPDYB.s:220    .text:0000000000000140 .L0 
     /tmp/ccGNPDYB.s:222    .text:0000000000000144 .L0 
     /tmp/ccGNPDYB.s:223    .text:0000000000000144 .L0 
     /tmp/ccGNPDYB.s:228    .text:0000000000000154 .L0 
     /tmp/ccGNPDYB.s:229    .text:0000000000000154 .L0 
     /tmp/ccGNPDYB.s:234    .text:0000000000000164 .L0 
     /tmp/ccGNPDYB.s:235    .text:0000000000000164 .L0 
     /tmp/ccGNPDYB.s:239    .text:0000000000000174 .L0 
     /tmp/ccGNPDYB.s:240    .text:0000000000000174 .L0 
     /tmp/ccGNPDYB.s:243    .text:0000000000000180 .L0 
     /tmp/ccGNPDYB.s:244    .text:0000000000000184 .L0 
     /tmp/ccGNPDYB.s:246    .text:0000000000000188 .L0 
     /tmp/ccGNPDYB.s:247    .text:0000000000000188 .L0 
     /tmp/ccGNPDYB.s:249    .text:000000000000018c .L0 
     /tmp/ccGNPDYB.s:251    .text:0000000000000190 .L0 
     /tmp/ccGNPDYB.s:254    .text:0000000000000194 .L0 
     /tmp/ccGNPDYB.s:256    .text:0000000000000198 .L0 
     /tmp/ccGNPDYB.s:270    .text:0000000000000198 _Z15TastaturaWorkerPv
     /tmp/ccGNPDYB.s:273    .text:0000000000000198 .L0 
     /tmp/ccGNPDYB.s:275    .text:0000000000000198 .L0 
     /tmp/ccGNPDYB.s:276    .text:000000000000019c .L0 
     /tmp/ccGNPDYB.s:281    .text:00000000000001ac .L0 
     /tmp/ccGNPDYB.s:282    .text:00000000000001ac .L0 
     /tmp/ccGNPDYB.s:283    .text:00000000000001ac .L0 
     /tmp/ccGNPDYB.s:284    .text:00000000000001ac .L0 
     /tmp/ccGNPDYB.s:286    .text:00000000000001b0 .L0 
     /tmp/ccGNPDYB.s:290    .text:00000000000001b0 .L0 
     /tmp/ccGNPDYB.s:291    .text:00000000000001b0 .L0 
     /tmp/ccGNPDYB.s:297    .text:00000000000001b8 .L0 
     /tmp/ccGNPDYB.s:298    .text:00000000000001b8 .L0 
     /tmp/ccGNPDYB.s:307    .text:00000000000001c8 .L0 
     /tmp/ccGNPDYB.s:308    .text:00000000000001c8 .L0 
     /tmp/ccGNPDYB.s:312    .text:00000000000001d0 .L0 
     /tmp/ccGNPDYB.s:316    .text:00000000000001d4 .L0 
     /tmp/ccGNPDYB.s:322    .text:00000000000001e0 .L0 
     /tmp/ccGNPDYB.s:326    .text:00000000000001e4 .L0 
     /tmp/ccGNPDYB.s:330    .text:00000000000001f0 .L0 
     /tmp/ccGNPDYB.s:340    .text:00000000000001f8 .L0 
     /tmp/ccGNPDYB.s:344    .text:00000000000001fc .L0 
     /tmp/ccGNPDYB.s:348    .text:0000000000000204 .L0 
     /tmp/ccGNPDYB.s:349    .text:0000000000000204 .L0 
     /tmp/ccGNPDYB.s:353    .text:000000000000020c .L0 
     /tmp/ccGNPDYB.s:354    .text:000000000000020c .L0 
GAS LISTING /tmp/ccGNPDYB.s 			page 46


     /tmp/ccGNPDYB.s:358    .text:000000000000021c .L0 
     /tmp/ccGNPDYB.s:359    .text:000000000000021c .L0 
     /tmp/ccGNPDYB.s:363    .text:0000000000000228 .L0 
     /tmp/ccGNPDYB.s:364    .text:0000000000000228 .L0 
     /tmp/ccGNPDYB.s:369    .text:0000000000000238 .L0 
     /tmp/ccGNPDYB.s:370    .text:0000000000000238 .L0 
     /tmp/ccGNPDYB.s:378    .text:0000000000000240 .L0 
     /tmp/ccGNPDYB.s:382    .text:0000000000000240 .L0 
     /tmp/ccGNPDYB.s:383    .text:0000000000000240 .L0 
     /tmp/ccGNPDYB.s:384    .text:0000000000000240 .L0 
     /tmp/ccGNPDYB.s:390    .text:000000000000024c .L0 
     /tmp/ccGNPDYB.s:393    .text:0000000000000250 .L0 
     /tmp/ccGNPDYB.s:394    .text:0000000000000250 .L0 
     /tmp/ccGNPDYB.s:397    .text:0000000000000258 .L0 
     /tmp/ccGNPDYB.s:398    .text:0000000000000258 .L0 
     /tmp/ccGNPDYB.s:402    .text:0000000000000260 .L0 
     /tmp/ccGNPDYB.s:405    .text:0000000000000264 .L0 
     /tmp/ccGNPDYB.s:406    .text:0000000000000264 .L0 
     /tmp/ccGNPDYB.s:410    .text:0000000000000274 .L0 
     /tmp/ccGNPDYB.s:411    .text:0000000000000274 .L0 
     /tmp/ccGNPDYB.s:414    .text:0000000000000280 .L0 
     /tmp/ccGNPDYB.s:415    .text:0000000000000280 .L0 
     /tmp/ccGNPDYB.s:418    .text:0000000000000288 .L0 
     /tmp/ccGNPDYB.s:419    .text:000000000000028c .L0 
     /tmp/ccGNPDYB.s:421    .text:0000000000000290 .L0 
     /tmp/ccGNPDYB.s:422    .text:0000000000000290 .L0 
     /tmp/ccGNPDYB.s:424    .text:0000000000000294 .L0 
     /tmp/ccGNPDYB.s:426    .text:0000000000000298 .L0 
     /tmp/ccGNPDYB.s:429    .text:000000000000029c .L0 
     /tmp/ccGNPDYB.s:431    .text:00000000000002a0 .L0 
     /tmp/ccGNPDYB.s:445    .text:00000000000002a0 _Z12workerBodyB2Pv
     /tmp/ccGNPDYB.s:448    .text:00000000000002a0 .L0 
     /tmp/ccGNPDYB.s:450    .text:00000000000002a0 .L0 
     /tmp/ccGNPDYB.s:451    .text:00000000000002a4 .L0 
     /tmp/ccGNPDYB.s:456    .text:00000000000002b4 .L0 
     /tmp/ccGNPDYB.s:457    .text:00000000000002b4 .L0 
     /tmp/ccGNPDYB.s:458    .text:00000000000002b4 .L0 
     /tmp/ccGNPDYB.s:459    .text:00000000000002b4 .L0 
     /tmp/ccGNPDYB.s:461    .text:00000000000002b8 .L0 
     /tmp/ccGNPDYB.s:465    .text:00000000000002b8 .L0 
     /tmp/ccGNPDYB.s:466    .text:00000000000002b8 .L0 
     /tmp/ccGNPDYB.s:472    .text:00000000000002c0 .L0 
     /tmp/ccGNPDYB.s:473    .text:00000000000002c0 .L0 
     /tmp/ccGNPDYB.s:479    .text:00000000000002d4 .L0 
     /tmp/ccGNPDYB.s:480    .text:00000000000002d4 .L0 
     /tmp/ccGNPDYB.s:484    .text:00000000000002e0 .L0 
     /tmp/ccGNPDYB.s:485    .text:00000000000002e0 .L0 
     /tmp/ccGNPDYB.s:494    .text:00000000000002f4 .L0 
     /tmp/ccGNPDYB.s:495    .text:00000000000002f4 .L0 
     /tmp/ccGNPDYB.s:499    .text:00000000000002fc .L0 
     /tmp/ccGNPDYB.s:503    .text:0000000000000300 .L0 
     /tmp/ccGNPDYB.s:509    .text:000000000000030c .L0 
     /tmp/ccGNPDYB.s:513    .text:0000000000000310 .L0 
     /tmp/ccGNPDYB.s:517    .text:000000000000031c .L0 
     /tmp/ccGNPDYB.s:527    .text:0000000000000324 .L0 
     /tmp/ccGNPDYB.s:531    .text:0000000000000328 .L0 
     /tmp/ccGNPDYB.s:535    .text:0000000000000330 .L0 
GAS LISTING /tmp/ccGNPDYB.s 			page 47


     /tmp/ccGNPDYB.s:538    .text:0000000000000334 .L0 
     /tmp/ccGNPDYB.s:542    .text:000000000000033c .L0 
     /tmp/ccGNPDYB.s:543    .text:000000000000033c .L0 
     /tmp/ccGNPDYB.s:547    .text:000000000000034c .L0 
     /tmp/ccGNPDYB.s:548    .text:000000000000034c .L0 
     /tmp/ccGNPDYB.s:552    .text:0000000000000358 .L0 
     /tmp/ccGNPDYB.s:553    .text:0000000000000358 .L0 
     /tmp/ccGNPDYB.s:558    .text:0000000000000368 .L0 
     /tmp/ccGNPDYB.s:559    .text:0000000000000368 .L0 
     /tmp/ccGNPDYB.s:567    .text:0000000000000370 .L0 
     /tmp/ccGNPDYB.s:568    .text:0000000000000370 .L0 
     /tmp/ccGNPDYB.s:572    .text:0000000000000380 .L0 
     /tmp/ccGNPDYB.s:573    .text:0000000000000380 .L0 
     /tmp/ccGNPDYB.s:576    .text:000000000000038c .L0 
     /tmp/ccGNPDYB.s:577    .text:000000000000038c .L0 
     /tmp/ccGNPDYB.s:580    .text:0000000000000394 .L0 
     /tmp/ccGNPDYB.s:581    .text:0000000000000398 .L0 
     /tmp/ccGNPDYB.s:583    .text:000000000000039c .L0 
     /tmp/ccGNPDYB.s:584    .text:000000000000039c .L0 
     /tmp/ccGNPDYB.s:586    .text:00000000000003a0 .L0 
     /tmp/ccGNPDYB.s:588    .text:00000000000003a4 .L0 
     /tmp/ccGNPDYB.s:591    .text:00000000000003a8 .L0 
     /tmp/ccGNPDYB.s:593    .text:00000000000003ac .L0 
     /tmp/ccGNPDYB.s:599    .text:00000000000003ac _Z12testSleepingv
     /tmp/ccGNPDYB.s:602    .text:00000000000003ac .L0 
     /tmp/ccGNPDYB.s:603    .text:00000000000003ac .L0 
     /tmp/ccGNPDYB.s:604    .text:00000000000003b0 .L0 
     /tmp/ccGNPDYB.s:608    .text:00000000000003bc .L0 
     /tmp/ccGNPDYB.s:609    .text:00000000000003bc .L0 
     /tmp/ccGNPDYB.s:610    .text:00000000000003bc .L0 
     /tmp/ccGNPDYB.s:612    .text:00000000000003c0 .L0 
     /tmp/ccGNPDYB.s:615    .text:00000000000003c0 .L0 
     /tmp/ccGNPDYB.s:616    .text:00000000000003c0 .L0 
     /tmp/ccGNPDYB.s:617    .text:00000000000003c0 .L0 
     /tmp/ccGNPDYB.s:622    .text:00000000000003d0 .L0 
     /tmp/ccGNPDYB.s:625    .text:00000000000003d0 .L0 
     /tmp/ccGNPDYB.s:626    .text:00000000000003d0 .L0 
     /tmp/ccGNPDYB.s:631    .text:00000000000003d8 .L0 
     /tmp/ccGNPDYB.s:632    .text:00000000000003d8 .L0 
     /tmp/ccGNPDYB.s:633    .text:00000000000003d8 .L0 
     /tmp/ccGNPDYB.s:635    .text:00000000000003dc .L0 
     /tmp/ccGNPDYB.s:643    .text:00000000000003fc .L0 
     /tmp/ccGNPDYB.s:647    .text:0000000000000400 .L0 
     /tmp/ccGNPDYB.s:652    .text:0000000000000408 .L0 
     /tmp/ccGNPDYB.s:653    .text:0000000000000408 .L0 
     /tmp/ccGNPDYB.s:654    .text:0000000000000408 .L0 
     /tmp/ccGNPDYB.s:656    .text:0000000000000410 .L0 
     /tmp/ccGNPDYB.s:658    .text:0000000000000414 .L0 
     /tmp/ccGNPDYB.s:660    .text:000000000000041c .L0 
     /tmp/ccGNPDYB.s:662    .text:0000000000000420 .L0 
     /tmp/ccGNPDYB.s:663    .text:0000000000000424 .L0 
     /tmp/ccGNPDYB.s:665    .text:0000000000000428 .L0 
     /tmp/ccGNPDYB.s:666    .text:0000000000000428 .L0 
     /tmp/ccGNPDYB.s:668    .text:000000000000042c .L0 
     /tmp/ccGNPDYB.s:671    .text:0000000000000430 .L0 
     /tmp/ccGNPDYB.s:673    .text:0000000000000434 .L0 
     /tmp/ccGNPDYB.s:679    .text:0000000000000434 _Z9fibonaccim
GAS LISTING /tmp/ccGNPDYB.s 			page 48


     /tmp/ccGNPDYB.s:682    .text:0000000000000434 .L0 
     /tmp/ccGNPDYB.s:684    .text:0000000000000434 .L0 
     /tmp/ccGNPDYB.s:685    .text:0000000000000438 .L0 
     /tmp/ccGNPDYB.s:690    .text:0000000000000448 .L0 
     /tmp/ccGNPDYB.s:691    .text:0000000000000448 .L0 
     /tmp/ccGNPDYB.s:692    .text:0000000000000448 .L0 
     /tmp/ccGNPDYB.s:693    .text:0000000000000448 .L0 
     /tmp/ccGNPDYB.s:695    .text:000000000000044c .L0 
     /tmp/ccGNPDYB.s:698    .text:0000000000000450 .L0 
     /tmp/ccGNPDYB.s:701    .text:0000000000000458 .L0 
     /tmp/ccGNPDYB.s:702    .text:0000000000000458 .L0 
     /tmp/ccGNPDYB.s:705    .text:0000000000000460 .L0 
     /tmp/ccGNPDYB.s:709    .text:0000000000000464 .L0 
     /tmp/ccGNPDYB.s:710    .text:0000000000000464 .L0 
     /tmp/ccGNPDYB.s:715    .text:0000000000000474 .L0 
     /tmp/ccGNPDYB.s:719    .text:0000000000000480 .L0 
     /tmp/ccGNPDYB.s:722    .text:0000000000000484 .L0 
     /tmp/ccGNPDYB.s:723    .text:0000000000000488 .L0 
     /tmp/ccGNPDYB.s:724    .text:0000000000000488 .L0 
     /tmp/ccGNPDYB.s:726    .text:000000000000048c .L0 
     /tmp/ccGNPDYB.s:727    .text:000000000000048c .L0 
     /tmp/ccGNPDYB.s:729    .text:0000000000000490 .L0 
     /tmp/ccGNPDYB.s:732    .text:0000000000000494 .L0 
     /tmp/ccGNPDYB.s:734    .text:0000000000000498 .L0 
     /tmp/ccGNPDYB.s:738    .text:000000000000049c .L0 
     /tmp/ccGNPDYB.s:740    .text:000000000000049c .L0 
     /tmp/ccGNPDYB.s:741    .text:000000000000049c .L0 
     /tmp/ccGNPDYB.s:744    .text:00000000000004a8 .L0 
     /tmp/ccGNPDYB.s:767    .text:00000000000004a8 _Z12workerBodyC2Pv
     /tmp/ccGNPDYB.s:770    .text:00000000000004a8 .L0 
     /tmp/ccGNPDYB.s:772    .text:00000000000004a8 .L0 
     /tmp/ccGNPDYB.s:773    .text:00000000000004ac .L0 
     /tmp/ccGNPDYB.s:778    .text:00000000000004bc .L0 
     /tmp/ccGNPDYB.s:779    .text:00000000000004bc .L0 
     /tmp/ccGNPDYB.s:780    .text:00000000000004bc .L0 
     /tmp/ccGNPDYB.s:781    .text:00000000000004bc .L0 
     /tmp/ccGNPDYB.s:783    .text:00000000000004c0 .L0 
     /tmp/ccGNPDYB.s:786    .text:00000000000004c0 .L0 
     /tmp/ccGNPDYB.s:787    .text:00000000000004c0 .L0 
     /tmp/ccGNPDYB.s:792    .text:00000000000004c8 .L0 
     /tmp/ccGNPDYB.s:793    .text:00000000000004c8 .L0 
     /tmp/ccGNPDYB.s:797    .text:00000000000004d8 .L0 
     /tmp/ccGNPDYB.s:798    .text:00000000000004d8 .L0 
     /tmp/ccGNPDYB.s:802    .text:00000000000004e4 .L0 
     /tmp/ccGNPDYB.s:803    .text:00000000000004e4 .L0 
     /tmp/ccGNPDYB.s:807    .text:00000000000004f4 .L0 
     /tmp/ccGNPDYB.s:813    .text:00000000000004fc .L0 
     /tmp/ccGNPDYB.s:814    .text:00000000000004fc .L0 
     /tmp/ccGNPDYB.s:817    .text:0000000000000504 .L0 
     /tmp/ccGNPDYB.s:818    .text:0000000000000504 .L0 
     /tmp/ccGNPDYB.s:822    .text:0000000000000514 .L0 
     /tmp/ccGNPDYB.s:823    .text:0000000000000514 .L0 
     /tmp/ccGNPDYB.s:827    .text:0000000000000524 .L0 
        src/main.cpp:73     .text:0000000000000524 .L0 
     /tmp/ccGNPDYB.s:833    .text:0000000000000528 .L0 
     /tmp/ccGNPDYB.s:835    .text:0000000000000528 .L0 
     /tmp/ccGNPDYB.s:838    .text:0000000000000530 .L0 
GAS LISTING /tmp/ccGNPDYB.s 			page 49


     /tmp/ccGNPDYB.s:839    .text:0000000000000530 .L0 
        src/main.cpp:77     .text:0000000000000530 .L0 
     /tmp/ccGNPDYB.s:846    .text:0000000000000534 .L0 
     /tmp/ccGNPDYB.s:848    .text:0000000000000534 .L0 
     /tmp/ccGNPDYB.s:852    .text:0000000000000544 .L0 
     /tmp/ccGNPDYB.s:853    .text:0000000000000544 .L0 
     /tmp/ccGNPDYB.s:857    .text:0000000000000550 .L0 
     /tmp/ccGNPDYB.s:858    .text:0000000000000550 .L0 
     /tmp/ccGNPDYB.s:862    .text:0000000000000560 .L0 
     /tmp/ccGNPDYB.s:863    .text:0000000000000560 .L0 
     /tmp/ccGNPDYB.s:869    .text:0000000000000570 .L0 
     /tmp/ccGNPDYB.s:870    .text:0000000000000570 .L0 
     /tmp/ccGNPDYB.s:875    .text:0000000000000580 .L0 
     /tmp/ccGNPDYB.s:876    .text:0000000000000580 .L0 
     /tmp/ccGNPDYB.s:880    .text:000000000000058c .L0 
     /tmp/ccGNPDYB.s:881    .text:000000000000058c .L0 
     /tmp/ccGNPDYB.s:885    .text:000000000000059c .L0 
     /tmp/ccGNPDYB.s:886    .text:000000000000059c .L0 
     /tmp/ccGNPDYB.s:892    .text:00000000000005ac .L0 
     /tmp/ccGNPDYB.s:893    .text:00000000000005ac .L0 
     /tmp/ccGNPDYB.s:897    .text:00000000000005bc .L0 
     /tmp/ccGNPDYB.s:898    .text:00000000000005bc .L0 
     /tmp/ccGNPDYB.s:902    .text:00000000000005c8 .L0 
     /tmp/ccGNPDYB.s:903    .text:00000000000005c8 .L0 
     /tmp/ccGNPDYB.s:907    .text:00000000000005d8 .L0 
     /tmp/ccGNPDYB.s:913    .text:00000000000005e0 .L0 
     /tmp/ccGNPDYB.s:914    .text:00000000000005e0 .L0 
     /tmp/ccGNPDYB.s:917    .text:00000000000005e8 .L0 
     /tmp/ccGNPDYB.s:918    .text:00000000000005e8 .L0 
     /tmp/ccGNPDYB.s:922    .text:00000000000005f8 .L0 
     /tmp/ccGNPDYB.s:923    .text:00000000000005f8 .L0 
     /tmp/ccGNPDYB.s:926    .text:0000000000000604 .L0 
     /tmp/ccGNPDYB.s:927    .text:0000000000000604 .L0 
     /tmp/ccGNPDYB.s:930    .text:000000000000060c .L0 
     /tmp/ccGNPDYB.s:931    .text:0000000000000610 .L0 
     /tmp/ccGNPDYB.s:933    .text:0000000000000614 .L0 
     /tmp/ccGNPDYB.s:934    .text:0000000000000614 .L0 
     /tmp/ccGNPDYB.s:936    .text:0000000000000618 .L0 
     /tmp/ccGNPDYB.s:939    .text:000000000000061c .L0 
     /tmp/ccGNPDYB.s:942    .text:0000000000000620 .L0 
     /tmp/ccGNPDYB.s:944    .text:0000000000000624 .L0 
     /tmp/ccGNPDYB.s:964    .text:0000000000000624 _Z12workerBodyD2Pv
     /tmp/ccGNPDYB.s:967    .text:0000000000000624 .L0 
     /tmp/ccGNPDYB.s:969    .text:0000000000000624 .L0 
     /tmp/ccGNPDYB.s:970    .text:0000000000000628 .L0 
     /tmp/ccGNPDYB.s:975    .text:0000000000000638 .L0 
     /tmp/ccGNPDYB.s:976    .text:0000000000000638 .L0 
     /tmp/ccGNPDYB.s:977    .text:0000000000000638 .L0 
     /tmp/ccGNPDYB.s:978    .text:0000000000000638 .L0 
     /tmp/ccGNPDYB.s:980    .text:000000000000063c .L0 
     /tmp/ccGNPDYB.s:983    .text:000000000000063c .L0 
     /tmp/ccGNPDYB.s:984    .text:000000000000063c .L0 
     /tmp/ccGNPDYB.s:985    .text:000000000000063c .L0 
     /tmp/ccGNPDYB.s:990    .text:0000000000000648 .L0 
     /tmp/ccGNPDYB.s:991    .text:0000000000000648 .L0 
     /tmp/ccGNPDYB.s:995    .text:0000000000000654 .L0 
     /tmp/ccGNPDYB.s:996    .text:0000000000000654 .L0 
GAS LISTING /tmp/ccGNPDYB.s 			page 50


     /tmp/ccGNPDYB.s:1000   .text:0000000000000660 .L0 
     /tmp/ccGNPDYB.s:1005   .text:0000000000000668 .L0 
     /tmp/ccGNPDYB.s:1006   .text:0000000000000668 .L0 
     /tmp/ccGNPDYB.s:1011   .text:0000000000000678 .L0 
     /tmp/ccGNPDYB.s:1017   .text:0000000000000680 .L0 
     /tmp/ccGNPDYB.s:1018   .text:0000000000000680 .L0 
     /tmp/ccGNPDYB.s:1021   .text:0000000000000688 .L0 
     /tmp/ccGNPDYB.s:1022   .text:0000000000000688 .L0 
     /tmp/ccGNPDYB.s:1026   .text:0000000000000698 .L0 
     /tmp/ccGNPDYB.s:1027   .text:0000000000000698 .L0 
     /tmp/ccGNPDYB.s:1031   .text:00000000000006a4 .L0 
     /tmp/ccGNPDYB.s:1032   .text:00000000000006a4 .L0 
     /tmp/ccGNPDYB.s:1036   .text:00000000000006b4 .L0 
     /tmp/ccGNPDYB.s:1041   .text:00000000000006c0 .L0 
     /tmp/ccGNPDYB.s:1042   .text:00000000000006c0 .L0 
     /tmp/ccGNPDYB.s:1046   .text:00000000000006d0 .L0 
        src/main.cpp:106    .text:00000000000006d0 .L0 
     /tmp/ccGNPDYB.s:1052   .text:00000000000006d4 .L0 
     /tmp/ccGNPDYB.s:1054   .text:00000000000006d4 .L0 
     /tmp/ccGNPDYB.s:1057   .text:00000000000006dc .L0 
     /tmp/ccGNPDYB.s:1058   .text:00000000000006dc .L0 
     /tmp/ccGNPDYB.s:1064   .text:00000000000006ec .L0 
     /tmp/ccGNPDYB.s:1065   .text:00000000000006ec .L0 
     /tmp/ccGNPDYB.s:1070   .text:00000000000006fc .L0 
     /tmp/ccGNPDYB.s:1071   .text:00000000000006fc .L0 
     /tmp/ccGNPDYB.s:1075   .text:0000000000000708 .L0 
     /tmp/ccGNPDYB.s:1076   .text:0000000000000708 .L0 
     /tmp/ccGNPDYB.s:1082   .text:000000000000071c .L0 
     /tmp/ccGNPDYB.s:1083   .text:000000000000071c .L0 
     /tmp/ccGNPDYB.s:1087   .text:000000000000072c .L0 
     /tmp/ccGNPDYB.s:1088   .text:000000000000072c .L0 
     /tmp/ccGNPDYB.s:1092   .text:0000000000000738 .L0 
     /tmp/ccGNPDYB.s:1093   .text:0000000000000738 .L0 
     /tmp/ccGNPDYB.s:1097   .text:0000000000000748 .L0 
     /tmp/ccGNPDYB.s:1103   .text:0000000000000750 .L0 
     /tmp/ccGNPDYB.s:1104   .text:0000000000000750 .L0 
     /tmp/ccGNPDYB.s:1107   .text:0000000000000758 .L0 
     /tmp/ccGNPDYB.s:1108   .text:0000000000000758 .L0 
     /tmp/ccGNPDYB.s:1112   .text:0000000000000768 .L0 
     /tmp/ccGNPDYB.s:1113   .text:0000000000000768 .L0 
     /tmp/ccGNPDYB.s:1116   .text:0000000000000774 .L0 
     /tmp/ccGNPDYB.s:1117   .text:0000000000000774 .L0 
     /tmp/ccGNPDYB.s:1120   .text:000000000000077c .L0 
     /tmp/ccGNPDYB.s:1121   .text:0000000000000780 .L0 
     /tmp/ccGNPDYB.s:1123   .text:0000000000000784 .L0 
     /tmp/ccGNPDYB.s:1124   .text:0000000000000784 .L0 
     /tmp/ccGNPDYB.s:1126   .text:0000000000000788 .L0 
     /tmp/ccGNPDYB.s:1129   .text:000000000000078c .L0 
     /tmp/ccGNPDYB.s:1132   .text:0000000000000790 .L0 
     /tmp/ccGNPDYB.s:1134   .text:0000000000000794 .L0 
     /tmp/ccGNPDYB.s:1154   .text:0000000000000794 _Z18Threads_C_API_testv
     /tmp/ccGNPDYB.s:1157   .text:0000000000000794 .L0 
     /tmp/ccGNPDYB.s:1158   .text:0000000000000794 .L0 
     /tmp/ccGNPDYB.s:1159   .text:0000000000000798 .L0 
     /tmp/ccGNPDYB.s:1162   .text:00000000000007a0 .L0 
     /tmp/ccGNPDYB.s:1163   .text:00000000000007a0 .L0 
     /tmp/ccGNPDYB.s:1165   .text:00000000000007a4 .L0 
GAS LISTING /tmp/ccGNPDYB.s 			page 51


     /tmp/ccGNPDYB.s:1167   .text:00000000000007a4 .L0 
     /tmp/ccGNPDYB.s:1168   .text:00000000000007a4 .L0 
     /tmp/ccGNPDYB.s:1169   .text:00000000000007a4 .L0 
     /tmp/ccGNPDYB.s:1175   .text:00000000000007bc .L0 
     /tmp/ccGNPDYB.s:1176   .text:00000000000007bc .L0 
     /tmp/ccGNPDYB.s:1180   .text:00000000000007cc .L0 
     /tmp/ccGNPDYB.s:1181   .text:00000000000007cc .L0 
     /tmp/ccGNPDYB.s:1187   .text:00000000000007e4 .L0 
     /tmp/ccGNPDYB.s:1188   .text:00000000000007e4 .L0 
     /tmp/ccGNPDYB.s:1192   .text:00000000000007f4 .L0 
     /tmp/ccGNPDYB.s:1193   .text:00000000000007f4 .L0 
     /tmp/ccGNPDYB.s:1199   .text:000000000000080c .L0 
     /tmp/ccGNPDYB.s:1200   .text:000000000000080c .L0 
     /tmp/ccGNPDYB.s:1204   .text:000000000000081c .L0 
     /tmp/ccGNPDYB.s:1205   .text:000000000000081c .L0 
     /tmp/ccGNPDYB.s:1211   .text:0000000000000834 .L0 
     /tmp/ccGNPDYB.s:1212   .text:0000000000000834 .L0 
     /tmp/ccGNPDYB.s:1218   .text:0000000000000848 .L0 
     /tmp/ccGNPDYB.s:1219   .text:0000000000000848 .L0 
     /tmp/ccGNPDYB.s:1223   .text:0000000000000850 .L0 
     /tmp/ccGNPDYB.s:1224   .text:0000000000000850 .L0 
     /tmp/ccGNPDYB.s:1227   .text:000000000000085c .L0 
     /tmp/ccGNPDYB.s:1230   .text:0000000000000868 .L0 
     /tmp/ccGNPDYB.s:1233   .text:0000000000000874 .L0 
     /tmp/ccGNPDYB.s:1236   .text:0000000000000880 .L0 
     /tmp/ccGNPDYB.s:1237   .text:0000000000000884 .L0 
     /tmp/ccGNPDYB.s:1239   .text:0000000000000888 .L0 
     /tmp/ccGNPDYB.s:1240   .text:0000000000000888 .L0 
     /tmp/ccGNPDYB.s:1242   .text:000000000000088c .L0 
     /tmp/ccGNPDYB.s:1244   .text:0000000000000890 .L0 
     /tmp/ccGNPDYB.s:1255   .text:0000000000000890 _Z13tastaturaTestv
     /tmp/ccGNPDYB.s:1258   .text:0000000000000890 .L0 
     /tmp/ccGNPDYB.s:1259   .text:0000000000000890 .L0 
     /tmp/ccGNPDYB.s:1260   .text:0000000000000894 .L0 
     /tmp/ccGNPDYB.s:1263   .text:000000000000089c .L0 
     /tmp/ccGNPDYB.s:1264   .text:000000000000089c .L0 
     /tmp/ccGNPDYB.s:1266   .text:00000000000008a0 .L0 
     /tmp/ccGNPDYB.s:1268   .text:00000000000008a0 .L0 
     /tmp/ccGNPDYB.s:1269   .text:00000000000008a0 .L0 
     /tmp/ccGNPDYB.s:1270   .text:00000000000008a0 .L0 
     /tmp/ccGNPDYB.s:1276   .text:00000000000008b8 .L0 
     /tmp/ccGNPDYB.s:1277   .text:00000000000008b8 .L0 
     /tmp/ccGNPDYB.s:1282   .text:00000000000008c8 .L0 
     /tmp/ccGNPDYB.s:1283   .text:00000000000008c8 .L0 
     /tmp/ccGNPDYB.s:1286   .text:00000000000008d4 .L0 
     /tmp/ccGNPDYB.s:1287   .text:00000000000008d4 .L0 
     /tmp/ccGNPDYB.s:1292   .text:00000000000008e0 .L0 
     /tmp/ccGNPDYB.s:1293   .text:00000000000008e4 .L0 
     /tmp/ccGNPDYB.s:1295   .text:00000000000008e8 .L0 
     /tmp/ccGNPDYB.s:1296   .text:00000000000008e8 .L0 
     /tmp/ccGNPDYB.s:1298   .text:00000000000008ec .L0 
     /tmp/ccGNPDYB.s:1300   .text:00000000000008f0 .L0 
     /tmp/ccGNPDYB.s:1306   .text:00000000000008f0 _Z8userMainv
     /tmp/ccGNPDYB.s:1309   .text:00000000000008f0 .L0 
     /tmp/ccGNPDYB.s:1310   .text:00000000000008f0 .L0 
     /tmp/ccGNPDYB.s:1311   .text:00000000000008f4 .L0 
     /tmp/ccGNPDYB.s:1314   .text:00000000000008fc .L0 
GAS LISTING /tmp/ccGNPDYB.s 			page 52


     /tmp/ccGNPDYB.s:1315   .text:00000000000008fc .L0 
     /tmp/ccGNPDYB.s:1317   .text:0000000000000900 .L0 
     /tmp/ccGNPDYB.s:1319   .text:0000000000000900 .L0 
     /tmp/ccGNPDYB.s:1320   .text:0000000000000900 .L0 
     /tmp/ccGNPDYB.s:1323   .text:0000000000000908 .L0 
     /tmp/ccGNPDYB.s:1324   .text:000000000000090c .L0 
     /tmp/ccGNPDYB.s:1326   .text:0000000000000910 .L0 
     /tmp/ccGNPDYB.s:1327   .text:0000000000000910 .L0 
     /tmp/ccGNPDYB.s:1329   .text:0000000000000914 .L0 
     /tmp/ccGNPDYB.s:1331   .text:0000000000000918 .L0 
     /tmp/ccGNPDYB.s:1342   .text:0000000000000918 main
     /tmp/ccGNPDYB.s:1345   .text:0000000000000918 .L0 
     /tmp/ccGNPDYB.s:1346   .text:0000000000000918 .L0 
     /tmp/ccGNPDYB.s:1347   .text:000000000000091c .L0 
     /tmp/ccGNPDYB.s:1350   .text:0000000000000924 .L0 
     /tmp/ccGNPDYB.s:1351   .text:0000000000000924 .L0 
     /tmp/ccGNPDYB.s:1353   .text:0000000000000928 .L0 
     /tmp/ccGNPDYB.s:1355   .text:0000000000000928 .L0 
     /tmp/ccGNPDYB.s:1356   .text:0000000000000928 .L0 
     /tmp/ccGNPDYB.s:1362   .text:0000000000000930 .L0 
  src/../h/riscv.hpp:130    .text:0000000000000930 .L0 
     /tmp/ccGNPDYB.s:1372   .text:0000000000000934 .L0 
     /tmp/ccGNPDYB.s:1373   .text:0000000000000934 .L0 
     /tmp/ccGNPDYB.s:1374   .text:0000000000000934 .L0 
     /tmp/ccGNPDYB.s:1380   .text:000000000000094c .L0 
     /tmp/ccGNPDYB.s:1381   .text:000000000000094c .L0 
     /tmp/ccGNPDYB.s:1388   .text:0000000000000958 .L0 
     /tmp/ccGNPDYB.s:1397   .text:0000000000000968 .L0 
     /tmp/ccGNPDYB.s:1405   .text:0000000000000970 .L0 
     /tmp/ccGNPDYB.s:1408   .text:000000000000097c .L0 
     /tmp/ccGNPDYB.s:1409   .text:000000000000097c .L0 
     /tmp/ccGNPDYB.s:1415   .text:0000000000000988 .L0 
     /tmp/ccGNPDYB.s:1423   .text:0000000000000998 .L0 
     /tmp/ccGNPDYB.s:1431   .text:00000000000009a0 .L0 
     /tmp/ccGNPDYB.s:1434   .text:00000000000009ac .L0 
     /tmp/ccGNPDYB.s:1435   .text:00000000000009ac .L0 
     /tmp/ccGNPDYB.s:1436   .text:00000000000009ac .L0 
     /tmp/ccGNPDYB.s:1441   .text:00000000000009c0 .L0 
     /tmp/ccGNPDYB.s:1442   .text:00000000000009c0 .L0 
     /tmp/ccGNPDYB.s:1448   .text:00000000000009d4 .L0 
     /tmp/ccGNPDYB.s:1449   .text:00000000000009d4 .L0 
     /tmp/ccGNPDYB.s:1456   .text:00000000000009e4 .L0 
     /tmp/ccGNPDYB.s:1457   .text:00000000000009e4 .L0 
     /tmp/ccGNPDYB.s:1458   .text:00000000000009e4 .L0 
     /tmp/ccGNPDYB.s:1468   .text:00000000000009ec .L0 
     /tmp/ccGNPDYB.s:1469   .text:00000000000009ec .L0 
     /tmp/ccGNPDYB.s:1472   .text:00000000000009f4 .L0 
     /tmp/ccGNPDYB.s:1473   .text:00000000000009f4 .L0 
     /tmp/ccGNPDYB.s:1477   .text:0000000000000a04 .L0 
     /tmp/ccGNPDYB.s:1478   .text:0000000000000a04 .L0 
     /tmp/ccGNPDYB.s:1480   .text:0000000000000a0c .L0 
     /tmp/ccGNPDYB.s:1482   .text:0000000000000a10 .L0 
     /tmp/ccGNPDYB.s:1483   .text:0000000000000a10 .L0 
     /tmp/ccGNPDYB.s:1485   .text:0000000000000a14 .L0 
     /tmp/ccGNPDYB.s:1487   .text:0000000000000a18 .L0 
     /tmp/ccGNPDYB.s:1515   .bss:0000000000000008 sem
     /tmp/ccGNPDYB.s:1510   .bss:0000000000000003 finishedTastatura
GAS LISTING /tmp/ccGNPDYB.s 			page 53


     /tmp/ccGNPDYB.s:1527   .bss:0000000000000012 finishedD
     /tmp/ccGNPDYB.s:1523   .bss:0000000000000011 finishedC
     /tmp/ccGNPDYB.s:1519   .bss:0000000000000010 finishedB
     /tmp/ccGNPDYB.s:1506   .bss:0000000000000002 finishedA
     /tmp/ccGNPDYB.s:1502   .bss:0000000000000000 finished
     /tmp/ccGNPDYB.s:1499   .bss:0000000000000000 .LANCHOR0
     /tmp/ccGNPDYB.s:1536   .text:0000000000000a18 .L0 
     /tmp/ccGNPDYB.s:8      .rodata.str1.8:0000000000000000 .LC0
     /tmp/ccGNPDYB.s:51     .text:0000000000000028 .L0 
     /tmp/ccGNPDYB.s:11     .rodata.str1.8:0000000000000008 .LC1
     /tmp/ccGNPDYB.s:61     .text:0000000000000044 .L0 
     /tmp/ccGNPDYB.s:80     .text:0000000000000070 .L0 
     /tmp/ccGNPDYB.s:102    .rodata.str1.8:0000000000000010 .LC2
     /tmp/ccGNPDYB.s:186    .text:00000000000000f8 .L0 
     /tmp/ccGNPDYB.s:105    .rodata.str1.8:0000000000000018 .LC3
     /tmp/ccGNPDYB.s:196    .text:0000000000000114 .L0 
     /tmp/ccGNPDYB.s:108    .rodata.str1.8:0000000000000020 .LC4
     /tmp/ccGNPDYB.s:235    .text:0000000000000164 .L0 
     /tmp/ccGNPDYB.s:241    .text:0000000000000178 .L0 
     /tmp/ccGNPDYB.s:261    .rodata.str1.8:0000000000000030 .LC5
     /tmp/ccGNPDYB.s:354    .text:000000000000020c .L0 
     /tmp/ccGNPDYB.s:364    .text:0000000000000228 .L0 
     /tmp/ccGNPDYB.s:384    .text:0000000000000240 .L0 
     /tmp/ccGNPDYB.s:264    .rodata.str1.8:0000000000000040 .LC6
     /tmp/ccGNPDYB.s:406    .text:0000000000000264 .L0 
     /tmp/ccGNPDYB.s:412    .text:0000000000000278 .L0 
     /tmp/ccGNPDYB.s:473    .text:00000000000002c0 .L0 
     /tmp/ccGNPDYB.s:485    .text:00000000000002e0 .L0 
     /tmp/ccGNPDYB.s:436    .rodata.str1.8:0000000000000058 .LC7
     /tmp/ccGNPDYB.s:543    .text:000000000000033c .L0 
     /tmp/ccGNPDYB.s:553    .text:0000000000000358 .L0 
     /tmp/ccGNPDYB.s:439    .rodata.str1.8:0000000000000060 .LC8
     /tmp/ccGNPDYB.s:568    .text:0000000000000370 .L0 
     /tmp/ccGNPDYB.s:574    .text:0000000000000384 .L0 
     /tmp/ccGNPDYB.s:637    .text:00000000000003e4 .L0 
     /tmp/ccGNPDYB.s:654    .text:0000000000000408 .L0 
     /tmp/ccGNPDYB.s:658    .text:0000000000000414 .L0 
     /tmp/ccGNPDYB.s:749    .rodata.str1.8:0000000000000070 .LC9
     /tmp/ccGNPDYB.s:793    .text:00000000000004c8 .L0 
     /tmp/ccGNPDYB.s:803    .text:00000000000004e4 .L0 
     /tmp/ccGNPDYB.s:818    .text:0000000000000504 .L0 
     /tmp/ccGNPDYB.s:752    .rodata.str1.8:0000000000000078 .LC10
     /tmp/ccGNPDYB.s:823    .text:0000000000000514 .L0 
     /tmp/ccGNPDYB.s:755    .rodata.str1.8:0000000000000088 .LC11
     /tmp/ccGNPDYB.s:848    .text:0000000000000534 .L0 
     /tmp/ccGNPDYB.s:858    .text:0000000000000550 .L0 
     /tmp/ccGNPDYB.s:758    .rodata.str1.8:0000000000000090 .LC12
     /tmp/ccGNPDYB.s:870    .text:0000000000000570 .L0 
     /tmp/ccGNPDYB.s:881    .text:000000000000058c .L0 
     /tmp/ccGNPDYB.s:893    .text:00000000000005ac .L0 
     /tmp/ccGNPDYB.s:903    .text:00000000000005c8 .L0 
     /tmp/ccGNPDYB.s:761    .rodata.str1.8:00000000000000a0 .LC13
     /tmp/ccGNPDYB.s:918    .text:00000000000005e8 .L0 
     /tmp/ccGNPDYB.s:924    .text:00000000000005fc .L0 
     /tmp/ccGNPDYB.s:1006   .text:0000000000000668 .L0 
     /tmp/ccGNPDYB.s:949    .rodata.str1.8:00000000000000b0 .LC14
     /tmp/ccGNPDYB.s:1022   .text:0000000000000688 .L0 
GAS LISTING /tmp/ccGNPDYB.s 			page 54


     /tmp/ccGNPDYB.s:1032   .text:00000000000006a4 .L0 
     /tmp/ccGNPDYB.s:952    .rodata.str1.8:00000000000000b8 .LC15
     /tmp/ccGNPDYB.s:1042   .text:00000000000006c0 .L0 
     /tmp/ccGNPDYB.s:955    .rodata.str1.8:00000000000000c8 .LC16
     /tmp/ccGNPDYB.s:1065   .text:00000000000006ec .L0 
     /tmp/ccGNPDYB.s:1076   .text:0000000000000708 .L0 
     /tmp/ccGNPDYB.s:1083   .text:000000000000071c .L0 
     /tmp/ccGNPDYB.s:1093   .text:0000000000000738 .L0 
     /tmp/ccGNPDYB.s:958    .rodata.str1.8:00000000000000d8 .LC17
     /tmp/ccGNPDYB.s:1108   .text:0000000000000758 .L0 
     /tmp/ccGNPDYB.s:1114   .text:000000000000076c .L0 
     /tmp/ccGNPDYB.s:1170   .text:00000000000007a8 .L0 
     /tmp/ccGNPDYB.s:1139   .rodata.str1.8:00000000000000e8 .LC18
     /tmp/ccGNPDYB.s:1176   .text:00000000000007bc .L0 
     /tmp/ccGNPDYB.s:1182   .text:00000000000007d0 .L0 
     /tmp/ccGNPDYB.s:1142   .rodata.str1.8:0000000000000100 .LC19
     /tmp/ccGNPDYB.s:1188   .text:00000000000007e4 .L0 
     /tmp/ccGNPDYB.s:1194   .text:00000000000007f8 .L0 
     /tmp/ccGNPDYB.s:1145   .rodata.str1.8:0000000000000118 .LC20
     /tmp/ccGNPDYB.s:1200   .text:000000000000080c .L0 
     /tmp/ccGNPDYB.s:1206   .text:0000000000000820 .L0 
     /tmp/ccGNPDYB.s:1148   .rodata.str1.8:0000000000000130 .LC21
     /tmp/ccGNPDYB.s:1212   .text:0000000000000834 .L0 
     /tmp/ccGNPDYB.s:1224   .text:0000000000000850 .L0 
     /tmp/ccGNPDYB.s:1227   .text:000000000000085c .L0 
     /tmp/ccGNPDYB.s:1230   .text:0000000000000868 .L0 
     /tmp/ccGNPDYB.s:1233   .text:0000000000000874 .L0 
     /tmp/ccGNPDYB.s:1271   .text:00000000000008a4 .L0 
     /tmp/ccGNPDYB.s:1249   .rodata.str1.8:0000000000000148 .LC22
     /tmp/ccGNPDYB.s:1277   .text:00000000000008b8 .L0 
     /tmp/ccGNPDYB.s:1283   .text:00000000000008c8 .L0 
     /tmp/ccGNPDYB.s:1356   .text:0000000000000928 .L0 
     /tmp/ccGNPDYB.s:1375   .text:0000000000000938 .L0 
     /tmp/ccGNPDYB.s:1405   .text:0000000000000970 .L0 
     /tmp/ccGNPDYB.s:1431   .text:00000000000009a0 .L0 
     /tmp/ccGNPDYB.s:1437   .text:00000000000009b0 .L0 
     /tmp/ccGNPDYB.s:1449   .text:00000000000009d4 .L0 
     /tmp/ccGNPDYB.s:1336   .rodata.str1.8:0000000000000160 .LC23
     /tmp/ccGNPDYB.s:1473   .text:00000000000009f4 .L0 
     /tmp/ccGNPDYB.s:71     .text:0000000000000064 .L2
     /tmp/ccGNPDYB.s:43     .text:0000000000000020 .L3
     /tmp/ccGNPDYB.s:179    .text:00000000000000f0 .L11
     /tmp/ccGNPDYB.s:171    .text:00000000000000ec .L7
     /tmp/ccGNPDYB.s:139    .text:00000000000000bc .L8
     /tmp/ccGNPDYB.s:160    .text:00000000000000d8 .L9
     /tmp/ccGNPDYB.s:205    .text:000000000000012c .L6
     /tmp/ccGNPDYB.s:151    .text:00000000000000c8 .L10
     /tmp/ccGNPDYB.s:342    .text:00000000000001fc .L20
     /tmp/ccGNPDYB.s:351    .text:000000000000020c .L15
     /tmp/ccGNPDYB.s:334    .text:00000000000001f8 .L16
     /tmp/ccGNPDYB.s:303    .text:00000000000001c8 .L17
     /tmp/ccGNPDYB.s:323    .text:00000000000001e4 .L18
     /tmp/ccGNPDYB.s:373    .text:0000000000000240 .L14
     /tmp/ccGNPDYB.s:294    .text:00000000000001b8 .L23
     /tmp/ccGNPDYB.s:314    .text:00000000000001d4 .L19
     /tmp/ccGNPDYB.s:403    .text:0000000000000264 .L21
     /tmp/ccGNPDYB.s:529    .text:0000000000000328 .L32
GAS LISTING /tmp/ccGNPDYB.s 			page 55


     /tmp/ccGNPDYB.s:536    .text:0000000000000334 .L26
     /tmp/ccGNPDYB.s:540    .text:000000000000033c .L27
     /tmp/ccGNPDYB.s:521    .text:0000000000000324 .L28
     /tmp/ccGNPDYB.s:490    .text:00000000000002f4 .L29
     /tmp/ccGNPDYB.s:510    .text:0000000000000310 .L30
     /tmp/ccGNPDYB.s:562    .text:0000000000000370 .L25
     /tmp/ccGNPDYB.s:469    .text:00000000000002c0 .L34
     /tmp/ccGNPDYB.s:477    .text:00000000000002d4 .L35
     /tmp/ccGNPDYB.s:501    .text:0000000000000300 .L31
     /tmp/ccGNPDYB.s:645    .text:0000000000000400 .L38
     /tmp/ccGNPDYB.s:629    .text:00000000000003d8 .L41
     /tmp/ccGNPDYB.s:649    .text:0000000000000408 .L39
     /tmp/ccGNPDYB.s:720    .text:0000000000000484 .L42
     /tmp/ccGNPDYB.s:737    .text:000000000000049c .L47
     /tmp/ccGNPDYB.s:707    .text:0000000000000464 .L44
     /tmp/ccGNPDYB.s:811    .text:00000000000004fc .L50
     /tmp/ccGNPDYB.s:790    .text:00000000000004c8 .L54
     /tmp/ccGNPDYB.s:911    .text:00000000000005e0 .L52
     /tmp/ccGNPDYB.s:890    .text:00000000000005ac .L55
     /tmp/ccGNPDYB.s:1015   .text:0000000000000680 .L59
     /tmp/ccGNPDYB.s:1039   .text:00000000000006c0 .L57
     /tmp/ccGNPDYB.s:1009   .text:0000000000000678 .L58
     /tmp/ccGNPDYB.s:1003   .text:0000000000000668 .L63
     /tmp/ccGNPDYB.s:1101   .text:0000000000000750 .L61
     /tmp/ccGNPDYB.s:1080   .text:000000000000071c .L64
     /tmp/ccGNPDYB.s:1221   .text:0000000000000850 .L68
     /tmp/ccGNPDYB.s:1216   .text:0000000000000848 .L66
     /tmp/ccGNPDYB.s:1290   .text:00000000000008e0 .L70
     /tmp/ccGNPDYB.s:1280   .text:00000000000008c8 .L72
     /tmp/ccGNPDYB.s:4609   .debug_abbrev:0000000000000000 .Ldebug_abbrev0
     /tmp/ccGNPDYB.s:6738   .debug_str:0000000000000b18 .LASF241
     /tmp/ccGNPDYB.s:6474   .debug_str:0000000000000396 .LASF242
     /tmp/ccGNPDYB.s:6752   .debug_str:0000000000000c33 .LASF243
     /tmp/ccGNPDYB.s:5      .text:0000000000000000 .Ltext0
     /tmp/ccGNPDYB.s:1530   .text:0000000000000a18 .Letext0
     /tmp/ccGNPDYB.s:6358   .debug_line:0000000000000000 .Ldebug_line0
     /tmp/ccGNPDYB.s:6512   .debug_str:00000000000004cb .LASF0
     /tmp/ccGNPDYB.s:6544   .debug_str:00000000000005d2 .LASF1
     /tmp/ccGNPDYB.s:6664   .debug_str:000000000000092e .LASF2
     /tmp/ccGNPDYB.s:6460   .debug_str:000000000000032c .LASF3
     /tmp/ccGNPDYB.s:6676   .debug_str:0000000000000987 .LASF4
     /tmp/ccGNPDYB.s:6526   .debug_str:0000000000000529 .LASF5
     /tmp/ccGNPDYB.s:6376   .debug_str:000000000000008b .LASF6
     /tmp/ccGNPDYB.s:6636   .debug_str:0000000000000879 .LASF7
     /tmp/ccGNPDYB.s:6622   .debug_str:0000000000000802 .LASF8
     /tmp/ccGNPDYB.s:6536   .debug_str:0000000000000596 .LASF9
     /tmp/ccGNPDYB.s:6486   .debug_str:00000000000003c7 .LASF10
     /tmp/ccGNPDYB.s:6494   .debug_str:000000000000041a .LASF11
     /tmp/ccGNPDYB.s:6410   .debug_str:000000000000018d .LASF12
     /tmp/ccGNPDYB.s:6470   .debug_str:0000000000000374 .LASF13
     /tmp/ccGNPDYB.s:6426   .debug_str:000000000000020d .LASF14
     /tmp/ccGNPDYB.s:6408   .debug_str:000000000000017d .LASF15
     /tmp/ccGNPDYB.s:6712   .debug_str:0000000000000a8e .LASF16
     /tmp/ccGNPDYB.s:6452   .debug_str:00000000000002b9 .LASF17
     /tmp/ccGNPDYB.s:6698   .debug_str:0000000000000a28 .LASF18
     /tmp/ccGNPDYB.s:6792   .debug_str:0000000000000d55 .LASF36
     /tmp/ccGNPDYB.s:6770   .debug_str:0000000000000cc1 .LASF101
GAS LISTING /tmp/ccGNPDYB.s 			page 56


     /tmp/ccGNPDYB.s:6704   .debug_str:0000000000000a63 .LASF19
     /tmp/ccGNPDYB.s:6596   .debug_str:0000000000000726 .LASF20
     /tmp/ccGNPDYB.s:6586   .debug_str:00000000000006e7 .LASF21
     /tmp/ccGNPDYB.s:6700   .debug_str:0000000000000a3e .LASF23
     /tmp/ccGNPDYB.s:6466   .debug_str:000000000000034f .LASF28
     /tmp/ccGNPDYB.s:6666   .debug_str:000000000000093c .LASF110
     /tmp/ccGNPDYB.s:6656   .debug_str:00000000000008f1 .LASF111
     /tmp/ccGNPDYB.s:6542   .debug_str:00000000000005c9 .LASF22
     /tmp/ccGNPDYB.s:6398   .debug_str:000000000000011a .LASF24
     /tmp/ccGNPDYB.s:6566   .debug_str:0000000000000670 .LASF25
     /tmp/ccGNPDYB.s:6454   .debug_str:00000000000002cf .LASF26
     /tmp/ccGNPDYB.s:6620   .debug_str:00000000000007f6 .LASF27
     /tmp/ccGNPDYB.s:6794   .debug_str:0000000000000d5f .LASF29
     /tmp/ccGNPDYB.s:6854   .debug_str:0000000000000f27 .LASF30
     /tmp/ccGNPDYB.s:6832   .debug_str:0000000000000e8f .LASF31
     /tmp/ccGNPDYB.s:6694   .debug_str:0000000000000a14 .LASF32
     /tmp/ccGNPDYB.s:6534   .debug_str:0000000000000579 .LASF33
     /tmp/ccGNPDYB.s:6648   .debug_str:00000000000008c4 .LASF34
     /tmp/ccGNPDYB.s:6370   .debug_str:000000000000003d .LASF35
     /tmp/ccGNPDYB.s:6720   .debug_str:0000000000000ab3 .LASF100
     /tmp/ccGNPDYB.s:6678   .debug_str:000000000000098e .LASF37
     /tmp/ccGNPDYB.s:6374   .debug_str:000000000000007f .LASF38
     /tmp/ccGNPDYB.s:6828   .debug_str:0000000000000e76 .LASF58
     /tmp/ccGNPDYB.s:6490   .debug_str:00000000000003e1 .LASF77
     /tmp/ccGNPDYB.s:6722   .debug_str:0000000000000abb .LASF39
     /tmp/ccGNPDYB.s:6592   .debug_str:0000000000000707 .LASF40
     /tmp/ccGNPDYB.s:6392   .debug_str:00000000000000ed .LASF41
     /tmp/ccGNPDYB.s:6760   .debug_str:0000000000000c7f .LASF42
     /tmp/ccGNPDYB.s:6588   .debug_str:00000000000006ec .LASF43
     /tmp/ccGNPDYB.s:6436   .debug_str:0000000000000253 .LASF44
     /tmp/ccGNPDYB.s:6754   .debug_str:0000000000000c56 .LASF45
     /tmp/ccGNPDYB.s:6602   .debug_str:0000000000000748 .LASF46
     /tmp/ccGNPDYB.s:6810   .debug_str:0000000000000dfe .LASF47
     /tmp/ccGNPDYB.s:6400   .debug_str:0000000000000137 .LASF48
     /tmp/ccGNPDYB.s:6724   .debug_str:0000000000000ac6 .LASF49
     /tmp/ccGNPDYB.s:6420   .debug_str:00000000000001d1 .LASF50
     /tmp/ccGNPDYB.s:6552   .debug_str:0000000000000606 .LASF51
     /tmp/ccGNPDYB.s:6774   .debug_str:0000000000000cd3 .LASF52
     /tmp/ccGNPDYB.s:6710   .debug_str:0000000000000a81 .LASF53
     /tmp/ccGNPDYB.s:6776   .debug_str:0000000000000cec .LASF54
     /tmp/ccGNPDYB.s:6616   .debug_str:00000000000007e1 .LASF244
     /tmp/ccGNPDYB.s:6550   .debug_str:0000000000000600 .LASF138
     /tmp/ccGNPDYB.s:6740   .debug_str:0000000000000bdc .LASF140
     /tmp/ccGNPDYB.s:6802   .debug_str:0000000000000da3 .LASF55
     /tmp/ccGNPDYB.s:6564   .debug_str:0000000000000660 .LASF56
     /tmp/ccGNPDYB.s:6734   .debug_str:0000000000000b03 .LASF57
     /tmp/ccGNPDYB.s:6402   .debug_str:000000000000014c .LASF119
     /tmp/ccGNPDYB.s:6438   .debug_str:000000000000026a .LASF59
     /tmp/ccGNPDYB.s:6570   .debug_str:000000000000067d .LASF60
     /tmp/ccGNPDYB.s:6756   .debug_str:0000000000000c62 .LASF61
     /tmp/ccGNPDYB.s:6746   .debug_str:0000000000000c02 .LASF62
     /tmp/ccGNPDYB.s:6696   .debug_str:0000000000000a1f .LASF63
     /tmp/ccGNPDYB.s:6718   .debug_str:0000000000000aaa .LASF64
     /tmp/ccGNPDYB.s:6606   .debug_str:0000000000000789 .LASF65
     /tmp/ccGNPDYB.s:6396   .debug_str:000000000000010c .LASF66
     /tmp/ccGNPDYB.s:6554   .debug_str:0000000000000613 .LASF68
     /tmp/ccGNPDYB.s:6430   .debug_str:0000000000000227 .LASF105
GAS LISTING /tmp/ccGNPDYB.s 			page 57


     /tmp/ccGNPDYB.s:6372   .debug_str:0000000000000057 .LASF106
     /tmp/ccGNPDYB.s:6440   .debug_str:000000000000026f .LASF67
     /tmp/ccGNPDYB.s:6418   .debug_str:00000000000001be .LASF69
     /tmp/ccGNPDYB.s:6690   .debug_str:00000000000009f0 .LASF95
     /tmp/ccGNPDYB.s:6672   .debug_str:0000000000000972 .LASF70
     /tmp/ccGNPDYB.s:6820   .debug_str:0000000000000e3a .LASF71
     /tmp/ccGNPDYB.s:6568   .debug_str:0000000000000678 .LASF72
     /tmp/ccGNPDYB.s:6790   .debug_str:0000000000000d4c .LASF73
     /tmp/ccGNPDYB.s:6706   .debug_str:0000000000000a68 .LASF74
     /tmp/ccGNPDYB.s:6736   .debug_str:0000000000000b0b .LASF75
     /tmp/ccGNPDYB.s:6368   .debug_str:000000000000002d .LASF76
     /tmp/ccGNPDYB.s:6468   .debug_str:0000000000000366 .LASF78
     /tmp/ccGNPDYB.s:6450   .debug_str:00000000000002b3 .LASF79
     /tmp/ccGNPDYB.s:6572   .debug_str:0000000000000683 .LASF80
     /tmp/ccGNPDYB.s:6442   .debug_str:0000000000000278 .LASF81
     /tmp/ccGNPDYB.s:6590   .debug_str:00000000000006f7 .LASF82
     /tmp/ccGNPDYB.s:6716   .debug_str:0000000000000aa3 .LASF83
     /tmp/ccGNPDYB.s:6702   .debug_str:0000000000000a51 .LASF84
     /tmp/ccGNPDYB.s:6386   .debug_str:00000000000000c3 .LASF85
     /tmp/ccGNPDYB.s:6388   .debug_str:00000000000000c9 .LASF86
     /tmp/ccGNPDYB.s:6502   .debug_str:000000000000046b .LASF87
     /tmp/ccGNPDYB.s:6582   .debug_str:00000000000006c6 .LASF88
     /tmp/ccGNPDYB.s:6660   .debug_str:0000000000000913 .LASF89
     /tmp/ccGNPDYB.s:6496   .debug_str:0000000000000428 .LASF90
     /tmp/ccGNPDYB.s:6510   .debug_str:00000000000004c5 .LASF91
     /tmp/ccGNPDYB.s:6464   .debug_str:000000000000033e .LASF92
     /tmp/ccGNPDYB.s:6830   .debug_str:0000000000000e87 .LASF93
     /tmp/ccGNPDYB.s:6796   .debug_str:0000000000000d7d .LASF94
     /tmp/ccGNPDYB.s:6764   .debug_str:0000000000000ca9 .LASF96
     /tmp/ccGNPDYB.s:6610   .debug_str:00000000000007a6 .LASF97
     /tmp/ccGNPDYB.s:6748   .debug_str:0000000000000c0c .LASF98
     /tmp/ccGNPDYB.s:6394   .debug_str:00000000000000f9 .LASF99
     /tmp/ccGNPDYB.s:6482   .debug_str:00000000000003b4 .LASF102
     /tmp/ccGNPDYB.s:6412   .debug_str:000000000000019c .LASF103
     /tmp/ccGNPDYB.s:6744   .debug_str:0000000000000bf5 .LASF104
     /tmp/ccGNPDYB.s:6604   .debug_str:000000000000075f .LASF107
     /tmp/ccGNPDYB.s:6446   .debug_str:0000000000000283 .LASF108
     /tmp/ccGNPDYB.s:6532   .debug_str:000000000000055a .LASF109
     /tmp/ccGNPDYB.s:6458   .debug_str:000000000000030d .LASF112
     /tmp/ccGNPDYB.s:6780   .debug_str:0000000000000d21 .LASF113
     /tmp/ccGNPDYB.s:6804   .debug_str:0000000000000da9 .LASF114
     /tmp/ccGNPDYB.s:6558   .debug_str:0000000000000639 .LASF115
     /tmp/ccGNPDYB.s:6504   .debug_str:0000000000000471 .LASF116
     /tmp/ccGNPDYB.s:6632   .debug_str:0000000000000853 .LASF117
     /tmp/ccGNPDYB.s:6682   .debug_str:000000000000099d .LASF118
     /tmp/ccGNPDYB.s:6808   .debug_str:0000000000000ddb .LASF120
     /tmp/ccGNPDYB.s:6782   .debug_str:0000000000000d2a .LASF121
     /tmp/ccGNPDYB.s:6826   .debug_str:0000000000000e67 .LASF122
     /tmp/ccGNPDYB.s:6518   .debug_str:00000000000004f8 .LASF123
     /tmp/ccGNPDYB.s:6530   .debug_str:0000000000000548 .LASF124
     /tmp/ccGNPDYB.s:6574   .debug_str:0000000000000690 .LASF125
     /tmp/ccGNPDYB.s:6546   .debug_str:00000000000005e5 .LASF126
     /tmp/ccGNPDYB.s:6576   .debug_str:0000000000000695 .LASF127
     /tmp/ccGNPDYB.s:6742   .debug_str:0000000000000bec .LASF128
     /tmp/ccGNPDYB.s:6600   .debug_str:0000000000000732 .LASF129
     /tmp/ccGNPDYB.s:6382   .debug_str:00000000000000b2 .LASF130
     /tmp/ccGNPDYB.s:6476   .debug_str:00000000000003a3 .LASF131
GAS LISTING /tmp/ccGNPDYB.s 			page 58


     /tmp/ccGNPDYB.s:6362   .debug_str:000000000000000a .LASF132
     /tmp/ccGNPDYB.s:6726   .debug_str:0000000000000ad1 .LASF133
     /tmp/ccGNPDYB.s:6798   .debug_str:0000000000000d90 .LASF134
     /tmp/ccGNPDYB.s:6778   .debug_str:0000000000000d12 .LASF245
     /tmp/ccGNPDYB.s:6462   .debug_str:0000000000000332 .LASF135
     /tmp/ccGNPDYB.s:6540   .debug_str:00000000000005bc .LASF136
     /tmp/ccGNPDYB.s:6432   .debug_str:0000000000000235 .LASF137
     /tmp/ccGNPDYB.s:6500   .debug_str:0000000000000460 .LASF139
     /tmp/ccGNPDYB.s:6508   .debug_str:00000000000004ad .LASF141
     /tmp/ccGNPDYB.s:6548   .debug_str:00000000000005f7 .LASF144
     /tmp/ccGNPDYB.s:6758   .debug_str:0000000000000c6a .LASF146
     /tmp/ccGNPDYB.s:6846   .debug_str:0000000000000f03 .LASF142
     /tmp/ccGNPDYB.s:6608   .debug_str:0000000000000791 .LASF143
     /tmp/ccGNPDYB.s:6642   .debug_str:0000000000000896 .LASF145
     /tmp/ccGNPDYB.s:6644   .debug_str:000000000000089d .LASF147
     /tmp/ccGNPDYB.s:6598   .debug_str:000000000000072b .LASF148
     /tmp/ccGNPDYB.s:6538   .debug_str:00000000000005a9 .LASF149
     /tmp/ccGNPDYB.s:6812   .debug_str:0000000000000e08 .LASF150
     /tmp/ccGNPDYB.s:6708   .debug_str:0000000000000a6d .LASF151
     /tmp/ccGNPDYB.s:6594   .debug_str:000000000000071e .LASF152
     /tmp/ccGNPDYB.s:6834   .debug_str:0000000000000eaa .LASF153
     /tmp/ccGNPDYB.s:6562   .debug_str:0000000000000658 .LASF154
     /tmp/ccGNPDYB.s:6646   .debug_str:00000000000008b0 .LASF155
     /tmp/ccGNPDYB.s:6848   .debug_str:0000000000000f0c .LASF156
     /tmp/ccGNPDYB.s:6522   .debug_str:0000000000000503 .LASF157
     /tmp/ccGNPDYB.s:6650   .debug_str:00000000000008cd .LASF158
     /tmp/ccGNPDYB.s:6424   .debug_str:00000000000001fa .LASF159
     /tmp/ccGNPDYB.s:6684   .debug_str:00000000000009ce .LASF160
     /tmp/ccGNPDYB.s:6416   .debug_str:00000000000001ab .LASF161
     /tmp/ccGNPDYB.s:6444   .debug_str:000000000000027d .LASF162
     /tmp/ccGNPDYB.s:6506   .debug_str:000000000000049b .LASF163
     /tmp/ccGNPDYB.s:6520   .debug_str:00000000000004fd .LASF164
     /tmp/ccGNPDYB.s:6434   .debug_str:0000000000000241 .LASF165
     /tmp/ccGNPDYB.s:6378   .debug_str:0000000000000092 .LASF166
     /tmp/ccGNPDYB.s:6668   .debug_str:0000000000000946 .LASF167
     /tmp/ccGNPDYB.s:6662   .debug_str:0000000000000923 .LASF168
     /tmp/ccGNPDYB.s:6836   .debug_str:0000000000000ebe .LASF169
     /tmp/ccGNPDYB.s:6732   .debug_str:0000000000000af9 .LASF170
     /tmp/ccGNPDYB.s:6822   .debug_str:0000000000000e45 .LASF171
     /tmp/ccGNPDYB.s:6414   .debug_str:00000000000001a1 .LASF172
     /tmp/ccGNPDYB.s:6578   .debug_str:00000000000006a3 .LASF173
     /tmp/ccGNPDYB.s:6806   .debug_str:0000000000000dcc .LASF174
     /tmp/ccGNPDYB.s:6492   .debug_str:00000000000003fe .LASF175
     /tmp/ccGNPDYB.s:6838   .debug_str:0000000000000ed6 .LASF176
     /tmp/ccGNPDYB.s:6766   .debug_str:0000000000000cb0 .LASF177
     /tmp/ccGNPDYB.s:6626   .debug_str:0000000000000828 .LASF178
     /tmp/ccGNPDYB.s:6456   .debug_str:00000000000002eb .LASF179
     /tmp/ccGNPDYB.s:6560   .debug_str:0000000000000648 .LASF180
     /tmp/ccGNPDYB.s:6674   .debug_str:000000000000097d .LASF181
     /tmp/ccGNPDYB.s:6428   .debug_str:000000000000021d .LASF182
     /tmp/ccGNPDYB.s:6514   .debug_str:00000000000004d8 .LASF183
     /tmp/ccGNPDYB.s:6680   .debug_str:0000000000000993 .LASF184
     /tmp/ccGNPDYB.s:6816   .debug_str:0000000000000e22 .LASF185
     /tmp/ccGNPDYB.s:6478   .debug_str:00000000000003aa .LASF219
     /tmp/ccGNPDYB.s:6390   .debug_str:00000000000000da .LASF221
     /tmp/ccGNPDYB.s:6480   .debug_str:00000000000003af .LASF186
     /tmp/ccGNPDYB.s:1343   .text:0000000000000918 .LFB68
GAS LISTING /tmp/ccGNPDYB.s 			page 59


     /tmp/ccGNPDYB.s:1488   .text:0000000000000a18 .LFE68
     /tmp/ccGNPDYB.s:6772   .debug_str:0000000000000cc6 .LASF187
     /tmp/ccGNPDYB.s:1358   .text:0000000000000930 .LBB58
     /tmp/ccGNPDYB.s:1370   .text:0000000000000934 .LBE58
     /tmp/ccGNPDYB.s:1384   .text:0000000000000958 .LBB60
     /tmp/ccGNPDYB.s:1403   .text:0000000000000970 .LBE60
     /tmp/ccGNPDYB.s:5950   .debug_loc:0000000000000000 .LLST25
     /tmp/ccGNPDYB.s:5958   .debug_loc:0000000000000024 .LLST26
     /tmp/ccGNPDYB.s:1393   .text:0000000000000968 .LBB62
     /tmp/ccGNPDYB.s:1401   .text:0000000000000970 .LBE62
     /tmp/ccGNPDYB.s:5965   .debug_loc:0000000000000047 .LLST27
     /tmp/ccGNPDYB.s:1412   .text:0000000000000988 .LBB64
     /tmp/ccGNPDYB.s:1429   .text:00000000000009a0 .LBE64
     /tmp/ccGNPDYB.s:5974   .debug_loc:000000000000006c .LLST28
     /tmp/ccGNPDYB.s:5982   .debug_loc:0000000000000090 .LLST29
     /tmp/ccGNPDYB.s:1420   .text:0000000000000998 .LBB66
     /tmp/ccGNPDYB.s:1427   .text:00000000000009a0 .LBE66
     /tmp/ccGNPDYB.s:5989   .debug_loc:00000000000000b3 .LLST30
     /tmp/ccGNPDYB.s:1454   .text:00000000000009e4 .LBB68
     /tmp/ccGNPDYB.s:1466   .text:00000000000009ec .LBE68
     /tmp/ccGNPDYB.s:5998   .debug_loc:00000000000000d8 .LLST31
     /tmp/ccGNPDYB.s:1378   .text:000000000000094c .LVL158
     /tmp/ccGNPDYB.s:1383   .text:0000000000000958 .LVL159
     /tmp/ccGNPDYB.s:1411   .text:0000000000000988 .LVL162
     /tmp/ccGNPDYB.s:1439   .text:00000000000009c0 .LVL165
     /tmp/ccGNPDYB.s:1446   .text:00000000000009d4 .LVL166
     /tmp/ccGNPDYB.s:1470   .text:00000000000009f4 .LVL169
     /tmp/ccGNPDYB.s:1475   .text:0000000000000a04 .LVL170
     /tmp/ccGNPDYB.s:6628   .debug_str:000000000000083d .LASF188
     /tmp/ccGNPDYB.s:6580   .debug_str:00000000000006b9 .LASF189
     /tmp/ccGNPDYB.s:1307   .text:00000000000008f0 .LFB67
     /tmp/ccGNPDYB.s:1332   .text:0000000000000918 .LFE67
     /tmp/ccGNPDYB.s:1321   .text:0000000000000908 .LVL155
     /tmp/ccGNPDYB.s:6730   .debug_str:0000000000000aeb .LASF190
     /tmp/ccGNPDYB.s:6692   .debug_str:0000000000000a01 .LASF191
     /tmp/ccGNPDYB.s:1256   .text:0000000000000890 .LFB66
     /tmp/ccGNPDYB.s:1301   .text:00000000000008f0 .LFE66
     /tmp/ccGNPDYB.s:6638   .debug_str:0000000000000880 .LASF192
     /tmp/ccGNPDYB.s:1274   .text:00000000000008b8 .LVL152
     /tmp/ccGNPDYB.s:1279   .text:00000000000008c8 .LVL153
     /tmp/ccGNPDYB.s:1288   .text:00000000000008dc .LVL154
     /tmp/ccGNPDYB.s:6472   .debug_str:0000000000000383 .LASF193
     /tmp/ccGNPDYB.s:6498   .debug_str:0000000000000448 .LASF194
     /tmp/ccGNPDYB.s:1155   .text:0000000000000794 .LFB65
     /tmp/ccGNPDYB.s:1245   .text:0000000000000890 .LFE65
     /tmp/ccGNPDYB.s:6688   .debug_str:00000000000009e8 .LASF195
     /tmp/ccGNPDYB.s:1173   .text:00000000000007bc .LVL143
     /tmp/ccGNPDYB.s:1178   .text:00000000000007cc .LVL144
     /tmp/ccGNPDYB.s:1185   .text:00000000000007e4 .LVL145
     /tmp/ccGNPDYB.s:1190   .text:00000000000007f4 .LVL146
     /tmp/ccGNPDYB.s:1197   .text:000000000000080c .LVL147
     /tmp/ccGNPDYB.s:1202   .text:000000000000081c .LVL148
     /tmp/ccGNPDYB.s:1209   .text:0000000000000834 .LVL149
     /tmp/ccGNPDYB.s:1214   .text:0000000000000844 .LVL150
     /tmp/ccGNPDYB.s:1220   .text:0000000000000850 .LVL151
     /tmp/ccGNPDYB.s:6618   .debug_str:00000000000007e6 .LASF196
     /tmp/ccGNPDYB.s:6516   .debug_str:00000000000004e2 .LASF197
GAS LISTING /tmp/ccGNPDYB.s 			page 60


     /tmp/ccGNPDYB.s:271    .text:0000000000000198 .LFB64
     /tmp/ccGNPDYB.s:432    .text:00000000000002a0 .LFE64
     /tmp/ccGNPDYB.s:6006   .debug_loc:00000000000000fc .LLST7
     /tmp/ccGNPDYB.s:289    .text:00000000000001b0 .LBB38
     /tmp/ccGNPDYB.s:376    .text:0000000000000240 .LBE38
     /tmp/ccGNPDYB.s:6020   .debug_loc:0000000000000135 .LLST8
     /tmp/ccGNPDYB.s:6338   .debug_ranges:0000000000000000 .Ldebug_ranges0
     /tmp/ccGNPDYB.s:6032   .debug_loc:000000000000016c .LLST9
     /tmp/ccGNPDYB.s:320    .text:00000000000001e0 .LBB42
     /tmp/ccGNPDYB.s:335    .text:00000000000001f8 .LBE42
     /tmp/ccGNPDYB.s:6044   .debug_loc:00000000000001a3 .LLST10
     /tmp/ccGNPDYB.s:309    .text:00000000000001d0 .LVL33
     /tmp/ccGNPDYB.s:300    .text:00000000000001c4 .LVL31
     /tmp/ccGNPDYB.s:356    .text:000000000000021c .LVL39
     /tmp/ccGNPDYB.s:361    .text:0000000000000228 .LVL40
     /tmp/ccGNPDYB.s:366    .text:0000000000000238 .LVL41
     /tmp/ccGNPDYB.s:391    .text:0000000000000250 .LBB48
     /tmp/ccGNPDYB.s:400    .text:0000000000000260 .LBE48
     /tmp/ccGNPDYB.s:6055   .debug_loc:00000000000001d9 .LLST11
     /tmp/ccGNPDYB.s:395    .text:0000000000000258 .LVL44
     /tmp/ccGNPDYB.s:399    .text:0000000000000260 .LVL45
     /tmp/ccGNPDYB.s:379    .text:0000000000000240 .LBB46
     /tmp/ccGNPDYB.s:388    .text:000000000000024c .LBE46
     /tmp/ccGNPDYB.s:408    .text:0000000000000274 .LVL46
     /tmp/ccGNPDYB.s:416    .text:0000000000000288 .LVL47
     /tmp/ccGNPDYB.s:6406   .debug_str:0000000000000170 .LASF198
     /tmp/ccGNPDYB.s:6750   .debug_str:0000000000000c20 .LASF199
     /tmp/ccGNPDYB.s:965    .text:0000000000000624 .LFB63
     /tmp/ccGNPDYB.s:1135   .text:0000000000000794 .LFE63
     /tmp/ccGNPDYB.s:6062   .debug_loc:00000000000001fc .LLST22
     /tmp/ccGNPDYB.s:6076   .debug_loc:0000000000000235 .LLST23
     /tmp/ccGNPDYB.s:6842   .debug_str:0000000000000eee .LASF200
     /tmp/ccGNPDYB.s:6096   .debug_loc:0000000000000292 .LLST24
     /tmp/ccGNPDYB.s:988    .text:0000000000000648 .LVL116
     /tmp/ccGNPDYB.s:993    .text:0000000000000654 .LVL117
     /tmp/ccGNPDYB.s:998    .text:0000000000000660 .LVL118
     /tmp/ccGNPDYB.s:1008   .text:0000000000000678 .LVL120
     /tmp/ccGNPDYB.s:1024   .text:0000000000000698 .LVL123
     /tmp/ccGNPDYB.s:1029   .text:00000000000006a4 .LVL124
     /tmp/ccGNPDYB.s:1034   .text:00000000000006b4 .LVL125
     /tmp/ccGNPDYB.s:1044   .text:00000000000006d0 .LVL126
     /tmp/ccGNPDYB.s:1055   .text:00000000000006dc .LVL127
     /tmp/ccGNPDYB.s:1060   .text:00000000000006e8 .LVL128
     /tmp/ccGNPDYB.s:1068   .text:00000000000006fc .LVL131
     /tmp/ccGNPDYB.s:1073   .text:0000000000000708 .LVL132
     /tmp/ccGNPDYB.s:1078   .text:0000000000000718 .LVL133
     /tmp/ccGNPDYB.s:1085   .text:000000000000072c .LVL134
     /tmp/ccGNPDYB.s:1090   .text:0000000000000738 .LVL135
     /tmp/ccGNPDYB.s:1095   .text:0000000000000748 .LVL136
     /tmp/ccGNPDYB.s:1110   .text:0000000000000768 .LVL139
     /tmp/ccGNPDYB.s:1118   .text:000000000000077c .LVL140
     /tmp/ccGNPDYB.s:6654   .debug_str:00000000000008e4 .LASF201
     /tmp/ccGNPDYB.s:6624   .debug_str:0000000000000815 .LASF202
     /tmp/ccGNPDYB.s:768    .text:00000000000004a8 .LFB62
     /tmp/ccGNPDYB.s:945    .text:0000000000000624 .LFE62
     /tmp/ccGNPDYB.s:6107   .debug_loc:00000000000002c8 .LLST18
     /tmp/ccGNPDYB.s:6121   .debug_loc:0000000000000301 .LLST19
GAS LISTING /tmp/ccGNPDYB.s 			page 61


     /tmp/ccGNPDYB.s:6141   .debug_loc:000000000000035e .LLST20
     /tmp/ccGNPDYB.s:6149   .debug_loc:0000000000000382 .LLST21
     /tmp/ccGNPDYB.s:795    .text:00000000000004d8 .LVL85
     /tmp/ccGNPDYB.s:800    .text:00000000000004e4 .LVL86
     /tmp/ccGNPDYB.s:805    .text:00000000000004f4 .LVL87
     /tmp/ccGNPDYB.s:820    .text:0000000000000514 .LVL90
     /tmp/ccGNPDYB.s:825    .text:0000000000000524 .LVL91
     /tmp/ccGNPDYB.s:836    .text:0000000000000530 .LVL92
     /tmp/ccGNPDYB.s:850    .text:0000000000000544 .LVL94
     /tmp/ccGNPDYB.s:855    .text:0000000000000550 .LVL95
     /tmp/ccGNPDYB.s:860    .text:0000000000000560 .LVL96
     /tmp/ccGNPDYB.s:865    .text:000000000000056c .LVL97
     /tmp/ccGNPDYB.s:873    .text:0000000000000580 .LVL100
     /tmp/ccGNPDYB.s:878    .text:000000000000058c .LVL101
     /tmp/ccGNPDYB.s:883    .text:000000000000059c .LVL102
     /tmp/ccGNPDYB.s:888    .text:00000000000005a8 .LVL103
     /tmp/ccGNPDYB.s:895    .text:00000000000005bc .LVL104
     /tmp/ccGNPDYB.s:900    .text:00000000000005c8 .LVL105
     /tmp/ccGNPDYB.s:905    .text:00000000000005d8 .LVL106
     /tmp/ccGNPDYB.s:920    .text:00000000000005f8 .LVL109
     /tmp/ccGNPDYB.s:928    .text:000000000000060c .LVL110
     /tmp/ccGNPDYB.s:6556   .debug_str:000000000000062c .LASF203
     /tmp/ccGNPDYB.s:6686   .debug_str:00000000000009d5 .LASF204
     /tmp/ccGNPDYB.s:446    .text:00000000000002a0 .LFB61
     /tmp/ccGNPDYB.s:594    .text:00000000000003ac .LFE61
     /tmp/ccGNPDYB.s:6160   .debug_loc:00000000000003b8 .LLST12
     /tmp/ccGNPDYB.s:464    .text:00000000000002b8 .LBB49
     /tmp/ccGNPDYB.s:565    .text:0000000000000370 .LBE49
     /tmp/ccGNPDYB.s:6174   .debug_loc:00000000000003f1 .LLST13
     /tmp/ccGNPDYB.s:6186   .debug_loc:0000000000000428 .LLST14
     /tmp/ccGNPDYB.s:507    .text:000000000000030c .LBB53
     /tmp/ccGNPDYB.s:522    .text:0000000000000324 .LBE53
     /tmp/ccGNPDYB.s:6198   .debug_loc:000000000000045f .LLST15
     /tmp/ccGNPDYB.s:496    .text:00000000000002fc .LVL56
     /tmp/ccGNPDYB.s:475    .text:00000000000002d0 .LVL52
     /tmp/ccGNPDYB.s:482    .text:00000000000002e0 .LVL53
     /tmp/ccGNPDYB.s:487    .text:00000000000002f0 .LVL54
     /tmp/ccGNPDYB.s:545    .text:000000000000034c .LVL62
     /tmp/ccGNPDYB.s:550    .text:0000000000000358 .LVL63
     /tmp/ccGNPDYB.s:555    .text:0000000000000368 .LVL64
     /tmp/ccGNPDYB.s:570    .text:0000000000000380 .LVL66
     /tmp/ccGNPDYB.s:578    .text:0000000000000394 .LVL67
     /tmp/ccGNPDYB.s:6528   .debug_str:000000000000053b .LASF205
     /tmp/ccGNPDYB.s:6762   .debug_str:0000000000000c96 .LASF206
     /tmp/ccGNPDYB.s:115    .text:000000000000009c .LFB60
     /tmp/ccGNPDYB.s:257    .text:0000000000000198 .LFE60
     /tmp/ccGNPDYB.s:6209   .debug_loc:0000000000000495 .LLST3
     /tmp/ccGNPDYB.s:134    .text:00000000000000b4 .LBB30
     /tmp/ccGNPDYB.s:208    .text:000000000000012c .LBE30
     /tmp/ccGNPDYB.s:6223   .debug_loc:00000000000004ce .LLST4
     /tmp/ccGNPDYB.s:6235   .debug_loc:0000000000000505 .LLST5
     /tmp/ccGNPDYB.s:157    .text:00000000000000d4 .LBB34
     /tmp/ccGNPDYB.s:172    .text:00000000000000ec .LBE34
     /tmp/ccGNPDYB.s:6247   .debug_loc:000000000000053c .LLST6
     /tmp/ccGNPDYB.s:146    .text:00000000000000c4 .LVL12
     /tmp/ccGNPDYB.s:188    .text:0000000000000108 .LVL18
     /tmp/ccGNPDYB.s:193    .text:0000000000000114 .LVL19
GAS LISTING /tmp/ccGNPDYB.s 			page 62


     /tmp/ccGNPDYB.s:198    .text:0000000000000124 .LVL20
     /tmp/ccGNPDYB.s:212    .text:0000000000000134 .LVL22
     /tmp/ccGNPDYB.s:218    .text:0000000000000140 .LVL23
     /tmp/ccGNPDYB.s:226    .text:0000000000000154 .LVL24
     /tmp/ccGNPDYB.s:232    .text:0000000000000164 .LVL25
     /tmp/ccGNPDYB.s:237    .text:0000000000000174 .LVL26
     /tmp/ccGNPDYB.s:6488   .debug_str:00000000000003d7 .LASF207
     /tmp/ccGNPDYB.s:6484   .debug_str:00000000000003b9 .LASF208
     /tmp/ccGNPDYB.s:680    .text:0000000000000434 .LFB59
     /tmp/ccGNPDYB.s:745    .text:00000000000004a8 .LFE59
     /tmp/ccGNPDYB.s:6258   .debug_loc:0000000000000572 .LLST17
     /tmp/ccGNPDYB.s:712    .text:0000000000000470 .LVL77
     /tmp/ccGNPDYB.s:717    .text:0000000000000480 .LVL78
     /tmp/ccGNPDYB.s:742    .text:00000000000004a4 .LVL81
     /tmp/ccGNPDYB.s:6788   .debug_str:0000000000000d3f .LASF209
     /tmp/ccGNPDYB.s:6814   .debug_str:0000000000000e10 .LASF210
     /tmp/ccGNPDYB.s:600    .text:00000000000003ac .LFB58
     /tmp/ccGNPDYB.s:674    .text:0000000000000434 .LFE58
     /tmp/ccGNPDYB.s:6448   .debug_str:000000000000029f .LASF211
     /tmp/ccGNPDYB.s:6640   .debug_str:000000000000088a .LASF212
     /tmp/ccGNPDYB.s:6404   .debug_str:0000000000000163 .LASF213
     /tmp/ccGNPDYB.s:624    .text:00000000000003d0 .LBB57
     /tmp/ccGNPDYB.s:650    .text:0000000000000408 .LBE57
     /tmp/ccGNPDYB.s:6280   .debug_loc:00000000000005d1 .LLST16
     /tmp/ccGNPDYB.s:641    .text:00000000000003fc .LVL72
     /tmp/ccGNPDYB.s:6360   .debug_str:0000000000000000 .LASF214
     /tmp/ccGNPDYB.s:6584   .debug_str:00000000000006d8 .LASF215
     /tmp/ccGNPDYB.s:18     .text:0000000000000000 .LFB57
     /tmp/ccGNPDYB.s:98     .text:000000000000009c .LFE57
     /tmp/ccGNPDYB.s:6292   .debug_loc:0000000000000608 .LLST0
     /tmp/ccGNPDYB.s:6612   .debug_str:00000000000007b5 .LASF216
     /tmp/ccGNPDYB.s:6306   .debug_loc:0000000000000641 .LLST1
     /tmp/ccGNPDYB.s:6313   .debug_loc:0000000000000664 .LLST2
     /tmp/ccGNPDYB.s:53     .text:0000000000000038 .LVL4
     /tmp/ccGNPDYB.s:58     .text:0000000000000044 .LVL5
     /tmp/ccGNPDYB.s:63     .text:0000000000000054 .LVL6
     /tmp/ccGNPDYB.s:68     .text:0000000000000060 .LVL7
     /tmp/ccGNPDYB.s:6784   .debug_str:0000000000000d31 .LASF217
     /tmp/ccGNPDYB.s:6818   .debug_str:0000000000000e34 .LASF218
     /tmp/ccGNPDYB.s:6850   .debug_str:0000000000000f14 .LASF220
     /tmp/ccGNPDYB.s:6800   .debug_str:0000000000000d96 .LASF222
     /tmp/ccGNPDYB.s:6614   .debug_str:00000000000007c0 .LASF223
     /tmp/ccGNPDYB.s:6844   .debug_str:0000000000000ef5 .LASF225
     /tmp/ccGNPDYB.s:6768   .debug_str:0000000000000cbb .LASF246
     /tmp/ccGNPDYB.s:6840   .debug_str:0000000000000ee1 .LASF247
     /tmp/ccGNPDYB.s:6670   .debug_str:000000000000095e .LASF224
     /tmp/ccGNPDYB.s:6384   .debug_str:00000000000000ba .LASF226
     /tmp/ccGNPDYB.s:6422   .debug_str:00000000000001e7 .LASF227
     /tmp/ccGNPDYB.s:6824   .debug_str:0000000000000e5b .LASF228
     /tmp/ccGNPDYB.s:6380   .debug_str:000000000000009d .LASF229
     /tmp/ccGNPDYB.s:6652   .debug_str:00000000000008d4 .LASF230
     /tmp/ccGNPDYB.s:6634   .debug_str:0000000000000869 .LASF231
     /tmp/ccGNPDYB.s:6658   .debug_str:0000000000000908 .LASF232
     /tmp/ccGNPDYB.s:6364   .debug_str:0000000000000010 .LASF233
     /tmp/ccGNPDYB.s:6630   .debug_str:0000000000000846 .LASF234
     /tmp/ccGNPDYB.s:6786   .debug_str:0000000000000d36 .LASF235
     /tmp/ccGNPDYB.s:6714   .debug_str:0000000000000a9a .LASF236
GAS LISTING /tmp/ccGNPDYB.s 			page 63


     /tmp/ccGNPDYB.s:6524   .debug_str:0000000000000517 .LASF237
     /tmp/ccGNPDYB.s:6852   .debug_str:0000000000000f1e .LASF238
     /tmp/ccGNPDYB.s:6728   .debug_str:0000000000000ad6 .LASF239
     /tmp/ccGNPDYB.s:6366   .debug_str:0000000000000022 .LASF240
     /tmp/ccGNPDYB.s:1399   .text:0000000000000970 .LVL161
     /tmp/ccGNPDYB.s:1392   .text:0000000000000968 .LVL160
     /tmp/ccGNPDYB.s:1425   .text:00000000000009a0 .LVL164
     /tmp/ccGNPDYB.s:1419   .text:0000000000000998 .LVL163
     /tmp/ccGNPDYB.s:1453   .text:00000000000009e4 .LVL167
     /tmp/ccGNPDYB.s:1463   .text:00000000000009ec .LVL168
     /tmp/ccGNPDYB.s:274    .text:0000000000000198 .LVL28
     /tmp/ccGNPDYB.s:293    .text:00000000000001b8 .LVL30
     /tmp/ccGNPDYB.s:288    .text:00000000000001b0 .LVL29
     /tmp/ccGNPDYB.s:427    .text:0000000000000298 .LVL48
     /tmp/ccGNPDYB.s:302    .text:00000000000001c8 .LVL32
     /tmp/ccGNPDYB.s:341    .text:00000000000001fc .LVL38
     /tmp/ccGNPDYB.s:372    .text:0000000000000240 .LVL42
     /tmp/ccGNPDYB.s:324    .text:00000000000001e4 .LVL35
     /tmp/ccGNPDYB.s:333    .text:00000000000001f8 .LVL37
     /tmp/ccGNPDYB.s:968    .text:0000000000000624 .LVL113
     /tmp/ccGNPDYB.s:986    .text:0000000000000640 .LVL115
     /tmp/ccGNPDYB.s:982    .text:000000000000063c .LVL114
     /tmp/ccGNPDYB.s:1002   .text:0000000000000668 .LVL119
     /tmp/ccGNPDYB.s:1012   .text:000000000000067c .LVL121
     /tmp/ccGNPDYB.s:1014   .text:0000000000000680 .LVL122
     /tmp/ccGNPDYB.s:1098   .text:000000000000074c .LVL137
     /tmp/ccGNPDYB.s:1100   .text:0000000000000750 .LVL138
     /tmp/ccGNPDYB.s:1127   .text:0000000000000788 .LVL141
     /tmp/ccGNPDYB.s:1062   .text:00000000000006ec .LVL129
     /tmp/ccGNPDYB.s:1066   .text:00000000000006f4 .LVL130
     /tmp/ccGNPDYB.s:1130   .text:000000000000078c .LVL142
     /tmp/ccGNPDYB.s:771    .text:00000000000004a8 .LVL82
     /tmp/ccGNPDYB.s:789    .text:00000000000004c8 .LVL84
     /tmp/ccGNPDYB.s:785    .text:00000000000004c0 .LVL83
     /tmp/ccGNPDYB.s:808    .text:00000000000004f8 .LVL88
     /tmp/ccGNPDYB.s:810    .text:00000000000004fc .LVL89
     /tmp/ccGNPDYB.s:908    .text:00000000000005dc .LVL107
     /tmp/ccGNPDYB.s:910    .text:00000000000005e0 .LVL108
     /tmp/ccGNPDYB.s:937    .text:0000000000000618 .LVL111
     /tmp/ccGNPDYB.s:844    .text:0000000000000534 .LVL93
     /tmp/ccGNPDYB.s:867    .text:0000000000000570 .LVL98
     /tmp/ccGNPDYB.s:871    .text:0000000000000578 .LVL99
     /tmp/ccGNPDYB.s:940    .text:000000000000061c .LVL112
     /tmp/ccGNPDYB.s:449    .text:00000000000002a0 .LVL49
     /tmp/ccGNPDYB.s:468    .text:00000000000002c0 .LVL51
     /tmp/ccGNPDYB.s:463    .text:00000000000002b8 .LVL50
     /tmp/ccGNPDYB.s:589    .text:00000000000003a4 .LVL68
     /tmp/ccGNPDYB.s:489    .text:00000000000002f4 .LVL55
     /tmp/ccGNPDYB.s:528    .text:0000000000000328 .LVL61
     /tmp/ccGNPDYB.s:561    .text:0000000000000370 .LVL65
     /tmp/ccGNPDYB.s:511    .text:0000000000000310 .LVL58
     /tmp/ccGNPDYB.s:520    .text:0000000000000324 .LVL60
     /tmp/ccGNPDYB.s:119    .text:000000000000009c .LVL9
     /tmp/ccGNPDYB.s:138    .text:00000000000000bc .LVL11
     /tmp/ccGNPDYB.s:133    .text:00000000000000b4 .LVL10
     /tmp/ccGNPDYB.s:252    .text:0000000000000190 .LVL27
     /tmp/ccGNPDYB.s:178    .text:00000000000000f0 .LVL17
GAS LISTING /tmp/ccGNPDYB.s 			page 64


     /tmp/ccGNPDYB.s:204    .text:000000000000012c .LVL21
     /tmp/ccGNPDYB.s:161    .text:00000000000000d8 .LVL14
     /tmp/ccGNPDYB.s:170    .text:00000000000000ec .LVL16
     /tmp/ccGNPDYB.s:683    .text:0000000000000434 .LVL75
     /tmp/ccGNPDYB.s:706    .text:0000000000000464 .LVL76
     /tmp/ccGNPDYB.s:730    .text:0000000000000490 .LVL79
     /tmp/ccGNPDYB.s:736    .text:000000000000049c .LVL80
     /tmp/ccGNPDYB.s:623    .text:00000000000003d0 .LVL70
     /tmp/ccGNPDYB.s:628    .text:00000000000003d8 .LVL71
     /tmp/ccGNPDYB.s:669    .text:000000000000042c .LVL74
     /tmp/ccGNPDYB.s:22     .text:0000000000000000 .LVL0
     /tmp/ccGNPDYB.s:42     .text:0000000000000020 .LVL2
     /tmp/ccGNPDYB.s:38     .text:000000000000001c .LVL1
     /tmp/ccGNPDYB.s:76     .text:000000000000006c .LVL8
     /tmp/ccGNPDYB.s:47     .text:0000000000000024 .LVL3
     /tmp/ccGNPDYB.s:1537   .debug_info:0000000000000000 .Ldebug_info0
     /tmp/ccGNPDYB.s:141    .text:00000000000000bc .LBB32
     /tmp/ccGNPDYB.s:174    .text:00000000000000ec .LBE32
     /tmp/ccGNPDYB.s:200    .text:0000000000000124 .LBB36
     /tmp/ccGNPDYB.s:206    .text:000000000000012c .LBE36
     /tmp/ccGNPDYB.s:304    .text:00000000000001c8 .LBB40
     /tmp/ccGNPDYB.s:337    .text:00000000000001f8 .LBE40
     /tmp/ccGNPDYB.s:368    .text:0000000000000238 .LBB44
     /tmp/ccGNPDYB.s:374    .text:0000000000000240 .LBE44
     /tmp/ccGNPDYB.s:491    .text:00000000000002f4 .LBB51
     /tmp/ccGNPDYB.s:524    .text:0000000000000324 .LBE51
     /tmp/ccGNPDYB.s:557    .text:0000000000000368 .LBB55
     /tmp/ccGNPDYB.s:563    .text:0000000000000370 .LBE55

UNDEFINED SYMBOLS
_Z11printStringPKc
_Z12printIntegerm
_Z10time_sleepm
_Z15thread_dispatchv
_Z4getcv
_Z4putcc
_ZN5Riscv10getCBufferE
_Z10sem_signalP4_sem
_Z13thread_createPP3TCBPFvPvES2_
_Z8sem_waitP4_sem
_ZN5Riscv14supervisorTrapEv
_ZN3TCB16outputThreadBodyEPv
_Znwm
_ZN5Riscv10putCBufferE
_Z8sem_openPP4_semj
_ZN3TCB7runningE
