GAS LISTING /tmp/ccVyU0J5.s 			page 1


   1              		.file	"main.cpp"
   2              		.option pic
   3              		.option norelax
   4              		.text
   5              	.Ltext0:
   6              		.section	.rodata.str1.8,"aMS",@progbits,1
   7              		.align	3
   8              	.LC0:
   9 0000 413A2069 		.string	"A: i="
   9      3D00
  10 0006 0000     		.align	3
  11              	.LC1:
  12 0008 0A00     		.string	"\n"
  13 000a 00000000 		.align	3
  13      0000
  14              	.LC2:
  15 0010 41206669 		.string	"A finished!\n"
  15      6E697368 
  15      6564210A 
  15      00
  16              		.text
  17              		.align	2
  18              		.globl	_Z12workerBodyA2Pv
  20              	_Z12workerBodyA2Pv:
  21              	.LFB47:
  22              		.file 1 "src/main.cpp"
   1:src/main.cpp  **** //
   2:src/main.cpp  **** // Created by marko on 20.4.22..
   3:src/main.cpp  **** //
   4:src/main.cpp  **** 
   5:src/main.cpp  **** #include "../h/tcb.hpp"
   6:src/main.cpp  **** #include "../h/riscv.hpp"
   7:src/main.cpp  **** #include "../h/print.hpp"
   8:src/main.cpp  **** #include "../h/syscall_c.h"
   9:src/main.cpp  **** 
  10:src/main.cpp  **** bool finishedA = false;
  11:src/main.cpp  **** bool finishedB = false;
  12:src/main.cpp  **** bool finishedC = false;
  13:src/main.cpp  **** bool finishedD = false;
  14:src/main.cpp  **** 
  15:src/main.cpp  **** uint64 fibonacci(uint64 n) {
  16:src/main.cpp  ****     if (n == 0 || n == 1) { return n; }
  17:src/main.cpp  ****     if (n % 10 == 0) { thread_dispatch(); }
  18:src/main.cpp  ****     return fibonacci(n - 1) + fibonacci(n - 2);
  19:src/main.cpp  **** }
  20:src/main.cpp  **** 
  21:src/main.cpp  **** void workerBodyA2(void* arg) {
  23              		.loc 1 21 30
  24              		.cfi_startproc
  25              	.LVL0:
  26 0000 130101FE 		addi	sp,sp,-32
  27              		.cfi_def_cfa_offset 32
  28 0004 233C1100 		sd	ra,24(sp)
  29 0008 23388100 		sd	s0,16(sp)
  30 000c 23349100 		sd	s1,8(sp)
  31 0010 23302101 		sd	s2,0(sp)
  32              		.cfi_offset 1, -8
GAS LISTING /tmp/ccVyU0J5.s 			page 2


  33              		.cfi_offset 8, -16
  34              		.cfi_offset 9, -24
  35              		.cfi_offset 18, -32
  36 0014 13040102 		addi	s0,sp,32
  37              		.cfi_def_cfa 8, 0
  22:src/main.cpp  ****     for (uint64 i = 0; i < 10; i++) {
  38              		.loc 1 22 5
  39              	.LVL1:
  40              	.LBB6:
  41              		.loc 1 22 17 is_stmt 0
  42 0018 13090000 		li	s2,0
  43 001c 6F000004 		j	.L7
  44              	.LVL2:
  45              	.L4:
  46              	.LBB7:
  47              	.LBB8:
  48              	.LBB9:
  23:src/main.cpp  ****         printString("A: i="); printInteger(i); printString("\n");
  24:src/main.cpp  ****         for (uint64 j = 0; j < 10000; j++) {
  25:src/main.cpp  ****             for (uint64 k = 0; k < 30000; k++) { /* busy wait */ }
  26:src/main.cpp  ****             thread_dispatch();
  49              		.loc 1 26 13 is_stmt 1 discriminator 2
  50              		.loc 1 26 28 is_stmt 0 discriminator 2
  51 0020 97000000 		call	_Z15thread_dispatchv@plt
  51      E7800000 
  52              	.LVL3:
  53              	.LBE9:
  24:src/main.cpp  ****             for (uint64 k = 0; k < 30000; k++) { /* busy wait */ }
  54              		.loc 1 24 9 is_stmt 1 discriminator 2
  55 0028 93841400 		addi	s1,s1,1
  56              	.LVL4:
  57              	.L6:
  24:src/main.cpp  ****             for (uint64 k = 0; k < 30000; k++) { /* busy wait */ }
  58              		.loc 1 24 30 discriminator 1
  59 002c B7270000 		li	a5,8192
  60 0030 9387F770 		addi	a5,a5,1807
  61 0034 63EE9700 		bgtu	s1,a5,.L3
  62              	.LBB11:
  63              	.LBB10:
  25:src/main.cpp  ****             thread_dispatch();
  64              		.loc 1 25 25 is_stmt 0
  65 0038 13070000 		li	a4,0
  66              	.L5:
  67              	.LVL5:
  25:src/main.cpp  ****             thread_dispatch();
  68              		.loc 1 25 34 is_stmt 1 discriminator 3
  69 003c B7770000 		li	a5,28672
  70 0040 9387F752 		addi	a5,a5,1327
  71 0044 E3EEE7FC 		bgtu	a4,a5,.L4
  25:src/main.cpp  ****             thread_dispatch();
  72              		.loc 1 25 13 discriminator 2
  73 0048 13071700 		addi	a4,a4,1
  74              	.LVL6:
  75 004c 6FF01FFF 		j	.L5
  76              	.LVL7:
  77              	.L3:
  78              	.LBE10:
GAS LISTING /tmp/ccVyU0J5.s 			page 3


  79              	.LBE11:
  80              	.LBE8:
  27:src/main.cpp  ****         }
  28:src/main.cpp  ****         thread_exit();
  81              		.loc 1 28 9 discriminator 2
  82              		.loc 1 28 20 is_stmt 0 discriminator 2
  83 0050 97000000 		call	_Z11thread_exitv@plt
  83      E7800000 
  84              	.LVL8:
  85              	.LBE7:
  22:src/main.cpp  ****         printString("A: i="); printInteger(i); printString("\n");
  86              		.loc 1 22 5 is_stmt 1 discriminator 2
  87 0058 13091900 		addi	s2,s2,1
  88              	.LVL9:
  89              	.L7:
  22:src/main.cpp  ****         printString("A: i="); printInteger(i); printString("\n");
  90              		.loc 1 22 26 discriminator 1
  91 005c 93079000 		li	a5,9
  92 0060 63EC2703 		bgtu	s2,a5,.L2
  93              	.LBB13:
  23:src/main.cpp  ****         for (uint64 j = 0; j < 10000; j++) {
  94              		.loc 1 23 9
  23:src/main.cpp  ****         for (uint64 j = 0; j < 10000; j++) {
  95              		.loc 1 23 20 is_stmt 0
  96 0064 17050000 		lla	a0,.LC0
  96      13050500 
  97 006c 97000000 		call	_Z11printStringPKc@plt
  97      E7800000 
  98              	.LVL10:
  23:src/main.cpp  ****         for (uint64 j = 0; j < 10000; j++) {
  99              		.loc 1 23 31 is_stmt 1
  23:src/main.cpp  ****         for (uint64 j = 0; j < 10000; j++) {
 100              		.loc 1 23 43 is_stmt 0
 101 0074 13050900 		mv	a0,s2
 102 0078 97000000 		call	_Z12printIntegerm@plt
 102      E7800000 
 103              	.LVL11:
  23:src/main.cpp  ****         for (uint64 j = 0; j < 10000; j++) {
 104              		.loc 1 23 48 is_stmt 1
  23:src/main.cpp  ****         for (uint64 j = 0; j < 10000; j++) {
 105              		.loc 1 23 59 is_stmt 0
 106 0080 17050000 		lla	a0,.LC1
 106      13050500 
 107 0088 97000000 		call	_Z11printStringPKc@plt
 107      E7800000 
 108              	.LVL12:
  24:src/main.cpp  ****             for (uint64 k = 0; k < 30000; k++) { /* busy wait */ }
 109              		.loc 1 24 9 is_stmt 1
 110              	.LBB12:
  24:src/main.cpp  ****             for (uint64 k = 0; k < 30000; k++) { /* busy wait */ }
 111              		.loc 1 24 21 is_stmt 0
 112 0090 93040000 		li	s1,0
 113 0094 6FF09FF9 		j	.L6
 114              	.LVL13:
 115              	.L2:
 116              	.LBE12:
 117              	.LBE13:
GAS LISTING /tmp/ccVyU0J5.s 			page 4


 118              	.LBE6:
  29:src/main.cpp  ****     }
  30:src/main.cpp  ****     printString("A finished!\n");
 119              		.loc 1 30 5 is_stmt 1
 120              		.loc 1 30 16 is_stmt 0
 121 0098 17050000 		lla	a0,.LC2
 121      13050500 
 122 00a0 97000000 		call	_Z11printStringPKc@plt
 122      E7800000 
 123              	.LVL14:
  31:src/main.cpp  ****     finishedA = true;
 124              		.loc 1 31 5 is_stmt 1
 125              		.loc 1 31 15 is_stmt 0
 126 00a8 93071000 		li	a5,1
 127 00ac 17070000 		sb	a5,.LANCHOR0,a4
 127      2300F700 
  32:src/main.cpp  **** }
 128              		.loc 1 32 1
 129 00b4 83308101 		ld	ra,24(sp)
 130              		.cfi_restore 1
 131 00b8 03340101 		ld	s0,16(sp)
 132              		.cfi_restore 8
 133              		.cfi_def_cfa 2, 32
 134 00bc 83348100 		ld	s1,8(sp)
 135              		.cfi_restore 9
 136 00c0 03390100 		ld	s2,0(sp)
 137              		.cfi_restore 18
 138              	.LVL15:
 139 00c4 13010102 		addi	sp,sp,32
 140              		.cfi_def_cfa_offset 0
 141 00c8 67800000 		jr	ra
 142              		.cfi_endproc
 143              	.LFE47:
 145              		.section	.rodata.str1.8
 146 001d 000000   		.align	3
 147              	.LC3:
 148 0020 423A2069 		.string	"B: i="
 148      3D00
 149 0026 0000     		.align	3
 150              	.LC4:
 151 0028 42206669 		.string	"B finished!\n"
 151      6E697368 
 151      6564210A 
 151      00
 152              		.text
 153              		.align	2
 154              		.globl	_Z12workerBodyB2Pv
 156              	_Z12workerBodyB2Pv:
 157              	.LFB48:
  33:src/main.cpp  **** 
  34:src/main.cpp  **** void workerBodyB2(void* arg) {
 158              		.loc 1 34 30 is_stmt 1
 159              		.cfi_startproc
 160              	.LVL16:
 161 00cc 130101FE 		addi	sp,sp,-32
 162              		.cfi_def_cfa_offset 32
 163 00d0 233C1100 		sd	ra,24(sp)
GAS LISTING /tmp/ccVyU0J5.s 			page 5


 164 00d4 23388100 		sd	s0,16(sp)
 165 00d8 23349100 		sd	s1,8(sp)
 166 00dc 23302101 		sd	s2,0(sp)
 167              		.cfi_offset 1, -8
 168              		.cfi_offset 8, -16
 169              		.cfi_offset 9, -24
 170              		.cfi_offset 18, -32
 171 00e0 13040102 		addi	s0,sp,32
 172              		.cfi_def_cfa 8, 0
  35:src/main.cpp  ****     for (uint64 i = 0; i < 16; i++) {
 173              		.loc 1 35 5
 174              	.LVL17:
 175              	.LBB14:
 176              		.loc 1 35 17 is_stmt 0
 177 00e4 13090000 		li	s2,0
 178 00e8 6F008004 		j	.L16
 179              	.LVL18:
 180              	.L18:
 181              	.LBB15:
  36:src/main.cpp  ****         if (i == 8){
  37:src/main.cpp  ****             time_sleep(50);
 182              		.loc 1 37 13 is_stmt 1
 183              		.loc 1 37 23 is_stmt 0
 184 00ec 13052003 		li	a0,50
 185 00f0 97000000 		call	_Z10time_sleepm@plt
 185      E7800000 
 186              	.LVL19:
 187 00f8 6F008004 		j	.L11
 188              	.LVL20:
 189              	.L13:
 190              	.LBB16:
 191              	.LBB17:
  38:src/main.cpp  ****         }
  39:src/main.cpp  ****         printString("B: i="); printInteger(i); printString("\n");
  40:src/main.cpp  ****         for (uint64 j = 0; j < 10000; j++) {
  41:src/main.cpp  ****             for (uint64 k = 0; k < 30000; k++) { /* busy wait */ }
  42:src/main.cpp  ****             thread_dispatch();
 192              		.loc 1 42 13 is_stmt 1 discriminator 2
 193              		.loc 1 42 28 is_stmt 0 discriminator 2
 194 00fc 97000000 		call	_Z15thread_dispatchv@plt
 194      E7800000 
 195              	.LVL21:
 196              	.LBE17:
  40:src/main.cpp  ****             for (uint64 k = 0; k < 30000; k++) { /* busy wait */ }
 197              		.loc 1 40 9 is_stmt 1 discriminator 2
 198 0104 93841400 		addi	s1,s1,1
 199              	.LVL22:
 200              	.L15:
  40:src/main.cpp  ****             for (uint64 k = 0; k < 30000; k++) { /* busy wait */ }
 201              		.loc 1 40 30 discriminator 1
 202 0108 B7270000 		li	a5,8192
 203 010c 9387F770 		addi	a5,a5,1807
 204 0110 63EE9700 		bgtu	s1,a5,.L12
 205              	.LBB19:
 206              	.LBB18:
  41:src/main.cpp  ****             thread_dispatch();
 207              		.loc 1 41 25 is_stmt 0
GAS LISTING /tmp/ccVyU0J5.s 			page 6


 208 0114 13070000 		li	a4,0
 209              	.L14:
 210              	.LVL23:
  41:src/main.cpp  ****             thread_dispatch();
 211              		.loc 1 41 34 is_stmt 1 discriminator 3
 212 0118 B7770000 		li	a5,28672
 213 011c 9387F752 		addi	a5,a5,1327
 214 0120 E3EEE7FC 		bgtu	a4,a5,.L13
  41:src/main.cpp  ****             thread_dispatch();
 215              		.loc 1 41 13 discriminator 2
 216 0124 13071700 		addi	a4,a4,1
 217              	.LVL24:
 218 0128 6FF01FFF 		j	.L14
 219              	.LVL25:
 220              	.L12:
 221              	.LBE18:
 222              	.LBE19:
 223              	.LBE16:
 224              	.LBE15:
  35:src/main.cpp  ****         if (i == 8){
 225              		.loc 1 35 5 discriminator 2
 226 012c 13091900 		addi	s2,s2,1
 227              	.LVL26:
 228              	.L16:
  35:src/main.cpp  ****         if (i == 8){
 229              		.loc 1 35 26 discriminator 1
 230 0130 9307F000 		li	a5,15
 231 0134 63E02705 		bgtu	s2,a5,.L10
 232              	.LBB21:
  36:src/main.cpp  ****             time_sleep(50);
 233              		.loc 1 36 9
 234 0138 93078000 		li	a5,8
 235 013c E308F9FA 		beq	s2,a5,.L18
 236              	.L11:
  39:src/main.cpp  ****         for (uint64 j = 0; j < 10000; j++) {
 237              		.loc 1 39 9
  39:src/main.cpp  ****         for (uint64 j = 0; j < 10000; j++) {
 238              		.loc 1 39 20 is_stmt 0
 239 0140 17050000 		lla	a0,.LC3
 239      13050500 
 240 0148 97000000 		call	_Z11printStringPKc@plt
 240      E7800000 
 241              	.LVL27:
  39:src/main.cpp  ****         for (uint64 j = 0; j < 10000; j++) {
 242              		.loc 1 39 31 is_stmt 1
  39:src/main.cpp  ****         for (uint64 j = 0; j < 10000; j++) {
 243              		.loc 1 39 43 is_stmt 0
 244 0150 13050900 		mv	a0,s2
 245 0154 97000000 		call	_Z12printIntegerm@plt
 245      E7800000 
 246              	.LVL28:
  39:src/main.cpp  ****         for (uint64 j = 0; j < 10000; j++) {
 247              		.loc 1 39 48 is_stmt 1
  39:src/main.cpp  ****         for (uint64 j = 0; j < 10000; j++) {
 248              		.loc 1 39 59 is_stmt 0
 249 015c 17050000 		lla	a0,.LC1
 249      13050500 
GAS LISTING /tmp/ccVyU0J5.s 			page 7


 250 0164 97000000 		call	_Z11printStringPKc@plt
 250      E7800000 
 251              	.LVL29:
  40:src/main.cpp  ****             for (uint64 k = 0; k < 30000; k++) { /* busy wait */ }
 252              		.loc 1 40 9 is_stmt 1
 253              	.LBB20:
  40:src/main.cpp  ****             for (uint64 k = 0; k < 30000; k++) { /* busy wait */ }
 254              		.loc 1 40 21 is_stmt 0
 255 016c 93040000 		li	s1,0
 256 0170 6FF09FF9 		j	.L15
 257              	.LVL30:
 258              	.L10:
 259              	.LBE20:
 260              	.LBE21:
 261              	.LBE14:
  43:src/main.cpp  ****         }
  44:src/main.cpp  ****     }
  45:src/main.cpp  ****     printString("B finished!\n");
 262              		.loc 1 45 5 is_stmt 1
 263              		.loc 1 45 16 is_stmt 0
 264 0174 17050000 		lla	a0,.LC4
 264      13050500 
 265 017c 97000000 		call	_Z11printStringPKc@plt
 265      E7800000 
 266              	.LVL31:
  46:src/main.cpp  ****     finishedB = true;
 267              		.loc 1 46 5 is_stmt 1
 268              		.loc 1 46 15 is_stmt 0
 269 0184 93071000 		li	a5,1
 270 0188 17070000 		sb	a5,.LANCHOR0+1,a4
 270      2300F700 
  47:src/main.cpp  ****     thread_dispatch();
 271              		.loc 1 47 5 is_stmt 1
 272              		.loc 1 47 20 is_stmt 0
 273 0190 97000000 		call	_Z15thread_dispatchv@plt
 273      E7800000 
 274              	.LVL32:
  48:src/main.cpp  **** }
 275              		.loc 1 48 1
 276 0198 83308101 		ld	ra,24(sp)
 277              		.cfi_restore 1
 278 019c 03340101 		ld	s0,16(sp)
 279              		.cfi_restore 8
 280              		.cfi_def_cfa 2, 32
 281 01a0 83348100 		ld	s1,8(sp)
 282              		.cfi_restore 9
 283 01a4 03390100 		ld	s2,0(sp)
 284              		.cfi_restore 18
 285              	.LVL33:
 286 01a8 13010102 		addi	sp,sp,32
 287              		.cfi_def_cfa_offset 0
 288 01ac 67800000 		jr	ra
 289              		.cfi_endproc
 290              	.LFE48:
 292              		.align	2
 293              		.globl	_Z9fibonaccim
 295              	_Z9fibonaccim:
GAS LISTING /tmp/ccVyU0J5.s 			page 8


 296              	.LFB46:
  15:src/main.cpp  ****     if (n == 0 || n == 1) { return n; }
 297              		.loc 1 15 28 is_stmt 1
 298              		.cfi_startproc
 299              	.LVL34:
 300 01b0 130101FE 		addi	sp,sp,-32
 301              		.cfi_def_cfa_offset 32
 302 01b4 233C1100 		sd	ra,24(sp)
 303 01b8 23388100 		sd	s0,16(sp)
 304 01bc 23349100 		sd	s1,8(sp)
 305 01c0 23302101 		sd	s2,0(sp)
 306              		.cfi_offset 1, -8
 307              		.cfi_offset 8, -16
 308              		.cfi_offset 9, -24
 309              		.cfi_offset 18, -32
 310 01c4 13040102 		addi	s0,sp,32
 311              		.cfi_def_cfa 8, 0
 312 01c8 93040500 		mv	s1,a0
  16:src/main.cpp  ****     if (n % 10 == 0) { thread_dispatch(); }
 313              		.loc 1 16 5
 314 01cc 93071000 		li	a5,1
 315 01d0 63F8A702 		bleu	a0,a5,.L19
  17:src/main.cpp  ****     return fibonacci(n - 1) + fibonacci(n - 2);
 316              		.loc 1 17 5
  17:src/main.cpp  ****     return fibonacci(n - 1) + fibonacci(n - 2);
 317              		.loc 1 17 11 is_stmt 0
 318 01d4 9307A000 		li	a5,10
 319 01d8 B377F502 		remu	a5,a0,a5
  17:src/main.cpp  ****     return fibonacci(n - 1) + fibonacci(n - 2);
 320              		.loc 1 17 5
 321 01dc 638E0702 		beqz	a5,.L24
 322              	.LVL35:
 323              	.L21:
  18:src/main.cpp  **** }
 324              		.loc 1 18 5 is_stmt 1
  18:src/main.cpp  **** }
 325              		.loc 1 18 21 is_stmt 0
 326 01e0 1385F4FF 		addi	a0,s1,-1
 327 01e4 97000000 		call	_Z9fibonaccim
 327      E7800000 
 328              	.LVL36:
 329 01ec 13090500 		mv	s2,a0
  18:src/main.cpp  **** }
 330              		.loc 1 18 40
 331 01f0 1385E4FF 		addi	a0,s1,-2
 332 01f4 97000000 		call	_Z9fibonaccim
 332      E7800000 
 333              	.LVL37:
  18:src/main.cpp  **** }
 334              		.loc 1 18 46
 335 01fc 3305A900 		add	a0,s2,a0
 336              	.L19:
  19:src/main.cpp  **** 
 337              		.loc 1 19 1
 338 0200 83308101 		ld	ra,24(sp)
 339              		.cfi_remember_state
 340              		.cfi_restore 1
GAS LISTING /tmp/ccVyU0J5.s 			page 9


 341 0204 03340101 		ld	s0,16(sp)
 342              		.cfi_restore 8
 343              		.cfi_def_cfa 2, 32
 344 0208 83348100 		ld	s1,8(sp)
 345              		.cfi_restore 9
 346              	.LVL38:
 347 020c 03390100 		ld	s2,0(sp)
 348              		.cfi_restore 18
 349 0210 13010102 		addi	sp,sp,32
 350              		.cfi_def_cfa_offset 0
 351 0214 67800000 		jr	ra
 352              	.LVL39:
 353              	.L24:
 354              		.cfi_restore_state
  17:src/main.cpp  ****     return fibonacci(n - 1) + fibonacci(n - 2);
 355              		.loc 1 17 24 is_stmt 1 discriminator 1
  17:src/main.cpp  ****     return fibonacci(n - 1) + fibonacci(n - 2);
 356              		.loc 1 17 39 is_stmt 0 discriminator 1
 357 0218 97000000 		call	_Z15thread_dispatchv@plt
 357      E7800000 
 358              	.LVL40:
 359 0220 6FF01FFC 		j	.L21
 360              		.cfi_endproc
 361              	.LFE46:
 363              		.section	.rodata.str1.8
 364 0035 000000   		.align	3
 365              	.LC5:
 366 0038 433A2069 		.string	"C: i="
 366      3D00
 367 003e 0000     		.align	3
 368              	.LC6:
 369 0040 433A2064 		.string	"C: dispatch\n"
 369      69737061 
 369      7463680A 
 369      00
 370 004d 000000   		.align	3
 371              	.LC7:
 372 0050 433A2074 		.string	"C: t1="
 372      313D00
 373 0057 00       		.align	3
 374              	.LC8:
 375 0058 433A2066 		.string	"C: fibonaci="
 375      69626F6E 
 375      6163693D 
 375      00
 376 0065 000000   		.align	3
 377              	.LC9:
 378 0068 43206669 		.string	"C finished!\n"
 378      6E697368 
 378      6564210A 
 378      00
 379              		.text
 380              		.align	2
 381              		.globl	_Z12workerBodyC2Pv
 383              	_Z12workerBodyC2Pv:
 384              	.LFB49:
  49:src/main.cpp  **** 
GAS LISTING /tmp/ccVyU0J5.s 			page 10


  50:src/main.cpp  **** void workerBodyC2(void* arg) {
 385              		.loc 1 50 30 is_stmt 1
 386              		.cfi_startproc
 387              	.LVL41:
 388 0224 130101FE 		addi	sp,sp,-32
 389              		.cfi_def_cfa_offset 32
 390 0228 233C1100 		sd	ra,24(sp)
 391 022c 23388100 		sd	s0,16(sp)
 392 0230 23349100 		sd	s1,8(sp)
 393 0234 23302101 		sd	s2,0(sp)
 394              		.cfi_offset 1, -8
 395              		.cfi_offset 8, -16
 396              		.cfi_offset 9, -24
 397              		.cfi_offset 18, -32
 398 0238 13040102 		addi	s0,sp,32
 399              		.cfi_def_cfa 8, 0
  51:src/main.cpp  ****     uint8 i = 0;
 400              		.loc 1 51 5
 401              	.LVL42:
 402              		.loc 1 51 11 is_stmt 0
 403 023c 93040000 		li	s1,0
 404 0240 6F008003 		j	.L27
 405              	.LVL43:
 406              	.L31:
  52:src/main.cpp  ****     for (; i < 3; i++) {
  53:src/main.cpp  ****         printString("C: i="); printInteger(i); printString("\n");
 407              		.loc 1 53 9 is_stmt 1 discriminator 1
 408              		.loc 1 53 20 is_stmt 0 discriminator 1
 409 0244 17050000 		lla	a0,.LC5
 409      13050500 
 410 024c 97000000 		call	_Z11printStringPKc@plt
 410      E7800000 
 411              	.LVL44:
 412              		.loc 1 53 31 is_stmt 1 discriminator 1
 413              		.loc 1 53 43 is_stmt 0 discriminator 1
 414 0254 13850400 		mv	a0,s1
 415 0258 97000000 		call	_Z12printIntegerm@plt
 415      E7800000 
 416              	.LVL45:
 417              		.loc 1 53 48 is_stmt 1 discriminator 1
 418              		.loc 1 53 59 is_stmt 0 discriminator 1
 419 0260 17050000 		lla	a0,.LC1
 419      13050500 
 420 0268 97000000 		call	_Z11printStringPKc@plt
 420      E7800000 
 421              	.LVL46:
  52:src/main.cpp  ****     for (; i < 3; i++) {
 422              		.loc 1 52 5 is_stmt 1 discriminator 1
 423 0270 9B841400 		addiw	s1,s1,1
 424              	.LVL47:
 425 0274 93F4F40F 		andi	s1,s1,0xff
 426              	.LVL48:
 427              	.L27:
  52:src/main.cpp  ****     for (; i < 3; i++) {
 428              		.loc 1 52 5 discriminator 2
  52:src/main.cpp  ****     for (; i < 3; i++) {
 429              		.loc 1 52 14 discriminator 2
GAS LISTING /tmp/ccVyU0J5.s 			page 11


 430 0278 93072000 		li	a5,2
 431 027c E3F497FC 		bleu	s1,a5,.L31
  54:src/main.cpp  ****     }
  55:src/main.cpp  **** 
  56:src/main.cpp  ****     printString("C: dispatch\n");
 432              		.loc 1 56 5
 433              		.loc 1 56 16 is_stmt 0
 434 0280 17050000 		lla	a0,.LC6
 434      13050500 
 435 0288 97000000 		call	_Z11printStringPKc@plt
 435      E7800000 
 436              	.LVL49:
  57:src/main.cpp  ****     __asm__ ("li t1, 7");
 437              		.loc 1 57 5 is_stmt 1
 438              		.loc 1 57 25 is_stmt 0
 439              	#APP
 440              	# 57 "src/main.cpp" 1
  58              	    thread_dispatch();
 441              		li t1, 7
 442              	# 0 "" 2
 443              		.loc 1 58 5 is_stmt 1
 444              		.loc 1 58 20 is_stmt 0
 445              	#NO_APP
 446 0294 97000000 		call	_Z15thread_dispatchv@plt
 446      E7800000 
 447              	.LVL50:
  59:src/main.cpp  **** 
  60:src/main.cpp  ****     uint64 t1 = 0;
 448              		.loc 1 60 5 is_stmt 1
  61:src/main.cpp  ****     __asm__ ("mv %[t1], t1" : [t1] "=r"(t1));
 449              		.loc 1 61 5
 450              		.loc 1 61 45 is_stmt 0
 451              	#APP
 452              	# 61 "src/main.cpp" 1
  62              	
 453              		mv s2, t1
 454              	# 0 "" 2
 455              	.LVL51:
  63:src/main.cpp  ****     printString("C: t1="); printInteger(t1); printString("\n");
 456              		.loc 1 63 5 is_stmt 1
 457              		.loc 1 63 16 is_stmt 0
 458              	#NO_APP
 459 02a0 17050000 		lla	a0,.LC7
 459      13050500 
 460 02a8 97000000 		call	_Z11printStringPKc@plt
 460      E7800000 
 461              	.LVL52:
 462              		.loc 1 63 28 is_stmt 1
 463              		.loc 1 63 40 is_stmt 0
 464 02b0 13050900 		mv	a0,s2
 465 02b4 97000000 		call	_Z12printIntegerm@plt
 465      E7800000 
 466              	.LVL53:
 467              		.loc 1 63 46 is_stmt 1
 468              		.loc 1 63 57 is_stmt 0
 469 02bc 17050000 		lla	a0,.LC1
 469      13050500 
GAS LISTING /tmp/ccVyU0J5.s 			page 12


 470 02c4 97000000 		call	_Z11printStringPKc@plt
 470      E7800000 
 471              	.LVL54:
  64:src/main.cpp  **** 
  65:src/main.cpp  ****     uint64 result = fibonacci(12);
 472              		.loc 1 65 5 is_stmt 1
 473              		.loc 1 65 30 is_stmt 0
 474 02cc 1305C000 		li	a0,12
 475 02d0 97000000 		call	_Z9fibonaccim
 475      E7800000 
 476              	.LVL55:
 477 02d8 13090500 		mv	s2,a0
 478              	.LVL56:
  66:src/main.cpp  ****     printString("C: fibonaci="); printInteger(result); printString("\n");
 479              		.loc 1 66 5 is_stmt 1
 480              		.loc 1 66 16 is_stmt 0
 481 02dc 17050000 		lla	a0,.LC8
 481      13050500 
 482              	.LVL57:
 483 02e4 97000000 		call	_Z11printStringPKc@plt
 483      E7800000 
 484              	.LVL58:
 485              		.loc 1 66 34 is_stmt 1
 486              		.loc 1 66 46 is_stmt 0
 487 02ec 13050900 		mv	a0,s2
 488 02f0 97000000 		call	_Z12printIntegerm@plt
 488      E7800000 
 489              	.LVL59:
 490              		.loc 1 66 56 is_stmt 1
 491              		.loc 1 66 67 is_stmt 0
 492 02f8 17050000 		lla	a0,.LC1
 492      13050500 
 493 0300 97000000 		call	_Z11printStringPKc@plt
 493      E7800000 
 494              	.LVL60:
  67:src/main.cpp  ****     time_sleep(100);
 495              		.loc 1 67 5 is_stmt 1
 496              		.loc 1 67 15 is_stmt 0
 497 0308 13054006 		li	a0,100
 498 030c 97000000 		call	_Z10time_sleepm@plt
 498      E7800000 
 499              	.LVL61:
 500 0314 6F008003 		j	.L29
 501              	.L32:
  68:src/main.cpp  ****     for (; i < 6; i++) {
  69:src/main.cpp  ****         printString("C: i="); printInteger(i); printString("\n");
 502              		.loc 1 69 9 is_stmt 1 discriminator 1
 503              		.loc 1 69 20 is_stmt 0 discriminator 1
 504 0318 17050000 		lla	a0,.LC5
 504      13050500 
 505 0320 97000000 		call	_Z11printStringPKc@plt
 505      E7800000 
 506              	.LVL62:
 507              		.loc 1 69 31 is_stmt 1 discriminator 1
 508              		.loc 1 69 43 is_stmt 0 discriminator 1
 509 0328 13850400 		mv	a0,s1
 510 032c 97000000 		call	_Z12printIntegerm@plt
GAS LISTING /tmp/ccVyU0J5.s 			page 13


 510      E7800000 
 511              	.LVL63:
 512              		.loc 1 69 48 is_stmt 1 discriminator 1
 513              		.loc 1 69 59 is_stmt 0 discriminator 1
 514 0334 17050000 		lla	a0,.LC1
 514      13050500 
 515 033c 97000000 		call	_Z11printStringPKc@plt
 515      E7800000 
 516              	.LVL64:
  68:src/main.cpp  ****     for (; i < 6; i++) {
 517              		.loc 1 68 5 is_stmt 1 discriminator 1
 518 0344 9B841400 		addiw	s1,s1,1
 519              	.LVL65:
 520 0348 93F4F40F 		andi	s1,s1,0xff
 521              	.LVL66:
 522              	.L29:
  68:src/main.cpp  ****     for (; i < 6; i++) {
 523              		.loc 1 68 5 discriminator 2
  68:src/main.cpp  ****     for (; i < 6; i++) {
 524              		.loc 1 68 14 discriminator 2
 525 034c 93075000 		li	a5,5
 526 0350 E3F497FC 		bleu	s1,a5,.L32
  70:src/main.cpp  ****     }
  71:src/main.cpp  **** 
  72:src/main.cpp  ****     printString("C finished!\n");
 527              		.loc 1 72 5
 528              		.loc 1 72 16 is_stmt 0
 529 0354 17050000 		lla	a0,.LC9
 529      13050500 
 530 035c 97000000 		call	_Z11printStringPKc@plt
 530      E7800000 
 531              	.LVL67:
  73:src/main.cpp  ****     finishedC = true;
 532              		.loc 1 73 5 is_stmt 1
 533              		.loc 1 73 15 is_stmt 0
 534 0364 93071000 		li	a5,1
 535 0368 17070000 		sb	a5,.LANCHOR0+2,a4
 535      2300F700 
  74:src/main.cpp  ****     thread_dispatch();
 536              		.loc 1 74 5 is_stmt 1
 537              		.loc 1 74 20 is_stmt 0
 538 0370 97000000 		call	_Z15thread_dispatchv@plt
 538      E7800000 
 539              	.LVL68:
  75:src/main.cpp  **** }
 540              		.loc 1 75 1
 541 0378 83308101 		ld	ra,24(sp)
 542              		.cfi_restore 1
 543 037c 03340101 		ld	s0,16(sp)
 544              		.cfi_restore 8
 545              		.cfi_def_cfa 2, 32
 546 0380 83348100 		ld	s1,8(sp)
 547              		.cfi_restore 9
 548              	.LVL69:
 549 0384 03390100 		ld	s2,0(sp)
 550              		.cfi_restore 18
 551              	.LVL70:
GAS LISTING /tmp/ccVyU0J5.s 			page 14


 552 0388 13010102 		addi	sp,sp,32
 553              		.cfi_def_cfa_offset 0
 554 038c 67800000 		jr	ra
 555              		.cfi_endproc
 556              	.LFE49:
 558              		.section	.rodata.str1.8
 559 0075 000000   		.align	3
 560              	.LC10:
 561 0078 443A2069 		.string	"D: i="
 561      3D00
 562 007e 0000     		.align	3
 563              	.LC11:
 564 0080 443A2064 		.string	"D: dispatch\n"
 564      69737061 
 564      7463680A 
 564      00
 565 008d 000000   		.align	3
 566              	.LC12:
 567 0090 443A2066 		.string	"D: fibonaci="
 567      69626F6E 
 567      6163693D 
 567      00
 568 009d 000000   		.align	3
 569              	.LC13:
 570 00a0 44206669 		.string	"D finished!\n"
 570      6E697368 
 570      6564210A 
 570      00
 571              		.text
 572              		.align	2
 573              		.globl	_Z12workerBodyD2Pv
 575              	_Z12workerBodyD2Pv:
 576              	.LFB50:
  76:src/main.cpp  **** 
  77:src/main.cpp  **** void workerBodyD2(void* arg) {
 577              		.loc 1 77 30 is_stmt 1
 578              		.cfi_startproc
 579              	.LVL71:
 580 0390 130101FE 		addi	sp,sp,-32
 581              		.cfi_def_cfa_offset 32
 582 0394 233C1100 		sd	ra,24(sp)
 583 0398 23388100 		sd	s0,16(sp)
 584 039c 23349100 		sd	s1,8(sp)
 585 03a0 23302101 		sd	s2,0(sp)
 586              		.cfi_offset 1, -8
 587              		.cfi_offset 8, -16
 588              		.cfi_offset 9, -24
 589              		.cfi_offset 18, -32
 590 03a4 13040102 		addi	s0,sp,32
 591              		.cfi_def_cfa 8, 0
  78:src/main.cpp  ****     uint8 i = 10;
 592              		.loc 1 78 5
 593              	.LVL72:
 594              		.loc 1 78 11 is_stmt 0
 595 03a8 9304A000 		li	s1,10
 596 03ac 6F008003 		j	.L35
 597              	.LVL73:
GAS LISTING /tmp/ccVyU0J5.s 			page 15


 598              	.L39:
  79:src/main.cpp  ****     for (; i < 13; i++) {
  80:src/main.cpp  ****         printString("D: i="); printInteger(i); printString("\n");
 599              		.loc 1 80 9 is_stmt 1 discriminator 1
 600              		.loc 1 80 20 is_stmt 0 discriminator 1
 601 03b0 17050000 		lla	a0,.LC10
 601      13050500 
 602 03b8 97000000 		call	_Z11printStringPKc@plt
 602      E7800000 
 603              	.LVL74:
 604              		.loc 1 80 31 is_stmt 1 discriminator 1
 605              		.loc 1 80 43 is_stmt 0 discriminator 1
 606 03c0 13850400 		mv	a0,s1
 607 03c4 97000000 		call	_Z12printIntegerm@plt
 607      E7800000 
 608              	.LVL75:
 609              		.loc 1 80 48 is_stmt 1 discriminator 1
 610              		.loc 1 80 59 is_stmt 0 discriminator 1
 611 03cc 17050000 		lla	a0,.LC1
 611      13050500 
 612 03d4 97000000 		call	_Z11printStringPKc@plt
 612      E7800000 
 613              	.LVL76:
  79:src/main.cpp  ****     for (; i < 13; i++) {
 614              		.loc 1 79 5 is_stmt 1 discriminator 1
 615 03dc 9B841400 		addiw	s1,s1,1
 616              	.LVL77:
 617 03e0 93F4F40F 		andi	s1,s1,0xff
 618              	.LVL78:
 619              	.L35:
  79:src/main.cpp  ****     for (; i < 13; i++) {
 620              		.loc 1 79 5 discriminator 2
  79:src/main.cpp  ****     for (; i < 13; i++) {
 621              		.loc 1 79 14 discriminator 2
 622 03e4 9307C000 		li	a5,12
 623 03e8 E3F497FC 		bleu	s1,a5,.L39
  81:src/main.cpp  ****     }
  82:src/main.cpp  **** 
  83:src/main.cpp  ****     printString("D: dispatch\n");
 624              		.loc 1 83 5
 625              		.loc 1 83 16 is_stmt 0
 626 03ec 17050000 		lla	a0,.LC11
 626      13050500 
 627 03f4 97000000 		call	_Z11printStringPKc@plt
 627      E7800000 
 628              	.LVL79:
  84:src/main.cpp  ****     __asm__ ("li t1, 5");
 629              		.loc 1 84 5 is_stmt 1
 630              		.loc 1 84 25 is_stmt 0
 631              	#APP
 632              	# 84 "src/main.cpp" 1
  85              	    thread_dispatch();
 633              		li t1, 5
 634              	# 0 "" 2
 635              		.loc 1 85 5 is_stmt 1
 636              		.loc 1 85 20 is_stmt 0
 637              	#NO_APP
GAS LISTING /tmp/ccVyU0J5.s 			page 16


 638 0400 97000000 		call	_Z15thread_dispatchv@plt
 638      E7800000 
 639              	.LVL80:
  86:src/main.cpp  **** 
  87:src/main.cpp  ****     uint64 result = fibonacci(16);
 640              		.loc 1 87 5 is_stmt 1
 641              		.loc 1 87 30 is_stmt 0
 642 0408 13050001 		li	a0,16
 643 040c 97000000 		call	_Z9fibonaccim
 643      E7800000 
 644              	.LVL81:
 645 0414 13090500 		mv	s2,a0
 646              	.LVL82:
  88:src/main.cpp  ****     printString("D: fibonaci="); printInteger(result); printString("\n");
 647              		.loc 1 88 5 is_stmt 1
 648              		.loc 1 88 16 is_stmt 0
 649 0418 17050000 		lla	a0,.LC12
 649      13050500 
 650              	.LVL83:
 651 0420 97000000 		call	_Z11printStringPKc@plt
 651      E7800000 
 652              	.LVL84:
 653              		.loc 1 88 34 is_stmt 1
 654              		.loc 1 88 46 is_stmt 0
 655 0428 13050900 		mv	a0,s2
 656 042c 97000000 		call	_Z12printIntegerm@plt
 656      E7800000 
 657              	.LVL85:
 658              		.loc 1 88 56 is_stmt 1
 659              		.loc 1 88 67 is_stmt 0
 660 0434 17050000 		lla	a0,.LC1
 660      13050500 
 661 043c 97000000 		call	_Z11printStringPKc@plt
 661      E7800000 
 662              	.LVL86:
 663 0444 6F008003 		j	.L37
 664              	.L40:
  89:src/main.cpp  **** 
  90:src/main.cpp  ****     for (; i < 16; i++) {
  91:src/main.cpp  ****         printString("D: i="); printInteger(i); printString("\n");
 665              		.loc 1 91 9 is_stmt 1 discriminator 1
 666              		.loc 1 91 20 is_stmt 0 discriminator 1
 667 0448 17050000 		lla	a0,.LC10
 667      13050500 
 668 0450 97000000 		call	_Z11printStringPKc@plt
 668      E7800000 
 669              	.LVL87:
 670              		.loc 1 91 31 is_stmt 1 discriminator 1
 671              		.loc 1 91 43 is_stmt 0 discriminator 1
 672 0458 13850400 		mv	a0,s1
 673 045c 97000000 		call	_Z12printIntegerm@plt
 673      E7800000 
 674              	.LVL88:
 675              		.loc 1 91 48 is_stmt 1 discriminator 1
 676              		.loc 1 91 59 is_stmt 0 discriminator 1
 677 0464 17050000 		lla	a0,.LC1
 677      13050500 
GAS LISTING /tmp/ccVyU0J5.s 			page 17


 678 046c 97000000 		call	_Z11printStringPKc@plt
 678      E7800000 
 679              	.LVL89:
  90:src/main.cpp  ****         printString("D: i="); printInteger(i); printString("\n");
 680              		.loc 1 90 5 is_stmt 1 discriminator 1
 681 0474 9B841400 		addiw	s1,s1,1
 682              	.LVL90:
 683 0478 93F4F40F 		andi	s1,s1,0xff
 684              	.LVL91:
 685              	.L37:
  90:src/main.cpp  ****         printString("D: i="); printInteger(i); printString("\n");
 686              		.loc 1 90 5 discriminator 2
  90:src/main.cpp  ****         printString("D: i="); printInteger(i); printString("\n");
 687              		.loc 1 90 14 discriminator 2
 688 047c 9307F000 		li	a5,15
 689 0480 E3F497FC 		bleu	s1,a5,.L40
  92:src/main.cpp  ****     }
  93:src/main.cpp  **** 
  94:src/main.cpp  ****     printString("D finished!\n");
 690              		.loc 1 94 5
 691              		.loc 1 94 16 is_stmt 0
 692 0484 17050000 		lla	a0,.LC13
 692      13050500 
 693 048c 97000000 		call	_Z11printStringPKc@plt
 693      E7800000 
 694              	.LVL92:
  95:src/main.cpp  ****     finishedD = true;
 695              		.loc 1 95 5 is_stmt 1
 696              		.loc 1 95 15 is_stmt 0
 697 0494 93071000 		li	a5,1
 698 0498 17070000 		sb	a5,.LANCHOR0+3,a4
 698      2300F700 
  96:src/main.cpp  ****     thread_dispatch();
 699              		.loc 1 96 5 is_stmt 1
 700              		.loc 1 96 20 is_stmt 0
 701 04a0 97000000 		call	_Z15thread_dispatchv@plt
 701      E7800000 
 702              	.LVL93:
  97:src/main.cpp  **** }
 703              		.loc 1 97 1
 704 04a8 83308101 		ld	ra,24(sp)
 705              		.cfi_restore 1
 706 04ac 03340101 		ld	s0,16(sp)
 707              		.cfi_restore 8
 708              		.cfi_def_cfa 2, 32
 709 04b0 83348100 		ld	s1,8(sp)
 710              		.cfi_restore 9
 711              	.LVL94:
 712 04b4 03390100 		ld	s2,0(sp)
 713              		.cfi_restore 18
 714              	.LVL95:
 715 04b8 13010102 		addi	sp,sp,32
 716              		.cfi_def_cfa_offset 0
 717 04bc 67800000 		jr	ra
 718              		.cfi_endproc
 719              	.LFE50:
 721              		.section	.rodata.str1.8
GAS LISTING /tmp/ccVyU0J5.s 			page 18


 722 00ad 000000   		.align	3
 723              	.LC14:
 724 00b0 54687265 		.string	"ThreadA created\n"
 724      61644120 
 724      63726561 
 724      7465640A 
 724      00
 725 00c1 00000000 		.align	3
 725      000000
 726              	.LC15:
 727 00c8 54687265 		.string	"ThreadB created\n"
 727      61644220 
 727      63726561 
 727      7465640A 
 727      00
 728 00d9 00000000 		.align	3
 728      000000
 729              	.LC16:
 730 00e0 54687265 		.string	"ThreadC created\n"
 730      61644320 
 730      63726561 
 730      7465640A 
 730      00
 731 00f1 00000000 		.align	3
 731      000000
 732              	.LC17:
 733 00f8 54687265 		.string	"ThreadD created\n"
 733      61644420 
 733      63726561 
 733      7465640A 
 733      00
 734              		.text
 735              		.align	2
 736              		.globl	_Z18Threads_C_API_testv
 738              	_Z18Threads_C_API_testv:
 739              	.LFB51:
  98:src/main.cpp  **** 
  99:src/main.cpp  **** 
 100:src/main.cpp  **** void Threads_C_API_test() {
 740              		.loc 1 100 27 is_stmt 1
 741              		.cfi_startproc
 742 04c0 130101FD 		addi	sp,sp,-48
 743              		.cfi_def_cfa_offset 48
 744 04c4 23341102 		sd	ra,40(sp)
 745 04c8 23308102 		sd	s0,32(sp)
 746              		.cfi_offset 1, -8
 747              		.cfi_offset 8, -16
 748 04cc 13040103 		addi	s0,sp,48
 749              		.cfi_def_cfa 8, 0
 101:src/main.cpp  ****     thread_t threads[4];
 750              		.loc 1 101 5
 102:src/main.cpp  ****     thread_create(&threads[0], workerBodyA2, nullptr);
 751              		.loc 1 102 5
 752              		.loc 1 102 18 is_stmt 0
 753 04d0 13060000 		li	a2,0
 754 04d4 97050000 		lla	a1,_Z12workerBodyA2Pv
 754      93850500 
GAS LISTING /tmp/ccVyU0J5.s 			page 19


 755 04dc 130504FD 		addi	a0,s0,-48
 756 04e0 97000000 		call	_Z13thread_createPP3TCBPFvPvES2_@plt
 756      E7800000 
 757              	.LVL96:
 103:src/main.cpp  ****     printString("ThreadA created\n");
 758              		.loc 1 103 5 is_stmt 1
 759              		.loc 1 103 16 is_stmt 0
 760 04e8 17050000 		lla	a0,.LC14
 760      13050500 
 761 04f0 97000000 		call	_Z11printStringPKc@plt
 761      E7800000 
 762              	.LVL97:
 104:src/main.cpp  **** 
 105:src/main.cpp  ****     thread_create(&threads[1], workerBodyB2, nullptr);
 763              		.loc 1 105 5 is_stmt 1
 764              		.loc 1 105 18 is_stmt 0
 765 04f8 13060000 		li	a2,0
 766 04fc 97050000 		lla	a1,_Z12workerBodyB2Pv
 766      93850500 
 767 0504 130584FD 		addi	a0,s0,-40
 768 0508 97000000 		call	_Z13thread_createPP3TCBPFvPvES2_@plt
 768      E7800000 
 769              	.LVL98:
 106:src/main.cpp  ****     printString("ThreadB created\n");
 770              		.loc 1 106 5 is_stmt 1
 771              		.loc 1 106 16 is_stmt 0
 772 0510 17050000 		lla	a0,.LC15
 772      13050500 
 773 0518 97000000 		call	_Z11printStringPKc@plt
 773      E7800000 
 774              	.LVL99:
 107:src/main.cpp  **** 
 108:src/main.cpp  ****     thread_create(&threads[2], workerBodyC2, nullptr);
 775              		.loc 1 108 5 is_stmt 1
 776              		.loc 1 108 18 is_stmt 0
 777 0520 13060000 		li	a2,0
 778 0524 97050000 		lla	a1,_Z12workerBodyC2Pv
 778      93850500 
 779 052c 130504FE 		addi	a0,s0,-32
 780 0530 97000000 		call	_Z13thread_createPP3TCBPFvPvES2_@plt
 780      E7800000 
 781              	.LVL100:
 109:src/main.cpp  ****     printString("ThreadC created\n");
 782              		.loc 1 109 5 is_stmt 1
 783              		.loc 1 109 16 is_stmt 0
 784 0538 17050000 		lla	a0,.LC16
 784      13050500 
 785 0540 97000000 		call	_Z11printStringPKc@plt
 785      E7800000 
 786              	.LVL101:
 110:src/main.cpp  **** 
 111:src/main.cpp  ****     thread_create(&threads[3], workerBodyD2, nullptr);
 787              		.loc 1 111 5 is_stmt 1
 788              		.loc 1 111 18 is_stmt 0
 789 0548 13060000 		li	a2,0
 790 054c 97050000 		lla	a1,_Z12workerBodyD2Pv
 790      93850500 
GAS LISTING /tmp/ccVyU0J5.s 			page 20


 791 0554 130584FE 		addi	a0,s0,-24
 792 0558 97000000 		call	_Z13thread_createPP3TCBPFvPvES2_@plt
 792      E7800000 
 793              	.LVL102:
 112:src/main.cpp  ****     printString("ThreadD created\n");
 794              		.loc 1 112 5 is_stmt 1
 795              		.loc 1 112 16 is_stmt 0
 796 0560 17050000 		lla	a0,.LC17
 796      13050500 
 797 0568 97000000 		call	_Z11printStringPKc@plt
 797      E7800000 
 798              	.LVL103:
 799 0570 6F00C000 		j	.L44
 800              	.L42:
 113:src/main.cpp  **** 
 114:src/main.cpp  ****     while (!(finishedA && finishedB && finishedC && finishedD)) {
 115:src/main.cpp  ****         thread_dispatch();
 801              		.loc 1 115 9 is_stmt 1
 802              		.loc 1 115 24 is_stmt 0
 803 0574 97000000 		call	_Z15thread_dispatchv@plt
 803      E7800000 
 804              	.LVL104:
 805              	.L44:
 114:src/main.cpp  ****         thread_dispatch();
 806              		.loc 1 114 5 is_stmt 1
 114:src/main.cpp  ****         thread_dispatch();
 807              		.loc 1 114 12
 808 057c 97070000 		lbu	a5,.LANCHOR0
 808      83C70700 
 809 0584 E38807FE 		beqz	a5,.L42
 114:src/main.cpp  ****         thread_dispatch();
 810              		.loc 1 114 24 is_stmt 0 discriminator 1
 811 0588 97070000 		lbu	a5,.LANCHOR0+1
 811      83C70700 
 812 0590 E38207FE 		beqz	a5,.L42
 114:src/main.cpp  ****         thread_dispatch();
 813              		.loc 1 114 37 discriminator 2
 814 0594 97070000 		lbu	a5,.LANCHOR0+2
 814      83C70700 
 815 059c E38C07FC 		beqz	a5,.L42
 114:src/main.cpp  ****         thread_dispatch();
 816              		.loc 1 114 12 discriminator 3
 817 05a0 97070000 		lbu	a5,.LANCHOR0+3
 817      83C70700 
 818 05a8 E38607FC 		beqz	a5,.L42
 116:src/main.cpp  ****     }
 117:src/main.cpp  **** 
 118:src/main.cpp  **** }
 819              		.loc 1 118 1
 820 05ac 83308102 		ld	ra,40(sp)
 821              		.cfi_restore 1
 822 05b0 03340102 		ld	s0,32(sp)
 823              		.cfi_restore 8
 824              		.cfi_def_cfa 2, 48
 825 05b4 13010103 		addi	sp,sp,48
 826              		.cfi_def_cfa_offset 0
 827 05b8 67800000 		jr	ra
GAS LISTING /tmp/ccVyU0J5.s 			page 21


 828              		.cfi_endproc
 829              	.LFE51:
 831              		.align	2
 832              		.globl	_Z8userMainv
 834              	_Z8userMainv:
 835              	.LFB52:
 119:src/main.cpp  **** 
 120:src/main.cpp  **** void userMain() {
 836              		.loc 1 120 17 is_stmt 1
 837              		.cfi_startproc
 838 05bc 130101FF 		addi	sp,sp,-16
 839              		.cfi_def_cfa_offset 16
 840 05c0 23341100 		sd	ra,8(sp)
 841 05c4 23308100 		sd	s0,0(sp)
 842              		.cfi_offset 1, -8
 843              		.cfi_offset 8, -16
 844 05c8 13040101 		addi	s0,sp,16
 845              		.cfi_def_cfa 8, 0
 121:src/main.cpp  ****     Threads_C_API_test(); // zadatak 2., niti C API i sinhrona promena konteksta
 846              		.loc 1 121 5
 847              		.loc 1 121 23 is_stmt 0
 848 05cc 97000000 		call	_Z18Threads_C_API_testv
 848      E7800000 
 849              	.LVL105:
 122:src/main.cpp  **** }
 850              		.loc 1 122 1
 851 05d4 83308100 		ld	ra,8(sp)
 852              		.cfi_restore 1
 853 05d8 03340100 		ld	s0,0(sp)
 854              		.cfi_restore 8
 855              		.cfi_def_cfa 2, 16
 856 05dc 13010101 		addi	sp,sp,16
 857              		.cfi_def_cfa_offset 0
 858 05e0 67800000 		jr	ra
 859              		.cfi_endproc
 860              	.LFE52:
 862              		.section	.rodata.str1.8
 863 0109 00000000 		.align	3
 863      000000
 864              	.LC18:
 865 0110 46696E69 		.string	"Finished\n"
 865      73686564 
 865      0A00
 866              		.text
 867              		.align	2
 868              		.globl	main
 870              	main:
 871              	.LFB53:
 123:src/main.cpp  **** 
 124:src/main.cpp  **** 
 125:src/main.cpp  **** int main()
 126:src/main.cpp  **** {
 872              		.loc 1 126 1 is_stmt 1
 873              		.cfi_startproc
 874 05e4 130101FE 		addi	sp,sp,-32
 875              		.cfi_def_cfa_offset 32
 876 05e8 233C1100 		sd	ra,24(sp)
GAS LISTING /tmp/ccVyU0J5.s 			page 22


 877 05ec 23388100 		sd	s0,16(sp)
 878              		.cfi_offset 1, -8
 879              		.cfi_offset 8, -16
 880 05f0 13040102 		addi	s0,sp,32
 881              		.cfi_def_cfa 8, 0
 127:src/main.cpp  **** //    Riscv::w_stvec((uint64) &Riscv::supervisorTrap);
 128:src/main.cpp  **** //    TCB *threads[5];
 129:src/main.cpp  **** //
 130:src/main.cpp  **** //    thread_create(&threads[0], nullptr, nullptr);
 131:src/main.cpp  **** //    TCB::running = threads[0];
 132:src/main.cpp  **** //    printString("Adresa koja je u threads[0] (handle) :   ");
 133:src/main.cpp  **** //    printInteger((uint64)&(*(threads[0])));
 134:src/main.cpp  **** //    printString("\n");
 135:src/main.cpp  **** //
 136:src/main.cpp  **** //    thread_create(&threads[1], workerBodyA, nullptr);
 137:src/main.cpp  **** //    printString("Adresa koja je u threads[1] (handle) :   ");
 138:src/main.cpp  **** //    printInteger((uint64)&(*(threads[1])));
 139:src/main.cpp  **** //    printString("\n");
 140:src/main.cpp  **** //    printString("ThreadA created\n");
 141:src/main.cpp  **** //
 142:src/main.cpp  **** //    thread_create(&threads[2], workerBodyB, nullptr);
 143:src/main.cpp  **** //    printString("Adresa koja je u threads[2] (handle) :   ");
 144:src/main.cpp  **** //    printInteger((uint64)&(*(threads[2])));
 145:src/main.cpp  **** //    printString("\n");
 146:src/main.cpp  **** //    printString("ThreadB created\n");
 147:src/main.cpp  **** //
 148:src/main.cpp  **** //    thread_create(&threads[3], workerBodyC, nullptr);
 149:src/main.cpp  **** //    printString("Adresa koja je u threads[3] (handle) :   ");
 150:src/main.cpp  **** //    printInteger((uint64)&(*(threads[3])));
 151:src/main.cpp  **** //    printString("\n");
 152:src/main.cpp  **** //    printString("ThreadC created\n");
 153:src/main.cpp  **** //
 154:src/main.cpp  **** //    thread_create(&threads[4], workerBodyD, nullptr);
 155:src/main.cpp  **** //    printString("Adresa koja je u threads[4] (handle) :   ");
 156:src/main.cpp  **** //    printInteger((uint64)&(*(threads[4])));
 157:src/main.cpp  **** //    printString("\n");
 158:src/main.cpp  **** //    printString("ThreadD created\n");
 159:src/main.cpp  **** //
 160:src/main.cpp  **** //    userMain();
 161:src/main.cpp  **** //    Riscv::ms_sstatus(Riscv::SSTATUS_SIE);
 162:src/main.cpp  **** //
 163:src/main.cpp  **** //    while (!(threads[1]->isFinished() &&
 164:src/main.cpp  **** //             threads[2]->isFinished() &&
 165:src/main.cpp  **** //             threads[3]->isFinished() &&
 166:src/main.cpp  **** //             threads[4]->isFinished()))
 167:src/main.cpp  **** //    {
 168:src/main.cpp  **** //        TCB::yield();
 169:src/main.cpp  **** //    }
 170:src/main.cpp  **** //
 171:src/main.cpp  **** //    for (auto &thread: threads)
 172:src/main.cpp  **** //    {
 173:src/main.cpp  **** //        delete thread;
 174:src/main.cpp  **** //    }
 175:src/main.cpp  **** //    printString("Finished\n");
 176:src/main.cpp  **** //
 177:src/main.cpp  **** //    return 0;
 178:src/main.cpp  **** 
GAS LISTING /tmp/ccVyU0J5.s 			page 23


 179:src/main.cpp  ****     Riscv::w_stvec((uint64) &Riscv::supervisorTrap);
 882              		.loc 1 179 5
 883              		.loc 1 179 19 is_stmt 0
 884 05f4 97070000 		la	a5,_ZN5Riscv14supervisorTrapEv
 884      83B70700 
 885              	.LVL106:
 886              	.LBB22:
 887              	.LBB23:
 888              		.file 2 "src/../h/riscv.hpp"
   1:src/../h/riscv.hpp **** //
   2:src/../h/riscv.hpp **** // Created by marko on 20.4.22..
   3:src/../h/riscv.hpp **** //
   4:src/../h/riscv.hpp **** 
   5:src/../h/riscv.hpp **** #ifndef OS1_VEZBE07_RISCV_CONTEXT_SWITCH_2_INTERRUPT_RISCV_HPP
   6:src/../h/riscv.hpp **** #define OS1_VEZBE07_RISCV_CONTEXT_SWITCH_2_INTERRUPT_RISCV_HPP
   7:src/../h/riscv.hpp **** 
   8:src/../h/riscv.hpp **** #include "../lib/hw.h"
   9:src/../h/riscv.hpp **** #include "tcb.hpp"
  10:src/../h/riscv.hpp **** #include "../h/sleepingThreadsList.h"
  11:src/../h/riscv.hpp **** 
  12:src/../h/riscv.hpp **** class Riscv
  13:src/../h/riscv.hpp **** {
  14:src/../h/riscv.hpp **** public:
  15:src/../h/riscv.hpp **** 
  16:src/../h/riscv.hpp ****     // pop sstatus.spp and sstatus.spie bits (has to be a non inline function)
  17:src/../h/riscv.hpp ****     static void popSppSpie();
  18:src/../h/riscv.hpp **** 
  19:src/../h/riscv.hpp ****     // read register scause
  20:src/../h/riscv.hpp ****     static uint64 r_scause();
  21:src/../h/riscv.hpp **** 
  22:src/../h/riscv.hpp ****     // write register scause
  23:src/../h/riscv.hpp ****     static void w_scause(uint64 scause);
  24:src/../h/riscv.hpp **** 
  25:src/../h/riscv.hpp ****     // read register sepc
  26:src/../h/riscv.hpp ****     static uint64 r_sepc();
  27:src/../h/riscv.hpp **** 
  28:src/../h/riscv.hpp ****     // write register sepc
  29:src/../h/riscv.hpp ****     static void w_sepc(uint64 sepc);
  30:src/../h/riscv.hpp **** 
  31:src/../h/riscv.hpp ****     // read register stvec
  32:src/../h/riscv.hpp ****     static uint64 r_stvec();
  33:src/../h/riscv.hpp **** 
  34:src/../h/riscv.hpp ****     // write register stvec
  35:src/../h/riscv.hpp ****     static void w_stvec(uint64 stvec);
  36:src/../h/riscv.hpp **** 
  37:src/../h/riscv.hpp ****     // read register stval
  38:src/../h/riscv.hpp ****     static uint64 r_stval();
  39:src/../h/riscv.hpp **** 
  40:src/../h/riscv.hpp ****     // write register stval
  41:src/../h/riscv.hpp ****     static void w_stval(uint64 stval);
  42:src/../h/riscv.hpp **** 
  43:src/../h/riscv.hpp ****     enum BitMaskSip
  44:src/../h/riscv.hpp ****     {
  45:src/../h/riscv.hpp ****         SIP_SSIP = (1 << 1),
  46:src/../h/riscv.hpp ****         SIP_STIP = (1 << 5),
  47:src/../h/riscv.hpp ****         SIP_SEIP = (1 << 9),
  48:src/../h/riscv.hpp ****     };
GAS LISTING /tmp/ccVyU0J5.s 			page 24


  49:src/../h/riscv.hpp **** 
  50:src/../h/riscv.hpp ****     // mask set register sip
  51:src/../h/riscv.hpp ****     static void ms_sip(uint64 mask);
  52:src/../h/riscv.hpp **** 
  53:src/../h/riscv.hpp ****     // mask clear register sip
  54:src/../h/riscv.hpp ****     static void mc_sip(uint64 mask);
  55:src/../h/riscv.hpp **** 
  56:src/../h/riscv.hpp ****     // read register sip
  57:src/../h/riscv.hpp ****     static uint64 r_sip();
  58:src/../h/riscv.hpp **** 
  59:src/../h/riscv.hpp ****     // write register sip
  60:src/../h/riscv.hpp ****     static void w_sip(uint64 sip);
  61:src/../h/riscv.hpp **** 
  62:src/../h/riscv.hpp ****     enum BitMaskSstatus
  63:src/../h/riscv.hpp ****     {
  64:src/../h/riscv.hpp ****         SSTATUS_SIE = (1 << 1),
  65:src/../h/riscv.hpp ****         SSTATUS_SPIE = (1 << 5),
  66:src/../h/riscv.hpp ****         SSTATUS_SPP = (1 << 8),
  67:src/../h/riscv.hpp ****     };
  68:src/../h/riscv.hpp **** 
  69:src/../h/riscv.hpp ****     // mask set register sstatus
  70:src/../h/riscv.hpp ****     static void ms_sstatus(uint64 mask);
  71:src/../h/riscv.hpp **** 
  72:src/../h/riscv.hpp ****     // mask clear register sstatus
  73:src/../h/riscv.hpp ****     static void mc_sstatus(uint64 mask);
  74:src/../h/riscv.hpp **** 
  75:src/../h/riscv.hpp ****     // read register sstatus
  76:src/../h/riscv.hpp ****     static uint64 r_sstatus();
  77:src/../h/riscv.hpp **** 
  78:src/../h/riscv.hpp ****     // write register sstatus
  79:src/../h/riscv.hpp ****     static void w_sstatus(uint64 sstatus);
  80:src/../h/riscv.hpp **** 
  81:src/../h/riscv.hpp ****     // supervisor trap
  82:src/../h/riscv.hpp ****     static void supervisorTrap();
  83:src/../h/riscv.hpp **** 
  84:src/../h/riscv.hpp **** private:
  85:src/../h/riscv.hpp **** 
  86:src/../h/riscv.hpp ****     // supervisor trap handler
  87:src/../h/riscv.hpp ****     static void handleSupervisorTrap();
  88:src/../h/riscv.hpp **** 
  89:src/../h/riscv.hpp ****     static SleepingThreadList sleepingThreads;
  90:src/../h/riscv.hpp **** 
  91:src/../h/riscv.hpp **** };
  92:src/../h/riscv.hpp **** 
  93:src/../h/riscv.hpp **** inline uint64 Riscv::r_scause()
  94:src/../h/riscv.hpp **** {
  95:src/../h/riscv.hpp ****     uint64 volatile scause;
  96:src/../h/riscv.hpp ****     __asm__ volatile ("csrr %[scause], scause" : [scause] "=r"(scause));
  97:src/../h/riscv.hpp ****     return scause;
  98:src/../h/riscv.hpp **** }
  99:src/../h/riscv.hpp **** 
 100:src/../h/riscv.hpp **** inline void Riscv::w_scause(uint64 scause)
 101:src/../h/riscv.hpp **** {
 102:src/../h/riscv.hpp ****     __asm__ volatile ("csrw scause, %[scause]" : : [scause] "r"(scause));
 103:src/../h/riscv.hpp **** }
 104:src/../h/riscv.hpp **** 
 105:src/../h/riscv.hpp **** inline uint64 Riscv::r_sepc()
GAS LISTING /tmp/ccVyU0J5.s 			page 25


 106:src/../h/riscv.hpp **** {
 107:src/../h/riscv.hpp ****     uint64 volatile sepc;
 108:src/../h/riscv.hpp ****     __asm__ volatile ("csrr %[sepc], sepc" : [sepc] "=r"(sepc));
 109:src/../h/riscv.hpp ****     return sepc;
 110:src/../h/riscv.hpp **** }
 111:src/../h/riscv.hpp **** 
 112:src/../h/riscv.hpp **** inline void Riscv::w_sepc(uint64 sepc)
 113:src/../h/riscv.hpp **** {
 114:src/../h/riscv.hpp ****     __asm__ volatile ("csrw sepc, %[sepc]" : : [sepc] "r"(sepc));
 115:src/../h/riscv.hpp **** }
 116:src/../h/riscv.hpp **** 
 117:src/../h/riscv.hpp **** inline uint64 Riscv::r_stvec()
 118:src/../h/riscv.hpp **** {
 119:src/../h/riscv.hpp ****     uint64 volatile stvec;
 120:src/../h/riscv.hpp ****     __asm__ volatile ("csrr %[stvec], stvec" : [stvec] "=r"(stvec));
 121:src/../h/riscv.hpp ****     return stvec;
 122:src/../h/riscv.hpp **** }
 123:src/../h/riscv.hpp **** 
 124:src/../h/riscv.hpp **** inline void Riscv::w_stvec(uint64 stvec)
 125:src/../h/riscv.hpp **** {
 126:src/../h/riscv.hpp ****     __asm__ volatile ("csrw stvec, %[stvec]" : : [stvec] "r"(stvec));
 889              		.loc 2 126 5 is_stmt 1
 890              		.loc 2 126 69 is_stmt 0
 891              	#APP
 892              	# 126 "src/../h/riscv.hpp" 1
 127              	}
 893              		csrw stvec, a5
 894              	# 0 "" 2
 895              	.LVL107:
 896              	#NO_APP
 897              	.LBE23:
 898              	.LBE22:
 180:src/main.cpp  ****     TCB* main;
 899              		.loc 1 180 5 is_stmt 1
 181:src/main.cpp  **** 
 182:src/main.cpp  ****     thread_create(&main, nullptr, nullptr);
 900              		.loc 1 182 5
 901              		.loc 1 182 18 is_stmt 0
 902 0600 13060000 		li	a2,0
 903 0604 93050000 		li	a1,0
 904 0608 130584FE 		addi	a0,s0,-24
 905 060c 97000000 		call	_Z13thread_createPP3TCBPFvPvES2_@plt
 905      E7800000 
 906              	.LVL108:
 183:src/main.cpp  ****     TCB::running = main;
 907              		.loc 1 183 5 is_stmt 1
 908              		.loc 1 183 18 is_stmt 0
 909 0614 97070000 		la	a5,_ZN3TCB7runningE
 909      83B70700 
 910 061c 033784FE 		ld	a4,-24(s0)
 911 0620 23B0E700 		sd	a4,0(a5)
 184:src/main.cpp  ****     Riscv::ms_sstatus(Riscv::SSTATUS_SIE);
 912              		.loc 1 184 5 is_stmt 1
 913              	.LVL109:
 914              	.LBB24:
 915              	.LBB25:
 128:src/../h/riscv.hpp **** 
GAS LISTING /tmp/ccVyU0J5.s 			page 26


 129:src/../h/riscv.hpp **** inline uint64 Riscv::r_stval()
 130:src/../h/riscv.hpp **** {
 131:src/../h/riscv.hpp ****     uint64 volatile stval;
 132:src/../h/riscv.hpp ****     __asm__ volatile ("csrr %[stval], stval" : [stval] "=r"(stval));
 133:src/../h/riscv.hpp ****     return stval;
 134:src/../h/riscv.hpp **** }
 135:src/../h/riscv.hpp **** 
 136:src/../h/riscv.hpp **** inline void Riscv::w_stval(uint64 stval)
 137:src/../h/riscv.hpp **** {
 138:src/../h/riscv.hpp ****     __asm__ volatile ("csrw stval, %[stval]" : : [stval] "r"(stval));
 139:src/../h/riscv.hpp **** }
 140:src/../h/riscv.hpp **** 
 141:src/../h/riscv.hpp **** inline void Riscv::ms_sip(uint64 mask)
 142:src/../h/riscv.hpp **** {
 143:src/../h/riscv.hpp ****     __asm__ volatile ("csrs sip, %[mask]" : : [mask] "r"(mask));
 144:src/../h/riscv.hpp **** }
 145:src/../h/riscv.hpp **** 
 146:src/../h/riscv.hpp **** inline void Riscv::mc_sip(uint64 mask)
 147:src/../h/riscv.hpp **** {
 148:src/../h/riscv.hpp ****     __asm__ volatile ("csrc sip, %[mask]" : : [mask] "r"(mask));
 149:src/../h/riscv.hpp **** }
 150:src/../h/riscv.hpp **** 
 151:src/../h/riscv.hpp **** inline uint64 Riscv::r_sip()
 152:src/../h/riscv.hpp **** {
 153:src/../h/riscv.hpp ****     uint64 volatile sip;
 154:src/../h/riscv.hpp ****     __asm__ volatile ("csrr %[sip], sip" : [sip] "=r"(sip));
 155:src/../h/riscv.hpp ****     return sip;
 156:src/../h/riscv.hpp **** }
 157:src/../h/riscv.hpp **** 
 158:src/../h/riscv.hpp **** inline void Riscv::w_sip(uint64 sip)
 159:src/../h/riscv.hpp **** {
 160:src/../h/riscv.hpp ****     __asm__ volatile ("csrw sip, %[sip]" : : [sip] "r"(sip));
 161:src/../h/riscv.hpp **** }
 162:src/../h/riscv.hpp **** 
 163:src/../h/riscv.hpp **** inline void Riscv::ms_sstatus(uint64 mask)
 164:src/../h/riscv.hpp **** {
 165:src/../h/riscv.hpp ****     __asm__ volatile ("csrs sstatus, %[mask]" : : [mask] "r"(mask));
 916              		.loc 2 165 5
 917              		.loc 2 165 68 is_stmt 0
 918 0624 93072000 		li	a5,2
 919              	#APP
 920              	# 165 "src/../h/riscv.hpp" 1
 166              	}
 921              		csrs sstatus, a5
 922              	# 0 "" 2
 923              	.LVL110:
 924              	#NO_APP
 925              	.LBE25:
 926              	.LBE24:
 185:src/main.cpp  ****     userMain();
 927              		.loc 1 185 5 is_stmt 1
 928              		.loc 1 185 13 is_stmt 0
 929 062c 97000000 		call	_Z8userMainv
 929      E7800000 
 930              	.LVL111:
 186:src/main.cpp  **** 
 187:src/main.cpp  **** 
GAS LISTING /tmp/ccVyU0J5.s 			page 27


 188:src/main.cpp  ****     printString("Finished\n");
 931              		.loc 1 188 5 is_stmt 1
 932              		.loc 1 188 16 is_stmt 0
 933 0634 17050000 		lla	a0,.LC18
 933      13050500 
 934 063c 97000000 		call	_Z11printStringPKc@plt
 934      E7800000 
 935              	.LVL112:
 189:src/main.cpp  **** 
 190:src/main.cpp  ****     return 0;
 936              		.loc 1 190 5 is_stmt 1
 191:src/main.cpp  **** 
 192:src/main.cpp  **** 
 193:src/main.cpp  **** }
 937              		.loc 1 193 1 is_stmt 0
 938 0644 13050000 		li	a0,0
 939 0648 83308101 		ld	ra,24(sp)
 940              		.cfi_restore 1
 941 064c 03340101 		ld	s0,16(sp)
 942              		.cfi_restore 8
 943              		.cfi_def_cfa 2, 32
 944 0650 13010102 		addi	sp,sp,32
 945              		.cfi_def_cfa_offset 0
 946 0654 67800000 		jr	ra
 947              		.cfi_endproc
 948              	.LFE53:
 950              		.globl	finishedD
 951              		.globl	finishedC
 952              		.globl	finishedB
 953              		.globl	finishedA
 954              		.bss
 955              		.set	.LANCHOR0,. + 0
 958              	finishedA:
 959 0000 00       		.zero	1
 962              	finishedB:
 963 0001 00       		.zero	1
 966              	finishedC:
 967 0002 00       		.zero	1
 970              	finishedD:
 971 0003 00       		.zero	1
 972              		.text
 973              	.Letext0:
 974              		.file 3 "src/../h/../lib/hw.h"
 975              		.file 4 "src/../h/tcb.hpp"
 976              		.file 5 "src/../h/../h/syscall_c.h"
 977              		.file 6 "src/../h/../h/sleepingThreadsList.h"
 978              		.file 7 "src/../h/syscall_c.h"
 979              		.file 8 "src/../h/../h/print.hpp"
GAS LISTING /tmp/ccVyU0J5.s 			page 28


DEFINED SYMBOLS
                            *ABS*:0000000000000000 main.cpp
     /tmp/ccVyU0J5.s:20     .text:0000000000000000 _Z12workerBodyA2Pv
     /tmp/ccVyU0J5.s:24     .text:0000000000000000 .L0 
     /tmp/ccVyU0J5.s:26     .text:0000000000000000 .L0 
     /tmp/ccVyU0J5.s:27     .text:0000000000000004 .L0 
     /tmp/ccVyU0J5.s:32     .text:0000000000000014 .L0 
     /tmp/ccVyU0J5.s:33     .text:0000000000000014 .L0 
     /tmp/ccVyU0J5.s:34     .text:0000000000000014 .L0 
     /tmp/ccVyU0J5.s:35     .text:0000000000000014 .L0 
     /tmp/ccVyU0J5.s:37     .text:0000000000000018 .L0 
     /tmp/ccVyU0J5.s:41     .text:0000000000000018 .L0 
     /tmp/ccVyU0J5.s:42     .text:0000000000000018 .L0 
     /tmp/ccVyU0J5.s:50     .text:0000000000000020 .L0 
     /tmp/ccVyU0J5.s:51     .text:0000000000000020 .L0 
     /tmp/ccVyU0J5.s:55     .text:0000000000000028 .L0 
     /tmp/ccVyU0J5.s:59     .text:000000000000002c .L0 
     /tmp/ccVyU0J5.s:65     .text:0000000000000038 .L0 
     /tmp/ccVyU0J5.s:69     .text:000000000000003c .L0 
     /tmp/ccVyU0J5.s:73     .text:0000000000000048 .L0 
     /tmp/ccVyU0J5.s:82     .text:0000000000000050 .L0 
     /tmp/ccVyU0J5.s:83     .text:0000000000000050 .L0 
     /tmp/ccVyU0J5.s:87     .text:0000000000000058 .L0 
     /tmp/ccVyU0J5.s:91     .text:000000000000005c .L0 
     /tmp/ccVyU0J5.s:95     .text:0000000000000064 .L0 
     /tmp/ccVyU0J5.s:96     .text:0000000000000064 .L0 
     /tmp/ccVyU0J5.s:100    .text:0000000000000074 .L0 
     /tmp/ccVyU0J5.s:101    .text:0000000000000074 .L0 
     /tmp/ccVyU0J5.s:105    .text:0000000000000080 .L0 
     /tmp/ccVyU0J5.s:106    .text:0000000000000080 .L0 
     /tmp/ccVyU0J5.s:111    .text:0000000000000090 .L0 
     /tmp/ccVyU0J5.s:112    .text:0000000000000090 .L0 
     /tmp/ccVyU0J5.s:120    .text:0000000000000098 .L0 
     /tmp/ccVyU0J5.s:121    .text:0000000000000098 .L0 
     /tmp/ccVyU0J5.s:125    .text:00000000000000a8 .L0 
     /tmp/ccVyU0J5.s:126    .text:00000000000000a8 .L0 
     /tmp/ccVyU0J5.s:129    .text:00000000000000b4 .L0 
     /tmp/ccVyU0J5.s:130    .text:00000000000000b8 .L0 
     /tmp/ccVyU0J5.s:132    .text:00000000000000bc .L0 
     /tmp/ccVyU0J5.s:133    .text:00000000000000bc .L0 
     /tmp/ccVyU0J5.s:135    .text:00000000000000c0 .L0 
     /tmp/ccVyU0J5.s:137    .text:00000000000000c4 .L0 
     /tmp/ccVyU0J5.s:140    .text:00000000000000c8 .L0 
     /tmp/ccVyU0J5.s:142    .text:00000000000000cc .L0 
     /tmp/ccVyU0J5.s:156    .text:00000000000000cc _Z12workerBodyB2Pv
     /tmp/ccVyU0J5.s:159    .text:00000000000000cc .L0 
     /tmp/ccVyU0J5.s:161    .text:00000000000000cc .L0 
     /tmp/ccVyU0J5.s:162    .text:00000000000000d0 .L0 
     /tmp/ccVyU0J5.s:167    .text:00000000000000e0 .L0 
     /tmp/ccVyU0J5.s:168    .text:00000000000000e0 .L0 
     /tmp/ccVyU0J5.s:169    .text:00000000000000e0 .L0 
     /tmp/ccVyU0J5.s:170    .text:00000000000000e0 .L0 
     /tmp/ccVyU0J5.s:172    .text:00000000000000e4 .L0 
     /tmp/ccVyU0J5.s:176    .text:00000000000000e4 .L0 
     /tmp/ccVyU0J5.s:177    .text:00000000000000e4 .L0 
     /tmp/ccVyU0J5.s:183    .text:00000000000000ec .L0 
     /tmp/ccVyU0J5.s:184    .text:00000000000000ec .L0 
GAS LISTING /tmp/ccVyU0J5.s 			page 29


     /tmp/ccVyU0J5.s:193    .text:00000000000000fc .L0 
     /tmp/ccVyU0J5.s:194    .text:00000000000000fc .L0 
     /tmp/ccVyU0J5.s:198    .text:0000000000000104 .L0 
     /tmp/ccVyU0J5.s:202    .text:0000000000000108 .L0 
     /tmp/ccVyU0J5.s:208    .text:0000000000000114 .L0 
     /tmp/ccVyU0J5.s:212    .text:0000000000000118 .L0 
     /tmp/ccVyU0J5.s:216    .text:0000000000000124 .L0 
     /tmp/ccVyU0J5.s:226    .text:000000000000012c .L0 
     /tmp/ccVyU0J5.s:230    .text:0000000000000130 .L0 
     /tmp/ccVyU0J5.s:234    .text:0000000000000138 .L0 
     /tmp/ccVyU0J5.s:238    .text:0000000000000140 .L0 
     /tmp/ccVyU0J5.s:239    .text:0000000000000140 .L0 
     /tmp/ccVyU0J5.s:243    .text:0000000000000150 .L0 
     /tmp/ccVyU0J5.s:244    .text:0000000000000150 .L0 
     /tmp/ccVyU0J5.s:248    .text:000000000000015c .L0 
     /tmp/ccVyU0J5.s:249    .text:000000000000015c .L0 
     /tmp/ccVyU0J5.s:254    .text:000000000000016c .L0 
     /tmp/ccVyU0J5.s:255    .text:000000000000016c .L0 
     /tmp/ccVyU0J5.s:263    .text:0000000000000174 .L0 
     /tmp/ccVyU0J5.s:264    .text:0000000000000174 .L0 
     /tmp/ccVyU0J5.s:268    .text:0000000000000184 .L0 
     /tmp/ccVyU0J5.s:269    .text:0000000000000184 .L0 
     /tmp/ccVyU0J5.s:272    .text:0000000000000190 .L0 
     /tmp/ccVyU0J5.s:273    .text:0000000000000190 .L0 
     /tmp/ccVyU0J5.s:276    .text:0000000000000198 .L0 
     /tmp/ccVyU0J5.s:277    .text:000000000000019c .L0 
     /tmp/ccVyU0J5.s:279    .text:00000000000001a0 .L0 
     /tmp/ccVyU0J5.s:280    .text:00000000000001a0 .L0 
     /tmp/ccVyU0J5.s:282    .text:00000000000001a4 .L0 
     /tmp/ccVyU0J5.s:284    .text:00000000000001a8 .L0 
     /tmp/ccVyU0J5.s:287    .text:00000000000001ac .L0 
     /tmp/ccVyU0J5.s:289    .text:00000000000001b0 .L0 
     /tmp/ccVyU0J5.s:295    .text:00000000000001b0 _Z9fibonaccim
     /tmp/ccVyU0J5.s:298    .text:00000000000001b0 .L0 
     /tmp/ccVyU0J5.s:300    .text:00000000000001b0 .L0 
     /tmp/ccVyU0J5.s:301    .text:00000000000001b4 .L0 
     /tmp/ccVyU0J5.s:306    .text:00000000000001c4 .L0 
     /tmp/ccVyU0J5.s:307    .text:00000000000001c4 .L0 
     /tmp/ccVyU0J5.s:308    .text:00000000000001c4 .L0 
     /tmp/ccVyU0J5.s:309    .text:00000000000001c4 .L0 
     /tmp/ccVyU0J5.s:311    .text:00000000000001c8 .L0 
     /tmp/ccVyU0J5.s:314    .text:00000000000001cc .L0 
     /tmp/ccVyU0J5.s:317    .text:00000000000001d4 .L0 
     /tmp/ccVyU0J5.s:318    .text:00000000000001d4 .L0 
     /tmp/ccVyU0J5.s:321    .text:00000000000001dc .L0 
     /tmp/ccVyU0J5.s:325    .text:00000000000001e0 .L0 
     /tmp/ccVyU0J5.s:326    .text:00000000000001e0 .L0 
     /tmp/ccVyU0J5.s:331    .text:00000000000001f0 .L0 
     /tmp/ccVyU0J5.s:335    .text:00000000000001fc .L0 
     /tmp/ccVyU0J5.s:338    .text:0000000000000200 .L0 
     /tmp/ccVyU0J5.s:339    .text:0000000000000204 .L0 
     /tmp/ccVyU0J5.s:340    .text:0000000000000204 .L0 
     /tmp/ccVyU0J5.s:342    .text:0000000000000208 .L0 
     /tmp/ccVyU0J5.s:343    .text:0000000000000208 .L0 
     /tmp/ccVyU0J5.s:345    .text:000000000000020c .L0 
     /tmp/ccVyU0J5.s:348    .text:0000000000000210 .L0 
     /tmp/ccVyU0J5.s:350    .text:0000000000000214 .L0 
GAS LISTING /tmp/ccVyU0J5.s 			page 30


     /tmp/ccVyU0J5.s:354    .text:0000000000000218 .L0 
     /tmp/ccVyU0J5.s:356    .text:0000000000000218 .L0 
     /tmp/ccVyU0J5.s:357    .text:0000000000000218 .L0 
     /tmp/ccVyU0J5.s:360    .text:0000000000000224 .L0 
     /tmp/ccVyU0J5.s:383    .text:0000000000000224 _Z12workerBodyC2Pv
     /tmp/ccVyU0J5.s:386    .text:0000000000000224 .L0 
     /tmp/ccVyU0J5.s:388    .text:0000000000000224 .L0 
     /tmp/ccVyU0J5.s:389    .text:0000000000000228 .L0 
     /tmp/ccVyU0J5.s:394    .text:0000000000000238 .L0 
     /tmp/ccVyU0J5.s:395    .text:0000000000000238 .L0 
     /tmp/ccVyU0J5.s:396    .text:0000000000000238 .L0 
     /tmp/ccVyU0J5.s:397    .text:0000000000000238 .L0 
     /tmp/ccVyU0J5.s:399    .text:000000000000023c .L0 
     /tmp/ccVyU0J5.s:402    .text:000000000000023c .L0 
     /tmp/ccVyU0J5.s:403    .text:000000000000023c .L0 
     /tmp/ccVyU0J5.s:408    .text:0000000000000244 .L0 
     /tmp/ccVyU0J5.s:409    .text:0000000000000244 .L0 
     /tmp/ccVyU0J5.s:413    .text:0000000000000254 .L0 
     /tmp/ccVyU0J5.s:414    .text:0000000000000254 .L0 
     /tmp/ccVyU0J5.s:418    .text:0000000000000260 .L0 
     /tmp/ccVyU0J5.s:419    .text:0000000000000260 .L0 
     /tmp/ccVyU0J5.s:423    .text:0000000000000270 .L0 
     /tmp/ccVyU0J5.s:429    .text:0000000000000278 .L0 
     /tmp/ccVyU0J5.s:430    .text:0000000000000278 .L0 
     /tmp/ccVyU0J5.s:433    .text:0000000000000280 .L0 
     /tmp/ccVyU0J5.s:434    .text:0000000000000280 .L0 
     /tmp/ccVyU0J5.s:438    .text:0000000000000290 .L0 
        src/main.cpp:57     .text:0000000000000290 .L0 
     /tmp/ccVyU0J5.s:444    .text:0000000000000294 .L0 
     /tmp/ccVyU0J5.s:446    .text:0000000000000294 .L0 
     /tmp/ccVyU0J5.s:449    .text:000000000000029c .L0 
     /tmp/ccVyU0J5.s:450    .text:000000000000029c .L0 
        src/main.cpp:61     .text:000000000000029c .L0 
     /tmp/ccVyU0J5.s:457    .text:00000000000002a0 .L0 
     /tmp/ccVyU0J5.s:459    .text:00000000000002a0 .L0 
     /tmp/ccVyU0J5.s:463    .text:00000000000002b0 .L0 
     /tmp/ccVyU0J5.s:464    .text:00000000000002b0 .L0 
     /tmp/ccVyU0J5.s:468    .text:00000000000002bc .L0 
     /tmp/ccVyU0J5.s:469    .text:00000000000002bc .L0 
     /tmp/ccVyU0J5.s:473    .text:00000000000002cc .L0 
     /tmp/ccVyU0J5.s:474    .text:00000000000002cc .L0 
     /tmp/ccVyU0J5.s:480    .text:00000000000002dc .L0 
     /tmp/ccVyU0J5.s:481    .text:00000000000002dc .L0 
     /tmp/ccVyU0J5.s:486    .text:00000000000002ec .L0 
     /tmp/ccVyU0J5.s:487    .text:00000000000002ec .L0 
     /tmp/ccVyU0J5.s:491    .text:00000000000002f8 .L0 
     /tmp/ccVyU0J5.s:492    .text:00000000000002f8 .L0 
     /tmp/ccVyU0J5.s:496    .text:0000000000000308 .L0 
     /tmp/ccVyU0J5.s:497    .text:0000000000000308 .L0 
     /tmp/ccVyU0J5.s:503    .text:0000000000000318 .L0 
     /tmp/ccVyU0J5.s:504    .text:0000000000000318 .L0 
     /tmp/ccVyU0J5.s:508    .text:0000000000000328 .L0 
     /tmp/ccVyU0J5.s:509    .text:0000000000000328 .L0 
     /tmp/ccVyU0J5.s:513    .text:0000000000000334 .L0 
     /tmp/ccVyU0J5.s:514    .text:0000000000000334 .L0 
     /tmp/ccVyU0J5.s:518    .text:0000000000000344 .L0 
     /tmp/ccVyU0J5.s:524    .text:000000000000034c .L0 
GAS LISTING /tmp/ccVyU0J5.s 			page 31


     /tmp/ccVyU0J5.s:525    .text:000000000000034c .L0 
     /tmp/ccVyU0J5.s:528    .text:0000000000000354 .L0 
     /tmp/ccVyU0J5.s:529    .text:0000000000000354 .L0 
     /tmp/ccVyU0J5.s:533    .text:0000000000000364 .L0 
     /tmp/ccVyU0J5.s:534    .text:0000000000000364 .L0 
     /tmp/ccVyU0J5.s:537    .text:0000000000000370 .L0 
     /tmp/ccVyU0J5.s:538    .text:0000000000000370 .L0 
     /tmp/ccVyU0J5.s:541    .text:0000000000000378 .L0 
     /tmp/ccVyU0J5.s:542    .text:000000000000037c .L0 
     /tmp/ccVyU0J5.s:544    .text:0000000000000380 .L0 
     /tmp/ccVyU0J5.s:545    .text:0000000000000380 .L0 
     /tmp/ccVyU0J5.s:547    .text:0000000000000384 .L0 
     /tmp/ccVyU0J5.s:550    .text:0000000000000388 .L0 
     /tmp/ccVyU0J5.s:553    .text:000000000000038c .L0 
     /tmp/ccVyU0J5.s:555    .text:0000000000000390 .L0 
     /tmp/ccVyU0J5.s:575    .text:0000000000000390 _Z12workerBodyD2Pv
     /tmp/ccVyU0J5.s:578    .text:0000000000000390 .L0 
     /tmp/ccVyU0J5.s:580    .text:0000000000000390 .L0 
     /tmp/ccVyU0J5.s:581    .text:0000000000000394 .L0 
     /tmp/ccVyU0J5.s:586    .text:00000000000003a4 .L0 
     /tmp/ccVyU0J5.s:587    .text:00000000000003a4 .L0 
     /tmp/ccVyU0J5.s:588    .text:00000000000003a4 .L0 
     /tmp/ccVyU0J5.s:589    .text:00000000000003a4 .L0 
     /tmp/ccVyU0J5.s:591    .text:00000000000003a8 .L0 
     /tmp/ccVyU0J5.s:594    .text:00000000000003a8 .L0 
     /tmp/ccVyU0J5.s:595    .text:00000000000003a8 .L0 
     /tmp/ccVyU0J5.s:600    .text:00000000000003b0 .L0 
     /tmp/ccVyU0J5.s:601    .text:00000000000003b0 .L0 
     /tmp/ccVyU0J5.s:605    .text:00000000000003c0 .L0 
     /tmp/ccVyU0J5.s:606    .text:00000000000003c0 .L0 
     /tmp/ccVyU0J5.s:610    .text:00000000000003cc .L0 
     /tmp/ccVyU0J5.s:611    .text:00000000000003cc .L0 
     /tmp/ccVyU0J5.s:615    .text:00000000000003dc .L0 
     /tmp/ccVyU0J5.s:621    .text:00000000000003e4 .L0 
     /tmp/ccVyU0J5.s:622    .text:00000000000003e4 .L0 
     /tmp/ccVyU0J5.s:625    .text:00000000000003ec .L0 
     /tmp/ccVyU0J5.s:626    .text:00000000000003ec .L0 
     /tmp/ccVyU0J5.s:630    .text:00000000000003fc .L0 
        src/main.cpp:84     .text:00000000000003fc .L0 
     /tmp/ccVyU0J5.s:636    .text:0000000000000400 .L0 
     /tmp/ccVyU0J5.s:638    .text:0000000000000400 .L0 
     /tmp/ccVyU0J5.s:641    .text:0000000000000408 .L0 
     /tmp/ccVyU0J5.s:642    .text:0000000000000408 .L0 
     /tmp/ccVyU0J5.s:648    .text:0000000000000418 .L0 
     /tmp/ccVyU0J5.s:649    .text:0000000000000418 .L0 
     /tmp/ccVyU0J5.s:654    .text:0000000000000428 .L0 
     /tmp/ccVyU0J5.s:655    .text:0000000000000428 .L0 
     /tmp/ccVyU0J5.s:659    .text:0000000000000434 .L0 
     /tmp/ccVyU0J5.s:660    .text:0000000000000434 .L0 
     /tmp/ccVyU0J5.s:666    .text:0000000000000448 .L0 
     /tmp/ccVyU0J5.s:667    .text:0000000000000448 .L0 
     /tmp/ccVyU0J5.s:671    .text:0000000000000458 .L0 
     /tmp/ccVyU0J5.s:672    .text:0000000000000458 .L0 
     /tmp/ccVyU0J5.s:676    .text:0000000000000464 .L0 
     /tmp/ccVyU0J5.s:677    .text:0000000000000464 .L0 
     /tmp/ccVyU0J5.s:681    .text:0000000000000474 .L0 
     /tmp/ccVyU0J5.s:687    .text:000000000000047c .L0 
GAS LISTING /tmp/ccVyU0J5.s 			page 32


     /tmp/ccVyU0J5.s:688    .text:000000000000047c .L0 
     /tmp/ccVyU0J5.s:691    .text:0000000000000484 .L0 
     /tmp/ccVyU0J5.s:692    .text:0000000000000484 .L0 
     /tmp/ccVyU0J5.s:696    .text:0000000000000494 .L0 
     /tmp/ccVyU0J5.s:697    .text:0000000000000494 .L0 
     /tmp/ccVyU0J5.s:700    .text:00000000000004a0 .L0 
     /tmp/ccVyU0J5.s:701    .text:00000000000004a0 .L0 
     /tmp/ccVyU0J5.s:704    .text:00000000000004a8 .L0 
     /tmp/ccVyU0J5.s:705    .text:00000000000004ac .L0 
     /tmp/ccVyU0J5.s:707    .text:00000000000004b0 .L0 
     /tmp/ccVyU0J5.s:708    .text:00000000000004b0 .L0 
     /tmp/ccVyU0J5.s:710    .text:00000000000004b4 .L0 
     /tmp/ccVyU0J5.s:713    .text:00000000000004b8 .L0 
     /tmp/ccVyU0J5.s:716    .text:00000000000004bc .L0 
     /tmp/ccVyU0J5.s:718    .text:00000000000004c0 .L0 
     /tmp/ccVyU0J5.s:738    .text:00000000000004c0 _Z18Threads_C_API_testv
     /tmp/ccVyU0J5.s:741    .text:00000000000004c0 .L0 
     /tmp/ccVyU0J5.s:742    .text:00000000000004c0 .L0 
     /tmp/ccVyU0J5.s:743    .text:00000000000004c4 .L0 
     /tmp/ccVyU0J5.s:746    .text:00000000000004cc .L0 
     /tmp/ccVyU0J5.s:747    .text:00000000000004cc .L0 
     /tmp/ccVyU0J5.s:749    .text:00000000000004d0 .L0 
     /tmp/ccVyU0J5.s:751    .text:00000000000004d0 .L0 
     /tmp/ccVyU0J5.s:752    .text:00000000000004d0 .L0 
     /tmp/ccVyU0J5.s:753    .text:00000000000004d0 .L0 
     /tmp/ccVyU0J5.s:759    .text:00000000000004e8 .L0 
     /tmp/ccVyU0J5.s:760    .text:00000000000004e8 .L0 
     /tmp/ccVyU0J5.s:764    .text:00000000000004f8 .L0 
     /tmp/ccVyU0J5.s:765    .text:00000000000004f8 .L0 
     /tmp/ccVyU0J5.s:771    .text:0000000000000510 .L0 
     /tmp/ccVyU0J5.s:772    .text:0000000000000510 .L0 
     /tmp/ccVyU0J5.s:776    .text:0000000000000520 .L0 
     /tmp/ccVyU0J5.s:777    .text:0000000000000520 .L0 
     /tmp/ccVyU0J5.s:783    .text:0000000000000538 .L0 
     /tmp/ccVyU0J5.s:784    .text:0000000000000538 .L0 
     /tmp/ccVyU0J5.s:788    .text:0000000000000548 .L0 
     /tmp/ccVyU0J5.s:789    .text:0000000000000548 .L0 
     /tmp/ccVyU0J5.s:795    .text:0000000000000560 .L0 
     /tmp/ccVyU0J5.s:796    .text:0000000000000560 .L0 
     /tmp/ccVyU0J5.s:802    .text:0000000000000574 .L0 
     /tmp/ccVyU0J5.s:803    .text:0000000000000574 .L0 
     /tmp/ccVyU0J5.s:807    .text:000000000000057c .L0 
     /tmp/ccVyU0J5.s:808    .text:000000000000057c .L0 
     /tmp/ccVyU0J5.s:811    .text:0000000000000588 .L0 
     /tmp/ccVyU0J5.s:814    .text:0000000000000594 .L0 
     /tmp/ccVyU0J5.s:817    .text:00000000000005a0 .L0 
     /tmp/ccVyU0J5.s:820    .text:00000000000005ac .L0 
     /tmp/ccVyU0J5.s:821    .text:00000000000005b0 .L0 
     /tmp/ccVyU0J5.s:823    .text:00000000000005b4 .L0 
     /tmp/ccVyU0J5.s:824    .text:00000000000005b4 .L0 
     /tmp/ccVyU0J5.s:826    .text:00000000000005b8 .L0 
     /tmp/ccVyU0J5.s:828    .text:00000000000005bc .L0 
     /tmp/ccVyU0J5.s:834    .text:00000000000005bc _Z8userMainv
     /tmp/ccVyU0J5.s:837    .text:00000000000005bc .L0 
     /tmp/ccVyU0J5.s:838    .text:00000000000005bc .L0 
     /tmp/ccVyU0J5.s:839    .text:00000000000005c0 .L0 
     /tmp/ccVyU0J5.s:842    .text:00000000000005c8 .L0 
GAS LISTING /tmp/ccVyU0J5.s 			page 33


     /tmp/ccVyU0J5.s:843    .text:00000000000005c8 .L0 
     /tmp/ccVyU0J5.s:845    .text:00000000000005cc .L0 
     /tmp/ccVyU0J5.s:847    .text:00000000000005cc .L0 
     /tmp/ccVyU0J5.s:848    .text:00000000000005cc .L0 
     /tmp/ccVyU0J5.s:851    .text:00000000000005d4 .L0 
     /tmp/ccVyU0J5.s:852    .text:00000000000005d8 .L0 
     /tmp/ccVyU0J5.s:854    .text:00000000000005dc .L0 
     /tmp/ccVyU0J5.s:855    .text:00000000000005dc .L0 
     /tmp/ccVyU0J5.s:857    .text:00000000000005e0 .L0 
     /tmp/ccVyU0J5.s:859    .text:00000000000005e4 .L0 
     /tmp/ccVyU0J5.s:870    .text:00000000000005e4 main
     /tmp/ccVyU0J5.s:873    .text:00000000000005e4 .L0 
     /tmp/ccVyU0J5.s:874    .text:00000000000005e4 .L0 
     /tmp/ccVyU0J5.s:875    .text:00000000000005e8 .L0 
     /tmp/ccVyU0J5.s:878    .text:00000000000005f0 .L0 
     /tmp/ccVyU0J5.s:879    .text:00000000000005f0 .L0 
     /tmp/ccVyU0J5.s:881    .text:00000000000005f4 .L0 
     /tmp/ccVyU0J5.s:883    .text:00000000000005f4 .L0 
     /tmp/ccVyU0J5.s:884    .text:00000000000005f4 .L0 
     /tmp/ccVyU0J5.s:890    .text:00000000000005fc .L0 
  src/../h/riscv.hpp:126    .text:00000000000005fc .L0 
     /tmp/ccVyU0J5.s:900    .text:0000000000000600 .L0 
     /tmp/ccVyU0J5.s:901    .text:0000000000000600 .L0 
     /tmp/ccVyU0J5.s:902    .text:0000000000000600 .L0 
     /tmp/ccVyU0J5.s:908    .text:0000000000000614 .L0 
     /tmp/ccVyU0J5.s:909    .text:0000000000000614 .L0 
     /tmp/ccVyU0J5.s:916    .text:0000000000000624 .L0 
     /tmp/ccVyU0J5.s:917    .text:0000000000000624 .L0 
     /tmp/ccVyU0J5.s:918    .text:0000000000000624 .L0 
     /tmp/ccVyU0J5.s:928    .text:000000000000062c .L0 
     /tmp/ccVyU0J5.s:929    .text:000000000000062c .L0 
     /tmp/ccVyU0J5.s:932    .text:0000000000000634 .L0 
     /tmp/ccVyU0J5.s:933    .text:0000000000000634 .L0 
     /tmp/ccVyU0J5.s:937    .text:0000000000000644 .L0 
     /tmp/ccVyU0J5.s:938    .text:0000000000000644 .L0 
     /tmp/ccVyU0J5.s:940    .text:000000000000064c .L0 
     /tmp/ccVyU0J5.s:942    .text:0000000000000650 .L0 
     /tmp/ccVyU0J5.s:943    .text:0000000000000650 .L0 
     /tmp/ccVyU0J5.s:945    .text:0000000000000654 .L0 
     /tmp/ccVyU0J5.s:947    .text:0000000000000658 .L0 
     /tmp/ccVyU0J5.s:970    .bss:0000000000000003 finishedD
     /tmp/ccVyU0J5.s:966    .bss:0000000000000002 finishedC
     /tmp/ccVyU0J5.s:962    .bss:0000000000000001 finishedB
     /tmp/ccVyU0J5.s:958    .bss:0000000000000000 finishedA
     /tmp/ccVyU0J5.s:955    .bss:0000000000000000 .LANCHOR0
     /tmp/ccVyU0J5.s:980    .text:0000000000000658 .L0 
     /tmp/ccVyU0J5.s:8      .rodata.str1.8:0000000000000000 .LC0
     /tmp/ccVyU0J5.s:96     .text:0000000000000064 .L0 
     /tmp/ccVyU0J5.s:11     .rodata.str1.8:0000000000000008 .LC1
     /tmp/ccVyU0J5.s:106    .text:0000000000000080 .L0 
     /tmp/ccVyU0J5.s:14     .rodata.str1.8:0000000000000010 .LC2
     /tmp/ccVyU0J5.s:121    .text:0000000000000098 .L0 
     /tmp/ccVyU0J5.s:127    .text:00000000000000ac .L0 
     /tmp/ccVyU0J5.s:147    .rodata.str1.8:0000000000000020 .LC3
     /tmp/ccVyU0J5.s:239    .text:0000000000000140 .L0 
     /tmp/ccVyU0J5.s:249    .text:000000000000015c .L0 
     /tmp/ccVyU0J5.s:150    .rodata.str1.8:0000000000000028 .LC4
GAS LISTING /tmp/ccVyU0J5.s 			page 34


     /tmp/ccVyU0J5.s:264    .text:0000000000000174 .L0 
     /tmp/ccVyU0J5.s:270    .text:0000000000000188 .L0 
     /tmp/ccVyU0J5.s:365    .rodata.str1.8:0000000000000038 .LC5
     /tmp/ccVyU0J5.s:409    .text:0000000000000244 .L0 
     /tmp/ccVyU0J5.s:419    .text:0000000000000260 .L0 
     /tmp/ccVyU0J5.s:368    .rodata.str1.8:0000000000000040 .LC6
     /tmp/ccVyU0J5.s:434    .text:0000000000000280 .L0 
     /tmp/ccVyU0J5.s:371    .rodata.str1.8:0000000000000050 .LC7
     /tmp/ccVyU0J5.s:459    .text:00000000000002a0 .L0 
     /tmp/ccVyU0J5.s:469    .text:00000000000002bc .L0 
     /tmp/ccVyU0J5.s:374    .rodata.str1.8:0000000000000058 .LC8
     /tmp/ccVyU0J5.s:481    .text:00000000000002dc .L0 
     /tmp/ccVyU0J5.s:492    .text:00000000000002f8 .L0 
     /tmp/ccVyU0J5.s:504    .text:0000000000000318 .L0 
     /tmp/ccVyU0J5.s:514    .text:0000000000000334 .L0 
     /tmp/ccVyU0J5.s:377    .rodata.str1.8:0000000000000068 .LC9
     /tmp/ccVyU0J5.s:529    .text:0000000000000354 .L0 
     /tmp/ccVyU0J5.s:535    .text:0000000000000368 .L0 
     /tmp/ccVyU0J5.s:560    .rodata.str1.8:0000000000000078 .LC10
     /tmp/ccVyU0J5.s:601    .text:00000000000003b0 .L0 
     /tmp/ccVyU0J5.s:611    .text:00000000000003cc .L0 
     /tmp/ccVyU0J5.s:563    .rodata.str1.8:0000000000000080 .LC11
     /tmp/ccVyU0J5.s:626    .text:00000000000003ec .L0 
     /tmp/ccVyU0J5.s:566    .rodata.str1.8:0000000000000090 .LC12
     /tmp/ccVyU0J5.s:649    .text:0000000000000418 .L0 
     /tmp/ccVyU0J5.s:660    .text:0000000000000434 .L0 
     /tmp/ccVyU0J5.s:667    .text:0000000000000448 .L0 
     /tmp/ccVyU0J5.s:677    .text:0000000000000464 .L0 
     /tmp/ccVyU0J5.s:569    .rodata.str1.8:00000000000000a0 .LC13
     /tmp/ccVyU0J5.s:692    .text:0000000000000484 .L0 
     /tmp/ccVyU0J5.s:698    .text:0000000000000498 .L0 
     /tmp/ccVyU0J5.s:754    .text:00000000000004d4 .L0 
     /tmp/ccVyU0J5.s:723    .rodata.str1.8:00000000000000b0 .LC14
     /tmp/ccVyU0J5.s:760    .text:00000000000004e8 .L0 
     /tmp/ccVyU0J5.s:766    .text:00000000000004fc .L0 
     /tmp/ccVyU0J5.s:726    .rodata.str1.8:00000000000000c8 .LC15
     /tmp/ccVyU0J5.s:772    .text:0000000000000510 .L0 
     /tmp/ccVyU0J5.s:778    .text:0000000000000524 .L0 
     /tmp/ccVyU0J5.s:729    .rodata.str1.8:00000000000000e0 .LC16
     /tmp/ccVyU0J5.s:784    .text:0000000000000538 .L0 
     /tmp/ccVyU0J5.s:790    .text:000000000000054c .L0 
     /tmp/ccVyU0J5.s:732    .rodata.str1.8:00000000000000f8 .LC17
     /tmp/ccVyU0J5.s:796    .text:0000000000000560 .L0 
     /tmp/ccVyU0J5.s:808    .text:000000000000057c .L0 
     /tmp/ccVyU0J5.s:811    .text:0000000000000588 .L0 
     /tmp/ccVyU0J5.s:814    .text:0000000000000594 .L0 
     /tmp/ccVyU0J5.s:817    .text:00000000000005a0 .L0 
     /tmp/ccVyU0J5.s:884    .text:00000000000005f4 .L0 
     /tmp/ccVyU0J5.s:909    .text:0000000000000614 .L0 
     /tmp/ccVyU0J5.s:864    .rodata.str1.8:0000000000000110 .LC18
     /tmp/ccVyU0J5.s:933    .text:0000000000000634 .L0 
     /tmp/ccVyU0J5.s:89     .text:000000000000005c .L7
     /tmp/ccVyU0J5.s:77     .text:0000000000000050 .L3
     /tmp/ccVyU0J5.s:45     .text:0000000000000020 .L4
     /tmp/ccVyU0J5.s:66     .text:000000000000003c .L5
     /tmp/ccVyU0J5.s:115    .text:0000000000000098 .L2
     /tmp/ccVyU0J5.s:57     .text:000000000000002c .L6
GAS LISTING /tmp/ccVyU0J5.s 			page 35


     /tmp/ccVyU0J5.s:228    .text:0000000000000130 .L16
     /tmp/ccVyU0J5.s:236    .text:0000000000000140 .L11
     /tmp/ccVyU0J5.s:220    .text:000000000000012c .L12
     /tmp/ccVyU0J5.s:189    .text:00000000000000fc .L13
     /tmp/ccVyU0J5.s:209    .text:0000000000000118 .L14
     /tmp/ccVyU0J5.s:258    .text:0000000000000174 .L10
     /tmp/ccVyU0J5.s:180    .text:00000000000000ec .L18
     /tmp/ccVyU0J5.s:200    .text:0000000000000108 .L15
     /tmp/ccVyU0J5.s:336    .text:0000000000000200 .L19
     /tmp/ccVyU0J5.s:353    .text:0000000000000218 .L24
     /tmp/ccVyU0J5.s:323    .text:00000000000001e0 .L21
     /tmp/ccVyU0J5.s:427    .text:0000000000000278 .L27
     /tmp/ccVyU0J5.s:406    .text:0000000000000244 .L31
     /tmp/ccVyU0J5.s:522    .text:000000000000034c .L29
     /tmp/ccVyU0J5.s:501    .text:0000000000000318 .L32
     /tmp/ccVyU0J5.s:619    .text:00000000000003e4 .L35
     /tmp/ccVyU0J5.s:598    .text:00000000000003b0 .L39
     /tmp/ccVyU0J5.s:685    .text:000000000000047c .L37
     /tmp/ccVyU0J5.s:664    .text:0000000000000448 .L40
     /tmp/ccVyU0J5.s:805    .text:000000000000057c .L44
     /tmp/ccVyU0J5.s:800    .text:0000000000000574 .L42
     /tmp/ccVyU0J5.s:2834   .debug_abbrev:0000000000000000 .Ldebug_abbrev0
     /tmp/ccVyU0J5.s:4413   .debug_str:000000000000080c .LASF154
     /tmp/ccVyU0J5.s:4287   .debug_str:000000000000040e .LASF155
     /tmp/ccVyU0J5.s:4205   .debug_str:0000000000000198 .LASF156
     /tmp/ccVyU0J5.s:5      .text:0000000000000000 .Ltext0
     /tmp/ccVyU0J5.s:973    .text:0000000000000658 .Letext0
     /tmp/ccVyU0J5.s:4145   .debug_line:0000000000000000 .Ldebug_line0
     /tmp/ccVyU0J5.s:4323   .debug_str:000000000000053e .LASF0
     /tmp/ccVyU0J5.s:4341   .debug_str:00000000000005d6 .LASF1
     /tmp/ccVyU0J5.s:4303   .debug_str:0000000000000488 .LASF2
     /tmp/ccVyU0J5.s:4227   .debug_str:000000000000025d .LASF3
     /tmp/ccVyU0J5.s:4271   .debug_str:00000000000003ba .LASF4
     /tmp/ccVyU0J5.s:4389   .debug_str:0000000000000736 .LASF5
     /tmp/ccVyU0J5.s:4177   .debug_str:00000000000000aa .LASF6
     /tmp/ccVyU0J5.s:4217   .debug_str:0000000000000211 .LASF7
     /tmp/ccVyU0J5.s:4345   .debug_str:00000000000005f1 .LASF8
     /tmp/ccVyU0J5.s:4321   .debug_str:000000000000052b .LASF9
     /tmp/ccVyU0J5.s:4429   .debug_str:0000000000000949 .LASF10
     /tmp/ccVyU0J5.s:4255   .debug_str:000000000000031a .LASF11
     /tmp/ccVyU0J5.s:4361   .debug_str:0000000000000684 .LASF12
     /tmp/ccVyU0J5.s:4415   .debug_str:00000000000008d0 .LASF13
     /tmp/ccVyU0J5.s:4181   .debug_str:00000000000000bd .LASF14
     /tmp/ccVyU0J5.s:4155   .debug_str:0000000000000025 .LASF15
     /tmp/ccVyU0J5.s:4191   .debug_str:000000000000012e .LASF16
     /tmp/ccVyU0J5.s:4379   .debug_str:00000000000006ed .LASF17
     /tmp/ccVyU0J5.s:4207   .debug_str:00000000000001bb .LASF18
     /tmp/ccVyU0J5.s:4161   .debug_str:0000000000000048 .LASF51
     /tmp/ccVyU0J5.s:4263   .debug_str:000000000000036c .LASF19
     /tmp/ccVyU0J5.s:4369   .debug_str:00000000000006b9 .LASF21
     /tmp/ccVyU0J5.s:4347   .debug_str:0000000000000604 .LASF25
     /tmp/ccVyU0J5.s:4253   .debug_str:0000000000000303 .LASF27
     /tmp/ccVyU0J5.s:4305   .debug_str:0000000000000496 .LASF20
     /tmp/ccVyU0J5.s:4265   .debug_str:0000000000000371 .LASF22
     /tmp/ccVyU0J5.s:4231   .debug_str:000000000000026c .LASF23
     /tmp/ccVyU0J5.s:4241   .debug_str:00000000000002b5 .LASF24
     /tmp/ccVyU0J5.s:4315   .debug_str:00000000000004eb .LASF26
GAS LISTING /tmp/ccVyU0J5.s 			page 36


     /tmp/ccVyU0J5.s:4223   .debug_str:0000000000000238 .LASF28
     /tmp/ccVyU0J5.s:4297   .debug_str:000000000000045a .LASF29
     /tmp/ccVyU0J5.s:4175   .debug_str:0000000000000091 .LASF30
     /tmp/ccVyU0J5.s:4285   .debug_str:0000000000000401 .LASF31
     /tmp/ccVyU0J5.s:4239   .debug_str:0000000000000291 .LASF32
     /tmp/ccVyU0J5.s:4373   .debug_str:00000000000006d8 .LASF157
     /tmp/ccVyU0J5.s:4381   .debug_str:0000000000000703 .LASF75
     /tmp/ccVyU0J5.s:4311   .debug_str:00000000000004b1 .LASF77
     /tmp/ccVyU0J5.s:4407   .debug_str:00000000000007ed .LASF33
     /tmp/ccVyU0J5.s:4351   .debug_str:0000000000000632 .LASF34
     /tmp/ccVyU0J5.s:4235   .debug_str:0000000000000281 .LASF35
     /tmp/ccVyU0J5.s:4259   .debug_str:000000000000033e .LASF69
     /tmp/ccVyU0J5.s:4277   .debug_str:00000000000003d4 .LASF36
     /tmp/ccVyU0J5.s:4193   .debug_str:000000000000013a .LASF37
     /tmp/ccVyU0J5.s:4281   .debug_str:00000000000003ec .LASF38
     /tmp/ccVyU0J5.s:4333   .debug_str:00000000000005af .LASF39
     /tmp/ccVyU0J5.s:4275   .debug_str:00000000000003cb .LASF40
     /tmp/ccVyU0J5.s:4363   .debug_str:0000000000000693 .LASF41
     /tmp/ccVyU0J5.s:4301   .debug_str:000000000000047a .LASF42
     /tmp/ccVyU0J5.s:4261   .debug_str:0000000000000353 .LASF44
     /tmp/ccVyU0J5.s:4437   .debug_str:0000000000000981 .LASF56
     /tmp/ccVyU0J5.s:4267   .debug_str:0000000000000388 .LASF57
     /tmp/ccVyU0J5.s:4327   .debug_str:0000000000000552 .LASF43
     /tmp/ccVyU0J5.s:4299   .debug_str:0000000000000467 .LASF45
     /tmp/ccVyU0J5.s:4391   .debug_str:0000000000000748 .LASF115
     /tmp/ccVyU0J5.s:4291   .debug_str:0000000000000428 .LASF46
     /tmp/ccVyU0J5.s:4441   .debug_str:00000000000009a3 .LASF47
     /tmp/ccVyU0J5.s:4243   .debug_str:00000000000002cc .LASF48
     /tmp/ccVyU0J5.s:4147   .debug_str:0000000000000000 .LASF49
     /tmp/ccVyU0J5.s:4279   .debug_str:00000000000003d9 .LASF50
     /tmp/ccVyU0J5.s:4295   .debug_str:0000000000000455 .LASF52
     /tmp/ccVyU0J5.s:4375   .debug_str:00000000000006dd .LASF53
     /tmp/ccVyU0J5.s:4459   .debug_str:0000000000000a2b .LASF54
     /tmp/ccVyU0J5.s:4443   .debug_str:00000000000009ae .LASF55
     /tmp/ccVyU0J5.s:4399   .debug_str:0000000000000783 .LASF58
     /tmp/ccVyU0J5.s:4213   .debug_str:00000000000001f4 .LASF59
     /tmp/ccVyU0J5.s:4307   .debug_str:00000000000004a2 .LASF60
     /tmp/ccVyU0J5.s:4187   .debug_str:0000000000000108 .LASF61
     /tmp/ccVyU0J5.s:4319   .debug_str:000000000000050c .LASF62
     /tmp/ccVyU0J5.s:4451   .debug_str:00000000000009f3 .LASF136
     /tmp/ccVyU0J5.s:4183   .debug_str:00000000000000cd .LASF138
     /tmp/ccVyU0J5.s:4433   .debug_str:0000000000000963 .LASF63
     /tmp/ccVyU0J5.s:4331   .debug_str:000000000000058c .LASF64
     /tmp/ccVyU0J5.s:4247   .debug_str:00000000000002e6 .LASF65
     /tmp/ccVyU0J5.s:4313   .debug_str:00000000000004c1 .LASF66
     /tmp/ccVyU0J5.s:4317   .debug_str:00000000000004f6 .LASF67
     /tmp/ccVyU0J5.s:4329   .debug_str:000000000000055b .LASF68
     /tmp/ccVyU0J5.s:4349   .debug_str:000000000000060f .LASF70
     /tmp/ccVyU0J5.s:4337   .debug_str:00000000000005c5 .LASF71
     /tmp/ccVyU0J5.s:4211   .debug_str:00000000000001e5 .LASF158
     /tmp/ccVyU0J5.s:4201   .debug_str:0000000000000178 .LASF72
     /tmp/ccVyU0J5.s:4445   .debug_str:00000000000009bb .LASF73
     /tmp/ccVyU0J5.s:4179   .debug_str:00000000000000b1 .LASF74
     /tmp/ccVyU0J5.s:4377   .debug_str:00000000000006e2 .LASF76
     /tmp/ccVyU0J5.s:4449   .debug_str:00000000000009db .LASF78
     /tmp/ccVyU0J5.s:4157   .debug_str:0000000000000035 .LASF80
     /tmp/ccVyU0J5.s:4401   .debug_str:00000000000007ad .LASF82
GAS LISTING /tmp/ccVyU0J5.s 			page 37


     /tmp/ccVyU0J5.s:4229   .debug_str:0000000000000263 .LASF79
     /tmp/ccVyU0J5.s:4197   .debug_str:0000000000000150 .LASF85
     /tmp/ccVyU0J5.s:4393   .debug_str:0000000000000759 .LASF81
     /tmp/ccVyU0J5.s:4367   .debug_str:00000000000006a6 .LASF83
     /tmp/ccVyU0J5.s:4411   .debug_str:0000000000000805 .LASF84
     /tmp/ccVyU0J5.s:4405   .debug_str:00000000000007da .LASF86
     /tmp/ccVyU0J5.s:4343   .debug_str:00000000000005e9 .LASF87
     /tmp/ccVyU0J5.s:4209   .debug_str:00000000000001d1 .LASF88
     /tmp/ccVyU0J5.s:4151   .debug_str:0000000000000016 .LASF89
     /tmp/ccVyU0J5.s:4395   .debug_str:0000000000000760 .LASF90
     /tmp/ccVyU0J5.s:4237   .debug_str:0000000000000289 .LASF91
     /tmp/ccVyU0J5.s:4439   .debug_str:000000000000098f .LASF92
     /tmp/ccVyU0J5.s:4383   .debug_str:0000000000000709 .LASF93
     /tmp/ccVyU0J5.s:4203   .debug_str:0000000000000184 .LASF94
     /tmp/ccVyU0J5.s:4325   .debug_str:000000000000054b .LASF95
     /tmp/ccVyU0J5.s:4447   .debug_str:00000000000009c8 .LASF96
     /tmp/ccVyU0J5.s:4173   .debug_str:000000000000008a .LASF97
     /tmp/ccVyU0J5.s:4417   .debug_str:00000000000008df .LASF98
     /tmp/ccVyU0J5.s:4251   .debug_str:00000000000002fd .LASF99
     /tmp/ccVyU0J5.s:4409   .debug_str:00000000000007f3 .LASF100
     /tmp/ccVyU0J5.s:4169   .debug_str:0000000000000074 .LASF101
     /tmp/ccVyU0J5.s:4463   .debug_str:0000000000000a35 .LASF102
     /tmp/ccVyU0J5.s:4457   .debug_str:0000000000000a20 .LASF103
     /tmp/ccVyU0J5.s:4387   .debug_str:000000000000071e .LASF104
     /tmp/ccVyU0J5.s:4339   .debug_str:00000000000005cb .LASF105
     /tmp/ccVyU0J5.s:4403   .debug_str:00000000000007c2 .LASF106
     /tmp/ccVyU0J5.s:4189   .debug_str:0000000000000124 .LASF107
     /tmp/ccVyU0J5.s:4357   .debug_str:000000000000064d .LASF108
     /tmp/ccVyU0J5.s:4309   .debug_str:00000000000004a7 .LASF109
     /tmp/ccVyU0J5.s:4257   .debug_str:0000000000000328 .LASF110
     /tmp/ccVyU0J5.s:4397   .debug_str:0000000000000774 .LASF111
     /tmp/ccVyU0J5.s:4185   .debug_str:00000000000000ec .LASF112
     /tmp/ccVyU0J5.s:4435   .debug_str:000000000000096c .LASF113
     /tmp/ccVyU0J5.s:4293   .debug_str:0000000000000433 .LASF114
     /tmp/ccVyU0J5.s:4171   .debug_str:000000000000007a .LASF116
     /tmp/ccVyU0J5.s:4365   .debug_str:000000000000069c .LASF117
     /tmp/ccVyU0J5.s:4269   .debug_str:00000000000003b0 .LASF118
     /tmp/ccVyU0J5.s:4159   .debug_str:000000000000003e .LASF119
     /tmp/ccVyU0J5.s:4273   .debug_str:00000000000003c1 .LASF120
     /tmp/ccVyU0J5.s:4355   .debug_str:0000000000000648 .LASF121
     /tmp/ccVyU0J5.s:871    .text:00000000000005e4 .LFB53
     /tmp/ccVyU0J5.s:948    .text:0000000000000658 .LFE53
     /tmp/ccVyU0J5.s:886    .text:00000000000005fc .LBB22
     /tmp/ccVyU0J5.s:898    .text:0000000000000600 .LBE22
     /tmp/ccVyU0J5.s:914    .text:0000000000000624 .LBB24
     /tmp/ccVyU0J5.s:926    .text:000000000000062c .LBE24
     /tmp/ccVyU0J5.s:3892   .debug_loc:0000000000000000 .LLST16
     /tmp/ccVyU0J5.s:906    .text:0000000000000614 .LVL108
     /tmp/ccVyU0J5.s:930    .text:0000000000000634 .LVL111
     /tmp/ccVyU0J5.s:935    .text:0000000000000644 .LVL112
     /tmp/ccVyU0J5.s:4233   .debug_str:0000000000000278 .LASF122
     /tmp/ccVyU0J5.s:4283   .debug_str:00000000000003f4 .LASF123
     /tmp/ccVyU0J5.s:835    .text:00000000000005bc .LFB52
     /tmp/ccVyU0J5.s:860    .text:00000000000005e4 .LFE52
     /tmp/ccVyU0J5.s:849    .text:00000000000005d4 .LVL105
     /tmp/ccVyU0J5.s:4419   .debug_str:00000000000008f2 .LASF124
     /tmp/ccVyU0J5.s:4215   .debug_str:00000000000001f9 .LASF125
GAS LISTING /tmp/ccVyU0J5.s 			page 38


     /tmp/ccVyU0J5.s:739    .text:00000000000004c0 .LFB51
     /tmp/ccVyU0J5.s:829    .text:00000000000005bc .LFE51
     /tmp/ccVyU0J5.s:4249   .debug_str:00000000000002f5 .LASF126
     /tmp/ccVyU0J5.s:757    .text:00000000000004e8 .LVL96
     /tmp/ccVyU0J5.s:762    .text:00000000000004f8 .LVL97
     /tmp/ccVyU0J5.s:769    .text:0000000000000510 .LVL98
     /tmp/ccVyU0J5.s:774    .text:0000000000000520 .LVL99
     /tmp/ccVyU0J5.s:781    .text:0000000000000538 .LVL100
     /tmp/ccVyU0J5.s:786    .text:0000000000000548 .LVL101
     /tmp/ccVyU0J5.s:793    .text:0000000000000560 .LVL102
     /tmp/ccVyU0J5.s:798    .text:0000000000000570 .LVL103
     /tmp/ccVyU0J5.s:804    .text:000000000000057c .LVL104
     /tmp/ccVyU0J5.s:4163   .debug_str:0000000000000050 .LASF127
     /tmp/ccVyU0J5.s:4453   .debug_str:00000000000009fd .LASF128
     /tmp/ccVyU0J5.s:576    .text:0000000000000390 .LFB50
     /tmp/ccVyU0J5.s:719    .text:00000000000004c0 .LFE50
     /tmp/ccVyU0J5.s:3900   .debug_loc:0000000000000024 .LLST13
     /tmp/ccVyU0J5.s:3914   .debug_loc:000000000000005d .LLST14
     /tmp/ccVyU0J5.s:4153   .debug_str:000000000000001e .LASF129
     /tmp/ccVyU0J5.s:3934   .debug_loc:00000000000000ba .LLST15
     /tmp/ccVyU0J5.s:603    .text:00000000000003c0 .LVL74
     /tmp/ccVyU0J5.s:608    .text:00000000000003cc .LVL75
     /tmp/ccVyU0J5.s:613    .text:00000000000003dc .LVL76
     /tmp/ccVyU0J5.s:628    .text:00000000000003fc .LVL79
     /tmp/ccVyU0J5.s:639    .text:0000000000000408 .LVL80
     /tmp/ccVyU0J5.s:644    .text:0000000000000414 .LVL81
     /tmp/ccVyU0J5.s:652    .text:0000000000000428 .LVL84
     /tmp/ccVyU0J5.s:657    .text:0000000000000434 .LVL85
     /tmp/ccVyU0J5.s:662    .text:0000000000000444 .LVL86
     /tmp/ccVyU0J5.s:669    .text:0000000000000458 .LVL87
     /tmp/ccVyU0J5.s:674    .text:0000000000000464 .LVL88
     /tmp/ccVyU0J5.s:679    .text:0000000000000474 .LVL89
     /tmp/ccVyU0J5.s:694    .text:0000000000000494 .LVL92
     /tmp/ccVyU0J5.s:702    .text:00000000000004a8 .LVL93
     /tmp/ccVyU0J5.s:4221   .debug_str:000000000000022b .LASF130
     /tmp/ccVyU0J5.s:4371   .debug_str:00000000000006c5 .LASF131
     /tmp/ccVyU0J5.s:384    .text:0000000000000224 .LFB49
     /tmp/ccVyU0J5.s:556    .text:0000000000000390 .LFE49
     /tmp/ccVyU0J5.s:3945   .debug_loc:00000000000000f0 .LLST9
     /tmp/ccVyU0J5.s:3959   .debug_loc:0000000000000129 .LLST10
     /tmp/ccVyU0J5.s:3979   .debug_loc:0000000000000186 .LLST11
     /tmp/ccVyU0J5.s:3987   .debug_loc:00000000000001aa .LLST12
     /tmp/ccVyU0J5.s:411    .text:0000000000000254 .LVL44
     /tmp/ccVyU0J5.s:416    .text:0000000000000260 .LVL45
     /tmp/ccVyU0J5.s:421    .text:0000000000000270 .LVL46
     /tmp/ccVyU0J5.s:436    .text:0000000000000290 .LVL49
     /tmp/ccVyU0J5.s:447    .text:000000000000029c .LVL50
     /tmp/ccVyU0J5.s:461    .text:00000000000002b0 .LVL52
     /tmp/ccVyU0J5.s:466    .text:00000000000002bc .LVL53
     /tmp/ccVyU0J5.s:471    .text:00000000000002cc .LVL54
     /tmp/ccVyU0J5.s:476    .text:00000000000002d8 .LVL55
     /tmp/ccVyU0J5.s:484    .text:00000000000002ec .LVL58
     /tmp/ccVyU0J5.s:489    .text:00000000000002f8 .LVL59
     /tmp/ccVyU0J5.s:494    .text:0000000000000308 .LVL60
     /tmp/ccVyU0J5.s:499    .text:0000000000000314 .LVL61
     /tmp/ccVyU0J5.s:506    .text:0000000000000328 .LVL62
     /tmp/ccVyU0J5.s:511    .text:0000000000000334 .LVL63
GAS LISTING /tmp/ccVyU0J5.s 			page 39


     /tmp/ccVyU0J5.s:516    .text:0000000000000344 .LVL64
     /tmp/ccVyU0J5.s:531    .text:0000000000000364 .LVL67
     /tmp/ccVyU0J5.s:539    .text:0000000000000378 .LVL68
     /tmp/ccVyU0J5.s:4289   .debug_str:000000000000041b .LASF132
     /tmp/ccVyU0J5.s:4425   .debug_str:0000000000000925 .LASF133
     /tmp/ccVyU0J5.s:157    .text:00000000000000cc .LFB48
     /tmp/ccVyU0J5.s:290    .text:00000000000001b0 .LFE48
     /tmp/ccVyU0J5.s:3998   .debug_loc:00000000000001e0 .LLST4
     /tmp/ccVyU0J5.s:175    .text:00000000000000e4 .LBB14
     /tmp/ccVyU0J5.s:261    .text:0000000000000174 .LBE14
     /tmp/ccVyU0J5.s:4012   .debug_loc:0000000000000219 .LLST5
     /tmp/ccVyU0J5.s:4131   .debug_ranges:0000000000000000 .Ldebug_ranges0
     /tmp/ccVyU0J5.s:4024   .debug_loc:0000000000000250 .LLST6
     /tmp/ccVyU0J5.s:206    .text:0000000000000114 .LBB18
     /tmp/ccVyU0J5.s:221    .text:000000000000012c .LBE18
     /tmp/ccVyU0J5.s:4036   .debug_loc:0000000000000287 .LLST7
     /tmp/ccVyU0J5.s:195    .text:0000000000000104 .LVL21
     /tmp/ccVyU0J5.s:186    .text:00000000000000f8 .LVL19
     /tmp/ccVyU0J5.s:241    .text:0000000000000150 .LVL27
     /tmp/ccVyU0J5.s:246    .text:000000000000015c .LVL28
     /tmp/ccVyU0J5.s:251    .text:000000000000016c .LVL29
     /tmp/ccVyU0J5.s:266    .text:0000000000000184 .LVL31
     /tmp/ccVyU0J5.s:274    .text:0000000000000198 .LVL32
     /tmp/ccVyU0J5.s:4149   .debug_str:0000000000000009 .LASF134
     /tmp/ccVyU0J5.s:4199   .debug_str:0000000000000165 .LASF135
     /tmp/ccVyU0J5.s:21     .text:0000000000000000 .LFB47
     /tmp/ccVyU0J5.s:143    .text:00000000000000cc .LFE47
     /tmp/ccVyU0J5.s:4047   .debug_loc:00000000000002bd .LLST0
     /tmp/ccVyU0J5.s:40     .text:0000000000000018 .LBB6
     /tmp/ccVyU0J5.s:118    .text:0000000000000098 .LBE6
     /tmp/ccVyU0J5.s:4061   .debug_loc:00000000000002f6 .LLST1
     /tmp/ccVyU0J5.s:4073   .debug_loc:000000000000032d .LLST2
     /tmp/ccVyU0J5.s:63     .text:0000000000000038 .LBB10
     /tmp/ccVyU0J5.s:78     .text:0000000000000050 .LBE10
     /tmp/ccVyU0J5.s:4085   .debug_loc:0000000000000364 .LLST3
     /tmp/ccVyU0J5.s:52     .text:0000000000000028 .LVL3
     /tmp/ccVyU0J5.s:84     .text:0000000000000058 .LVL8
     /tmp/ccVyU0J5.s:98     .text:0000000000000074 .LVL10
     /tmp/ccVyU0J5.s:103    .text:0000000000000080 .LVL11
     /tmp/ccVyU0J5.s:108    .text:0000000000000090 .LVL12
     /tmp/ccVyU0J5.s:123    .text:00000000000000a8 .LVL14
     /tmp/ccVyU0J5.s:4431   .debug_str:0000000000000959 .LASF137
     /tmp/ccVyU0J5.s:4423   .debug_str:0000000000000917 .LASF139
     /tmp/ccVyU0J5.s:296    .text:00000000000001b0 .LFB46
     /tmp/ccVyU0J5.s:361    .text:0000000000000224 .LFE46
     /tmp/ccVyU0J5.s:4096   .debug_loc:000000000000039a .LLST8
     /tmp/ccVyU0J5.s:328    .text:00000000000001ec .LVL36
     /tmp/ccVyU0J5.s:333    .text:00000000000001fc .LVL37
     /tmp/ccVyU0J5.s:358    .text:0000000000000220 .LVL40
     /tmp/ccVyU0J5.s:4461   .debug_str:0000000000000a30 .LASF140
     /tmp/ccVyU0J5.s:4353   .debug_str:0000000000000642 .LASF141
     /tmp/ccVyU0J5.s:4359   .debug_str:0000000000000663 .LASF142
     /tmp/ccVyU0J5.s:4225   .debug_str:000000000000024f .LASF144
     /tmp/ccVyU0J5.s:4219   .debug_str:0000000000000218 .LASF143
     /tmp/ccVyU0J5.s:4335   .debug_str:00000000000005b9 .LASF145
     /tmp/ccVyU0J5.s:4245   .debug_str:00000000000002d1 .LASF146
     /tmp/ccVyU0J5.s:4195   .debug_str:0000000000000140 .LASF147
GAS LISTING /tmp/ccVyU0J5.s 			page 40


     /tmp/ccVyU0J5.s:4421   .debug_str:0000000000000905 .LASF148
     /tmp/ccVyU0J5.s:4385   .debug_str:0000000000000711 .LASF149
     /tmp/ccVyU0J5.s:4455   .debug_str:0000000000000a10 .LASF150
     /tmp/ccVyU0J5.s:4167   .debug_str:0000000000000069 .LASF151
     /tmp/ccVyU0J5.s:4427   .debug_str:0000000000000938 .LASF152
     /tmp/ccVyU0J5.s:4165   .debug_str:000000000000005d .LASF153
     /tmp/ccVyU0J5.s:913    .text:0000000000000624 .LVL109
     /tmp/ccVyU0J5.s:923    .text:000000000000062c .LVL110
     /tmp/ccVyU0J5.s:579    .text:0000000000000390 .LVL71
     /tmp/ccVyU0J5.s:597    .text:00000000000003b0 .LVL73
     /tmp/ccVyU0J5.s:593    .text:00000000000003a8 .LVL72
     /tmp/ccVyU0J5.s:616    .text:00000000000003e0 .LVL77
     /tmp/ccVyU0J5.s:618    .text:00000000000003e4 .LVL78
     /tmp/ccVyU0J5.s:682    .text:0000000000000478 .LVL90
     /tmp/ccVyU0J5.s:684    .text:000000000000047c .LVL91
     /tmp/ccVyU0J5.s:711    .text:00000000000004b4 .LVL94
     /tmp/ccVyU0J5.s:646    .text:0000000000000418 .LVL82
     /tmp/ccVyU0J5.s:650    .text:0000000000000420 .LVL83
     /tmp/ccVyU0J5.s:714    .text:00000000000004b8 .LVL95
     /tmp/ccVyU0J5.s:387    .text:0000000000000224 .LVL41
     /tmp/ccVyU0J5.s:405    .text:0000000000000244 .LVL43
     /tmp/ccVyU0J5.s:401    .text:000000000000023c .LVL42
     /tmp/ccVyU0J5.s:424    .text:0000000000000274 .LVL47
     /tmp/ccVyU0J5.s:426    .text:0000000000000278 .LVL48
     /tmp/ccVyU0J5.s:519    .text:0000000000000348 .LVL65
     /tmp/ccVyU0J5.s:521    .text:000000000000034c .LVL66
     /tmp/ccVyU0J5.s:548    .text:0000000000000384 .LVL69
     /tmp/ccVyU0J5.s:455    .text:00000000000002a0 .LVL51
     /tmp/ccVyU0J5.s:478    .text:00000000000002dc .LVL56
     /tmp/ccVyU0J5.s:482    .text:00000000000002e4 .LVL57
     /tmp/ccVyU0J5.s:551    .text:0000000000000388 .LVL70
     /tmp/ccVyU0J5.s:160    .text:00000000000000cc .LVL16
     /tmp/ccVyU0J5.s:179    .text:00000000000000ec .LVL18
     /tmp/ccVyU0J5.s:174    .text:00000000000000e4 .LVL17
     /tmp/ccVyU0J5.s:285    .text:00000000000001a8 .LVL33
     /tmp/ccVyU0J5.s:188    .text:00000000000000fc .LVL20
     /tmp/ccVyU0J5.s:227    .text:0000000000000130 .LVL26
     /tmp/ccVyU0J5.s:257    .text:0000000000000174 .LVL30
     /tmp/ccVyU0J5.s:210    .text:0000000000000118 .LVL23
     /tmp/ccVyU0J5.s:219    .text:000000000000012c .LVL25
     /tmp/ccVyU0J5.s:25     .text:0000000000000000 .LVL0
     /tmp/ccVyU0J5.s:44     .text:0000000000000020 .LVL2
     /tmp/ccVyU0J5.s:39     .text:0000000000000018 .LVL1
     /tmp/ccVyU0J5.s:138    .text:00000000000000c4 .LVL15
     /tmp/ccVyU0J5.s:88     .text:000000000000005c .LVL9
     /tmp/ccVyU0J5.s:114    .text:0000000000000098 .LVL13
     /tmp/ccVyU0J5.s:67     .text:000000000000003c .LVL5
     /tmp/ccVyU0J5.s:76     .text:0000000000000050 .LVL7
     /tmp/ccVyU0J5.s:299    .text:00000000000001b0 .LVL34
     /tmp/ccVyU0J5.s:322    .text:00000000000001e0 .LVL35
     /tmp/ccVyU0J5.s:346    .text:000000000000020c .LVL38
     /tmp/ccVyU0J5.s:352    .text:0000000000000218 .LVL39
     /tmp/ccVyU0J5.s:981    .debug_info:0000000000000000 .Ldebug_info0
     /tmp/ccVyU0J5.s:47     .text:0000000000000020 .LBB8
     /tmp/ccVyU0J5.s:80     .text:0000000000000050 .LBE8
     /tmp/ccVyU0J5.s:110    .text:0000000000000090 .LBB12
     /tmp/ccVyU0J5.s:116    .text:0000000000000098 .LBE12
GAS LISTING /tmp/ccVyU0J5.s 			page 41


     /tmp/ccVyU0J5.s:190    .text:00000000000000fc .LBB16
     /tmp/ccVyU0J5.s:223    .text:000000000000012c .LBE16
     /tmp/ccVyU0J5.s:253    .text:000000000000016c .LBB20
     /tmp/ccVyU0J5.s:259    .text:0000000000000174 .LBE20

UNDEFINED SYMBOLS
_Z15thread_dispatchv
_Z11thread_exitv
_Z11printStringPKc
_Z12printIntegerm
_Z10time_sleepm
_Z13thread_createPP3TCBPFvPvES2_
_ZN5Riscv14supervisorTrapEv
_ZN3TCB7runningE
