GAS LISTING /tmp/ccRzSJoQ.s 			page 1


   1              		.file	"riscv.cpp"
   2              		.option pic
   3              		.option norelax
   4              		.text
   5              	.Ltext0:
   6              		.align	2
   8              	_Z41__static_initialization_and_destruction_0ii:
   9              	.LFB48:
  10              		.file 1 "src/riscv.cpp"
   1:src/riscv.cpp **** //
   2:src/riscv.cpp **** // Created by marko on 20.4.22..
   3:src/riscv.cpp **** //
   4:src/riscv.cpp **** 
   5:src/riscv.cpp **** #include "../h/riscv.hpp"
   6:src/riscv.cpp **** #include "../h/tcb.hpp"
   7:src/riscv.cpp **** #include "../lib/console.h"
   8:src/riscv.cpp **** #include "../h/print.hpp"
   9:src/riscv.cpp **** #include "../h/codes.h"
  10:src/riscv.cpp **** #include "../h/syscall_c.h"
  11:src/riscv.cpp **** 
  12:src/riscv.cpp **** SleepingThreadList Riscv::sleepingThreads;
  13:src/riscv.cpp **** 
  14:src/riscv.cpp **** void Riscv::popSppSpie()
  15:src/riscv.cpp **** {
  16:src/riscv.cpp ****     __asm__ volatile("csrw sepc, ra");
  17:src/riscv.cpp ****     __asm__ volatile("sret");
  18:src/riscv.cpp **** }
  19:src/riscv.cpp **** 
  20:src/riscv.cpp **** void Riscv::handleSupervisorTrap()
  21:src/riscv.cpp **** {
  22:src/riscv.cpp **** 
  23:src/riscv.cpp ****     uint64 scause = r_scause();
  24:src/riscv.cpp ****     if (scause == 0x0000000000000008UL || scause == 0x0000000000000009UL)
  25:src/riscv.cpp ****     {
  26:src/riscv.cpp **** //         interrupt: no; cause code: environment call from U-mode(8) or S-mode(9)
  27:src/riscv.cpp ****         uint64 volatile sepc = r_sepc() + 4;
  28:src/riscv.cpp ****         uint64 volatile sstatus = r_sstatus();
  29:src/riscv.cpp **** 
  30:src/riscv.cpp ****         uint64 code;
  31:src/riscv.cpp ****         __asm__ volatile("ld t1, 8*10(fp)");
  32:src/riscv.cpp ****         __asm__ volatile("mv %0, t1" : "=r" (code));
  33:src/riscv.cpp **** 
  34:src/riscv.cpp ****         if (code == MemAlloc) {
  35:src/riscv.cpp **** 
  36:src/riscv.cpp ****         }
  37:src/riscv.cpp ****         else if (code == MemFree) {
  38:src/riscv.cpp **** 
  39:src/riscv.cpp ****         }
  40:src/riscv.cpp ****         else if (code == ThreadCreate){
  41:src/riscv.cpp ****             TCB::Body start_routine;
  42:src/riscv.cpp ****             void* args = nullptr;
  43:src/riscv.cpp ****             uint64 *stack;
  44:src/riscv.cpp ****             thread_t* handle;
  45:src/riscv.cpp **** 
  46:src/riscv.cpp ****             __asm__ volatile("ld t2, 8*11(fp)");
  47:src/riscv.cpp ****             __asm__ volatile("mv %0, t2" : "=r" (handle));
  48:src/riscv.cpp **** 
GAS LISTING /tmp/ccRzSJoQ.s 			page 2


  49:src/riscv.cpp ****             __asm__ volatile("ld t1, 8*12(fp)");
  50:src/riscv.cpp ****             __asm__ volatile("mv %0, t1" : "=r" (start_routine));
  51:src/riscv.cpp **** 
  52:src/riscv.cpp ****             __asm__ volatile("ld t1, 8*13(fp)");
  53:src/riscv.cpp ****             __asm__ volatile("mv %0, t1" : "=r" (args));
  54:src/riscv.cpp **** 
  55:src/riscv.cpp ****             __asm__ volatile("ld t1, 8*14(fp)");
  56:src/riscv.cpp ****             __asm__ volatile("mv %0, t1" : "=r" (stack));
  57:src/riscv.cpp **** 
  58:src/riscv.cpp ****             TCB::createThread(handle, start_routine, args, stack);
  59:src/riscv.cpp **** 
  60:src/riscv.cpp ****         }
  61:src/riscv.cpp ****         else if (code == ThreadExit){
  62:src/riscv.cpp ****             TCB::running->setFinished(true);
  63:src/riscv.cpp ****             TCB::dispatch();
  64:src/riscv.cpp ****             w_sstatus(sstatus);
  65:src/riscv.cpp ****             w_sepc(sepc);
  66:src/riscv.cpp ****         }
  67:src/riscv.cpp ****         else if (code == ThreadDispatch){
  68:src/riscv.cpp ****             TCB::timeSliceCounter = 0;
  69:src/riscv.cpp ****             TCB::dispatch();
  70:src/riscv.cpp ****             w_sstatus(sstatus);
  71:src/riscv.cpp ****             w_sepc(sepc);
  72:src/riscv.cpp ****         }
  73:src/riscv.cpp ****         else if (code == SemOpen){
  74:src/riscv.cpp **** 
  75:src/riscv.cpp ****         }
  76:src/riscv.cpp ****         else if (code == SemClose){
  77:src/riscv.cpp **** 
  78:src/riscv.cpp ****         }
  79:src/riscv.cpp ****         else if (code == SemWait){
  80:src/riscv.cpp **** 
  81:src/riscv.cpp ****         }
  82:src/riscv.cpp ****         else if (code == SemSignal){
  83:src/riscv.cpp **** 
  84:src/riscv.cpp ****         }
  85:src/riscv.cpp ****         else if (code == TimeSleep){
  86:src/riscv.cpp ****             //TReba da smestim nit u sleepingThreads i da promenim kontekst, ali ne smem da je opet
  87:src/riscv.cpp ****             //NIJE IMPLEMENTIRANO BUDJENJE NITI!
  88:src/riscv.cpp **** 
  89:src/riscv.cpp ****             time_t slice;
  90:src/riscv.cpp ****             printString("Usao ovde");
  91:src/riscv.cpp ****             __asm__ volatile("ld t2, 8*11(fp)");
  92:src/riscv.cpp ****             __asm__ volatile("mv %0, t2" : "=r" (slice));
  93:src/riscv.cpp ****             printString("\nSlice = ");
  94:src/riscv.cpp ****             printInteger(slice);
  95:src/riscv.cpp ****             printString("\n");
  96:src/riscv.cpp ****             if(slice != 0) {
  97:src/riscv.cpp ****                 TCB::running->setSleeping(true);
  98:src/riscv.cpp ****                 Riscv::sleepingThreads.put(TCB::running, slice);
  99:src/riscv.cpp ****             }
 100:src/riscv.cpp ****             TCB::timeSliceCounter = 0;
 101:src/riscv.cpp ****             TCB::dispatch();
 102:src/riscv.cpp **** 
 103:src/riscv.cpp ****         }
 104:src/riscv.cpp ****         else if (code == GetC){
 105:src/riscv.cpp **** 
GAS LISTING /tmp/ccRzSJoQ.s 			page 3


 106:src/riscv.cpp ****         }
 107:src/riscv.cpp ****         else if (code == PutC){
 108:src/riscv.cpp **** 
 109:src/riscv.cpp ****         }
 110:src/riscv.cpp ****         else {
 111:src/riscv.cpp ****             uint64 volatile sepc = r_sepc() + 4;
 112:src/riscv.cpp ****             uint64 volatile sstatus = r_sstatus();
 113:src/riscv.cpp ****             TCB::timeSliceCounter = 0;
 114:src/riscv.cpp ****             TCB::dispatch();
 115:src/riscv.cpp ****             w_sstatus(sstatus);
 116:src/riscv.cpp ****             w_sepc(sepc);
 117:src/riscv.cpp ****         }
 118:src/riscv.cpp **** 
 119:src/riscv.cpp ****         w_sstatus(sstatus);
 120:src/riscv.cpp ****         w_sepc(sepc);
 121:src/riscv.cpp ****     }
 122:src/riscv.cpp ****     else if (scause == 0x8000000000000001UL)
 123:src/riscv.cpp ****     {
 124:src/riscv.cpp **** //        printString("TIMER");
 125:src/riscv.cpp **** //         interrupt: yes; cause code: supervisor software interrupt (CLINT; machine timer interrup
 126:src/riscv.cpp ****         time_t temp = Riscv::sleepingThreads.peekFirstSlice();
 127:src/riscv.cpp ****         time_t t1 = -1;
 128:src/riscv.cpp **** 
 129:src/riscv.cpp ****         if (temp != t1){
 130:src/riscv.cpp **** //            printInteger(Riscv::sleepingThreads.peekFirstSlice());
 131:src/riscv.cpp **** //            printString("\n");
 132:src/riscv.cpp ****             Riscv::sleepingThreads.decFirst();
 133:src/riscv.cpp ****             if (Riscv::sleepingThreads.peekFirstSlice() == 0) {
 134:src/riscv.cpp ****                 Riscv::sleepingThreads.removeFinishedThreads();
 135:src/riscv.cpp ****             }
 136:src/riscv.cpp ****         }
 137:src/riscv.cpp ****         mc_sip(SIP_SSIP);
 138:src/riscv.cpp ****         TCB::timeSliceCounter++;
 139:src/riscv.cpp ****         if (TCB::timeSliceCounter >= TCB::running->getTimeSlice())
 140:src/riscv.cpp ****         {
 141:src/riscv.cpp ****             uint64 volatile sepc = r_sepc();
 142:src/riscv.cpp ****             uint64 volatile sstatus = r_sstatus();
 143:src/riscv.cpp ****             TCB::timeSliceCounter = 0;
 144:src/riscv.cpp ****             TCB::dispatch();
 145:src/riscv.cpp ****             w_sstatus(sstatus);
 146:src/riscv.cpp ****             w_sepc(sepc);
 147:src/riscv.cpp ****         }
 148:src/riscv.cpp ****     }
 149:src/riscv.cpp ****     else if (scause == 0x8000000000000009UL)
 150:src/riscv.cpp ****     {
 151:src/riscv.cpp ****         // interrupt: yes; cause code: supervisor external interrupt (PLIC; could be keyboard)
 152:src/riscv.cpp ****         console_handler();
 153:src/riscv.cpp ****     }
 154:src/riscv.cpp ****     else
 155:src/riscv.cpp ****     {
 156:src/riscv.cpp ****         // unexpected trap cause
 157:src/riscv.cpp ****     }
 158:src/riscv.cpp **** }...
  11              		.loc 1 158 1
  12              		.cfi_startproc
  13              	.LVL0:
  14 0000 130101FF 		addi	sp,sp,-16
GAS LISTING /tmp/ccRzSJoQ.s 			page 4


  15              		.cfi_def_cfa_offset 16
  16 0004 23348100 		sd	s0,8(sp)
  17              		.cfi_offset 8, -8
  18 0008 13040101 		addi	s0,sp,16
  19              		.cfi_def_cfa 8, 0
  20              		.loc 1 158 1 is_stmt 0
  21 000c 93071000 		li	a5,1
  22 0010 6308F500 		beq	a0,a5,.L4
  23              	.L1:
  24 0014 03348100 		ld	s0,8(sp)
  25              		.cfi_remember_state
  26              		.cfi_restore 8
  27              		.cfi_def_cfa 2, 16
  28 0018 13010101 		addi	sp,sp,16
  29              		.cfi_def_cfa_offset 0
  30 001c 67800000 		jr	ra
  31              	.L4:
  32              		.cfi_restore_state
  33              		.loc 1 158 1 discriminator 1
  34 0020 B7070100 		li	a5,65536
  35 0024 9387F7FF 		addi	a5,a5,-1
  36 0028 E396F5FE 		bne	a1,a5,.L1
  37              	.LVL1:
  38              	.LBB96:
  39              	.LBB97:
  40              	.LBB98:
  41              		.file 2 "src/../h/../h/sleepingThreadsList.h"
   1:src/../h/../h/sleepingThreadsList.h **** //
   2:src/../h/../h/sleepingThreadsList.h **** // Created by os on 9/6/22.
   3:src/../h/../h/sleepingThreadsList.h **** //
   4:src/../h/../h/sleepingThreadsList.h **** 
   5:src/../h/../h/sleepingThreadsList.h **** #ifndef PROJECT_BASE_V1_1_SLEEPINGTHREADSLIST_H
   6:src/../h/../h/sleepingThreadsList.h **** #define PROJECT_BASE_V1_1_SLEEPINGTHREADSLIST_H
   7:src/../h/../h/sleepingThreadsList.h **** 
   8:src/../h/../h/sleepingThreadsList.h **** #include "syscall_c.h"
   9:src/../h/../h/sleepingThreadsList.h **** #include "scheduler.hpp"
  10:src/../h/../h/sleepingThreadsList.h **** 
  11:src/../h/../h/sleepingThreadsList.h **** class SleepingThreadList
  12:src/../h/../h/sleepingThreadsList.h **** {
  13:src/../h/../h/sleepingThreadsList.h **** private:
  14:src/../h/../h/sleepingThreadsList.h ****     struct Elem
  15:src/../h/../h/sleepingThreadsList.h ****     {
  16:src/../h/../h/sleepingThreadsList.h ****         TCB *data;
  17:src/../h/../h/sleepingThreadsList.h ****         Elem *next;
  18:src/../h/../h/sleepingThreadsList.h ****         time_t relativeTime;
  19:src/../h/../h/sleepingThreadsList.h **** 
  20:src/../h/../h/sleepingThreadsList.h ****         Elem(TCB *data, Elem *next, time_t relativeTime) : data(data), next(next), relativeTime(rel
  21:src/../h/../h/sleepingThreadsList.h ****     };
  22:src/../h/../h/sleepingThreadsList.h **** 
  23:src/../h/../h/sleepingThreadsList.h ****     Elem *head, *tail;
  24:src/../h/../h/sleepingThreadsList.h **** 
  25:src/../h/../h/sleepingThreadsList.h **** public:
  26:src/../h/../h/sleepingThreadsList.h ****     SleepingThreadList() : head(nullptr), tail(nullptr) {}
  42              		.loc 2 26 55
  43 002c 97070000 		lla	a5,.LANCHOR0
  43      93870700 
  44 0034 23B00700 		sd	zero,0(a5)
GAS LISTING /tmp/ccRzSJoQ.s 			page 5


  45 0038 23B40700 		sd	zero,8(a5)
  46              	.LVL2:
  47              	.LBE98:
  48              	.LBE97:
  49              	.LBE96:
  50              		.loc 1 158 1
  51 003c 6FF09FFD 		j	.L1
  52              		.cfi_endproc
  53              	.LFE48:
  55              		.align	2
  56              		.globl	_ZN5Riscv10popSppSpieEv
  58              	_ZN5Riscv10popSppSpieEv:
  59              	.LFB46:
  15:src/riscv.cpp **** {
  60              		.loc 1 15 1 is_stmt 1
  61              		.cfi_startproc
  62 0040 130101FF 		addi	sp,sp,-16
  63              		.cfi_def_cfa_offset 16
  64 0044 23348100 		sd	s0,8(sp)
  65              		.cfi_offset 8, -8
  66 0048 13040101 		addi	s0,sp,16
  67              		.cfi_def_cfa 8, 0
  16:src/riscv.cpp ****     __asm__ volatile("csrw sepc, ra");
  68              		.loc 1 16 5
  16:src/riscv.cpp ****     __asm__ volatile("csrw sepc, ra");
  69              		.loc 1 16 38 is_stmt 0
  70              	#APP
  71              	# 16 "src/riscv.cpp" 1
  17:src/riscv.cpp ****     __asm__ volatile("sret");
  72              		csrw sepc, ra
  73              	# 0 "" 2
  74              		.loc 1 17 5 is_stmt 1
  17:src/riscv.cpp ****     __asm__ volatile("sret");
  75              		.loc 1 17 29 is_stmt 0
  76              	# 17 "src/riscv.cpp" 1
  18:src/riscv.cpp **** }
  77              		sret
  78              	# 0 "" 2
  79              		.loc 1 18 1
  80              	#NO_APP
  81 0054 03348100 		ld	s0,8(sp)
  82              		.cfi_restore 8
  83              		.cfi_def_cfa 2, 16
  84 0058 13010101 		addi	sp,sp,16
  85              		.cfi_def_cfa_offset 0
  86 005c 67800000 		jr	ra
  87              		.cfi_endproc
  88              	.LFE46:
  90              		.section	.rodata.str1.8,"aMS",@progbits,1
  91              		.align	3
  92              	.LC0:
  93 0000 5573616F 		.string	"Usao ovde"
  93      206F7664 
  93      6500
  94 000a 00000000 		.align	3
  94      0000
  95              	.LC1:
GAS LISTING /tmp/ccRzSJoQ.s 			page 6


  96 0010 0A536C69 		.string	"\nSlice = "
  96      6365203D 
  96      2000
  97 001a 00000000 		.align	3
  97      0000
  98              	.LC2:
  99 0020 0A00     		.string	"\n"
 100              		.text
 101              		.align	2
 102              		.globl	_ZN5Riscv20handleSupervisorTrapEv
 104              	_ZN5Riscv20handleSupervisorTrapEv:
 105              	.LFB47:
  21:src/riscv.cpp **** {
 106              		.loc 1 21 1 is_stmt 1
 107              		.cfi_startproc
 108 0060 130101F6 		addi	sp,sp,-160
 109              		.cfi_def_cfa_offset 160
 110 0064 233C1108 		sd	ra,152(sp)
 111 0068 23388108 		sd	s0,144(sp)
 112 006c 23349108 		sd	s1,136(sp)
 113 0070 23302109 		sd	s2,128(sp)
 114 0074 233C3107 		sd	s3,120(sp)
 115 0078 23384107 		sd	s4,112(sp)
 116              		.cfi_offset 1, -8
 117              		.cfi_offset 8, -16
 118              		.cfi_offset 9, -24
 119              		.cfi_offset 18, -32
 120              		.cfi_offset 19, -40
 121              		.cfi_offset 20, -48
 122 007c 1304010A 		addi	s0,sp,160
 123              		.cfi_def_cfa 8, 0
  23:src/riscv.cpp ****     uint64 scause = r_scause();
 124              		.loc 1 23 5
 125              	.LBB192:
 126              	.LBB193:
 127              		.file 3 "src/../h/riscv.hpp"
   1:src/../h/riscv.hpp **** //
   2:src/../h/riscv.hpp **** // Created by marko on 20.4.22..
   3:src/../h/riscv.hpp **** //
   4:src/../h/riscv.hpp **** 
   5:src/../h/riscv.hpp **** #ifndef OS1_VEZBE07_RISCV_CONTEXT_SWITCH_2_INTERRUPT_RISCV_HPP
   6:src/../h/riscv.hpp **** #define OS1_VEZBE07_RISCV_CONTEXT_SWITCH_2_INTERRUPT_RISCV_HPP
   7:src/../h/riscv.hpp **** 
   8:src/../h/riscv.hpp **** #include "../lib/hw.h"
   9:src/../h/riscv.hpp **** #include "tcb.hpp"
  10:src/../h/riscv.hpp **** #include "../h/sleepingThreadsList.h"
  11:src/../h/riscv.hpp **** 
  12:src/../h/riscv.hpp **** class Riscv
  13:src/../h/riscv.hpp **** {
  14:src/../h/riscv.hpp **** public:
  15:src/../h/riscv.hpp **** 
  16:src/../h/riscv.hpp ****     // pop sstatus.spp and sstatus.spie bits (has to be a non inline function)
  17:src/../h/riscv.hpp ****     static void popSppSpie();
  18:src/../h/riscv.hpp **** 
  19:src/../h/riscv.hpp ****     // read register scause
  20:src/../h/riscv.hpp ****     static uint64 r_scause();
  21:src/../h/riscv.hpp **** 
GAS LISTING /tmp/ccRzSJoQ.s 			page 7


  22:src/../h/riscv.hpp ****     // write register scause
  23:src/../h/riscv.hpp ****     static void w_scause(uint64 scause);
  24:src/../h/riscv.hpp **** 
  25:src/../h/riscv.hpp ****     // read register sepc
  26:src/../h/riscv.hpp ****     static uint64 r_sepc();
  27:src/../h/riscv.hpp **** 
  28:src/../h/riscv.hpp ****     // write register sepc
  29:src/../h/riscv.hpp ****     static void w_sepc(uint64 sepc);
  30:src/../h/riscv.hpp **** 
  31:src/../h/riscv.hpp ****     // read register stvec
  32:src/../h/riscv.hpp ****     static uint64 r_stvec();
  33:src/../h/riscv.hpp **** 
  34:src/../h/riscv.hpp ****     // write register stvec
  35:src/../h/riscv.hpp ****     static void w_stvec(uint64 stvec);
  36:src/../h/riscv.hpp **** 
  37:src/../h/riscv.hpp ****     // read register stval
  38:src/../h/riscv.hpp ****     static uint64 r_stval();
  39:src/../h/riscv.hpp **** 
  40:src/../h/riscv.hpp ****     // write register stval
  41:src/../h/riscv.hpp ****     static void w_stval(uint64 stval);
  42:src/../h/riscv.hpp **** 
  43:src/../h/riscv.hpp ****     enum BitMaskSip
  44:src/../h/riscv.hpp ****     {
  45:src/../h/riscv.hpp ****         SIP_SSIP = (1 << 1),
  46:src/../h/riscv.hpp ****         SIP_STIP = (1 << 5),
  47:src/../h/riscv.hpp ****         SIP_SEIP = (1 << 9),
  48:src/../h/riscv.hpp ****     };
  49:src/../h/riscv.hpp **** 
  50:src/../h/riscv.hpp ****     // mask set register sip
  51:src/../h/riscv.hpp ****     static void ms_sip(uint64 mask);
  52:src/../h/riscv.hpp **** 
  53:src/../h/riscv.hpp ****     // mask clear register sip
  54:src/../h/riscv.hpp ****     static void mc_sip(uint64 mask);
  55:src/../h/riscv.hpp **** 
  56:src/../h/riscv.hpp ****     // read register sip
  57:src/../h/riscv.hpp ****     static uint64 r_sip();
  58:src/../h/riscv.hpp **** 
  59:src/../h/riscv.hpp ****     // write register sip
  60:src/../h/riscv.hpp ****     static void w_sip(uint64 sip);
  61:src/../h/riscv.hpp **** 
  62:src/../h/riscv.hpp ****     enum BitMaskSstatus
  63:src/../h/riscv.hpp ****     {
  64:src/../h/riscv.hpp ****         SSTATUS_SIE = (1 << 1),
  65:src/../h/riscv.hpp ****         SSTATUS_SPIE = (1 << 5),
  66:src/../h/riscv.hpp ****         SSTATUS_SPP = (1 << 8),
  67:src/../h/riscv.hpp ****     };
  68:src/../h/riscv.hpp **** 
  69:src/../h/riscv.hpp ****     // mask set register sstatus
  70:src/../h/riscv.hpp ****     static void ms_sstatus(uint64 mask);
  71:src/../h/riscv.hpp **** 
  72:src/../h/riscv.hpp ****     // mask clear register sstatus
  73:src/../h/riscv.hpp ****     static void mc_sstatus(uint64 mask);
  74:src/../h/riscv.hpp **** 
  75:src/../h/riscv.hpp ****     // read register sstatus
  76:src/../h/riscv.hpp ****     static uint64 r_sstatus();
  77:src/../h/riscv.hpp **** 
  78:src/../h/riscv.hpp ****     // write register sstatus
GAS LISTING /tmp/ccRzSJoQ.s 			page 8


  79:src/../h/riscv.hpp ****     static void w_sstatus(uint64 sstatus);
  80:src/../h/riscv.hpp **** 
  81:src/../h/riscv.hpp ****     // supervisor trap
  82:src/../h/riscv.hpp ****     static void supervisorTrap();
  83:src/../h/riscv.hpp **** 
  84:src/../h/riscv.hpp **** private:
  85:src/../h/riscv.hpp **** 
  86:src/../h/riscv.hpp ****     // supervisor trap handler
  87:src/../h/riscv.hpp ****     static void handleSupervisorTrap();
  88:src/../h/riscv.hpp **** 
  89:src/../h/riscv.hpp ****     static SleepingThreadList sleepingThreads;
  90:src/../h/riscv.hpp **** 
  91:src/../h/riscv.hpp **** };
  92:src/../h/riscv.hpp **** 
  93:src/../h/riscv.hpp **** inline uint64 Riscv::r_scause()
  94:src/../h/riscv.hpp **** {
  95:src/../h/riscv.hpp ****     uint64 volatile scause;
 128              		.loc 3 95 5
  96:src/../h/riscv.hpp ****     __asm__ volatile ("csrr %[scause], scause" : [scause] "=r"(scause));
 129              		.loc 3 96 5
 130              		.loc 3 96 72 is_stmt 0
 131              	#APP
 132              	# 96 "src/../h/riscv.hpp" 1
  97              	    return scause;
 133              		csrr a5, scause
 134              	# 0 "" 2
 135              	#NO_APP
 136 0084 233CF4F8 		sd	a5,-104(s0)
 137              		.loc 3 97 5 is_stmt 1
 138              		.loc 3 97 12 is_stmt 0
 139 0088 033784F9 		ld	a4,-104(s0)
 140              	.LVL3:
 141              	.LBE193:
 142              	.LBE192:
  24:src/riscv.cpp ****     if (scause == 0x0000000000000008UL || scause == 0x0000000000000009UL)
 143              		.loc 1 24 5 is_stmt 1
 144              	.LBB194:
  24:src/riscv.cpp ****     if (scause == 0x0000000000000008UL || scause == 0x0000000000000009UL)
 145              		.loc 1 24 40 is_stmt 0
 146 008c 930687FF 		addi	a3,a4,-8
  24:src/riscv.cpp ****     if (scause == 0x0000000000000008UL || scause == 0x0000000000000009UL)
 147              		.loc 1 24 5
 148 0090 93071000 		li	a5,1
 149 0094 63F8D702 		bleu	a3,a5,.L31
 150              	.LBE194:
 122:src/riscv.cpp ****     else if (scause == 0x8000000000000001UL)
 151              		.loc 1 122 10 is_stmt 1
 152              	.LBB392:
 153              	.LBB195:
 154 0098 9307F0FF 		li	a5,-1
 155 009c 9397F703 		slli	a5,a5,63
 156 00a0 93871700 		addi	a5,a5,1
 157 00a4 6300F734 		beq	a4,a5,.L32
 149:src/riscv.cpp ****     else if (scause == 0x8000000000000009UL)
 158              		.loc 1 149 10
 159 00a8 9307F0FF 		li	a5,-1
 160 00ac 9397F703 		slli	a5,a5,63
GAS LISTING /tmp/ccRzSJoQ.s 			page 9


 161 00b0 93879700 		addi	a5,a5,9
 162 00b4 6310F712 		bne	a4,a5,.L7
 152:src/riscv.cpp ****         console_handler();
 163              		.loc 1 152 9
 152:src/riscv.cpp ****         console_handler();
 164              		.loc 1 152 24 is_stmt 0
 165 00b8 97000000 		call	console_handler@plt
 165      E7800000 
 166              	.LVL4:
 167              	.LBE195:
 168              	.LBE392:
 169              		.loc 1 158 1
 170 00c0 6F004011 		j	.L7
 171              	.LVL5:
 172              	.L31:
 173              	.LBB393:
 174              	.LBB222:
  27:src/riscv.cpp ****         uint64 volatile sepc = r_sepc() + 4;
 175              		.loc 1 27 9 is_stmt 1
 176              	.LBB223:
 177              	.LBB224:
  98:src/../h/riscv.hpp **** }
  99:src/../h/riscv.hpp **** 
 100:src/../h/riscv.hpp **** inline void Riscv::w_scause(uint64 scause)
 101:src/../h/riscv.hpp **** {
 102:src/../h/riscv.hpp ****     __asm__ volatile ("csrw scause, %[scause]" : : [scause] "r"(scause));
 103:src/../h/riscv.hpp **** }
 104:src/../h/riscv.hpp **** 
 105:src/../h/riscv.hpp **** inline uint64 Riscv::r_sepc()
 106:src/../h/riscv.hpp **** {
 107:src/../h/riscv.hpp ****     uint64 volatile sepc;
 178              		.loc 3 107 5
 108:src/../h/riscv.hpp ****     __asm__ volatile ("csrr %[sepc], sepc" : [sepc] "=r"(sepc));
 179              		.loc 3 108 5
 180              		.loc 3 108 64 is_stmt 0
 181              	#APP
 182              	# 108 "src/../h/riscv.hpp" 1
 109              	    return sepc;
 183              		csrr a5, sepc
 184              	# 0 "" 2
 185              	#NO_APP
 186 00c8 2334F4FA 		sd	a5,-88(s0)
 187              		.loc 3 109 5 is_stmt 1
 188              		.loc 3 109 12 is_stmt 0
 189 00cc 833784FA 		ld	a5,-88(s0)
 190              	.LBE224:
 191              	.LBE223:
  27:src/riscv.cpp ****         uint64 volatile sepc = r_sepc() + 4;
 192              		.loc 1 27 41
 193 00d0 93874700 		addi	a5,a5,4
  27:src/riscv.cpp ****         uint64 volatile sepc = r_sepc() + 4;
 194              		.loc 1 27 43
 195 00d4 2334F4F6 		sd	a5,-152(s0)
  28:src/riscv.cpp ****         uint64 volatile sstatus = r_sstatus();
 196              		.loc 1 28 9 is_stmt 1
 197              	.LBB225:
 198              	.LBB226:
GAS LISTING /tmp/ccRzSJoQ.s 			page 10


 110:src/../h/riscv.hpp **** }
 111:src/../h/riscv.hpp **** 
 112:src/../h/riscv.hpp **** inline void Riscv::w_sepc(uint64 sepc)
 113:src/../h/riscv.hpp **** {
 114:src/../h/riscv.hpp ****     __asm__ volatile ("csrw sepc, %[sepc]" : : [sepc] "r"(sepc));
 115:src/../h/riscv.hpp **** }
 116:src/../h/riscv.hpp **** 
 117:src/../h/riscv.hpp **** inline uint64 Riscv::r_stvec()
 118:src/../h/riscv.hpp **** {
 119:src/../h/riscv.hpp ****     uint64 volatile stvec;
 120:src/../h/riscv.hpp ****     __asm__ volatile ("csrr %[stvec], stvec" : [stvec] "=r"(stvec));
 121:src/../h/riscv.hpp ****     return stvec;
 122:src/../h/riscv.hpp **** }
 123:src/../h/riscv.hpp **** 
 124:src/../h/riscv.hpp **** inline void Riscv::w_stvec(uint64 stvec)
 125:src/../h/riscv.hpp **** {
 126:src/../h/riscv.hpp ****     __asm__ volatile ("csrw stvec, %[stvec]" : : [stvec] "r"(stvec));
 127:src/../h/riscv.hpp **** }
 128:src/../h/riscv.hpp **** 
 129:src/../h/riscv.hpp **** inline uint64 Riscv::r_stval()
 130:src/../h/riscv.hpp **** {
 131:src/../h/riscv.hpp ****     uint64 volatile stval;
 132:src/../h/riscv.hpp ****     __asm__ volatile ("csrr %[stval], stval" : [stval] "=r"(stval));
 133:src/../h/riscv.hpp ****     return stval;
 134:src/../h/riscv.hpp **** }
 135:src/../h/riscv.hpp **** 
 136:src/../h/riscv.hpp **** inline void Riscv::w_stval(uint64 stval)
 137:src/../h/riscv.hpp **** {
 138:src/../h/riscv.hpp ****     __asm__ volatile ("csrw stval, %[stval]" : : [stval] "r"(stval));
 139:src/../h/riscv.hpp **** }
 140:src/../h/riscv.hpp **** 
 141:src/../h/riscv.hpp **** inline void Riscv::ms_sip(uint64 mask)
 142:src/../h/riscv.hpp **** {
 143:src/../h/riscv.hpp ****     __asm__ volatile ("csrs sip, %[mask]" : : [mask] "r"(mask));
 144:src/../h/riscv.hpp **** }
 145:src/../h/riscv.hpp **** 
 146:src/../h/riscv.hpp **** inline void Riscv::mc_sip(uint64 mask)
 147:src/../h/riscv.hpp **** {
 148:src/../h/riscv.hpp ****     __asm__ volatile ("csrc sip, %[mask]" : : [mask] "r"(mask));
 149:src/../h/riscv.hpp **** }
 150:src/../h/riscv.hpp **** 
 151:src/../h/riscv.hpp **** inline uint64 Riscv::r_sip()
 152:src/../h/riscv.hpp **** {
 153:src/../h/riscv.hpp ****     uint64 volatile sip;
 154:src/../h/riscv.hpp ****     __asm__ volatile ("csrr %[sip], sip" : [sip] "=r"(sip));
 155:src/../h/riscv.hpp ****     return sip;
 156:src/../h/riscv.hpp **** }
 157:src/../h/riscv.hpp **** 
 158:src/../h/riscv.hpp **** inline void Riscv::w_sip(uint64 sip)
 159:src/../h/riscv.hpp **** {
 160:src/../h/riscv.hpp ****     __asm__ volatile ("csrw sip, %[sip]" : : [sip] "r"(sip));
 161:src/../h/riscv.hpp **** }
 162:src/../h/riscv.hpp **** 
 163:src/../h/riscv.hpp **** inline void Riscv::ms_sstatus(uint64 mask)
 164:src/../h/riscv.hpp **** {
 165:src/../h/riscv.hpp ****     __asm__ volatile ("csrs sstatus, %[mask]" : : [mask] "r"(mask));
 166:src/../h/riscv.hpp **** }
GAS LISTING /tmp/ccRzSJoQ.s 			page 11


 167:src/../h/riscv.hpp **** 
 168:src/../h/riscv.hpp **** inline void Riscv::mc_sstatus(uint64 mask)
 169:src/../h/riscv.hpp **** {
 170:src/../h/riscv.hpp ****     __asm__ volatile ("csrc sstatus, %[mask]" : : [mask] "r"(mask));
 171:src/../h/riscv.hpp **** }
 172:src/../h/riscv.hpp **** 
 173:src/../h/riscv.hpp **** inline uint64 Riscv::r_sstatus()
 174:src/../h/riscv.hpp **** {
 175:src/../h/riscv.hpp ****     uint64 volatile sstatus;
 199              		.loc 3 175 5
 176:src/../h/riscv.hpp ****     __asm__ volatile ("csrr %[sstatus], sstatus" : [sstatus] "=r"(sstatus));
 200              		.loc 3 176 5
 201              		.loc 3 176 76 is_stmt 0
 202              	#APP
 203              	# 176 "src/../h/riscv.hpp" 1
 177              	    return sstatus;
 204              		csrr a5, sstatus
 205              	# 0 "" 2
 206              	#NO_APP
 207 00dc 2330F4FA 		sd	a5,-96(s0)
 208              		.loc 3 177 5 is_stmt 1
 209              		.loc 3 177 12 is_stmt 0
 210 00e0 833704FA 		ld	a5,-96(s0)
 211              	.LBE226:
 212              	.LBE225:
  28:src/riscv.cpp ****         uint64 volatile sstatus = r_sstatus();
 213              		.loc 1 28 45
 214 00e4 2338F4F6 		sd	a5,-144(s0)
  30:src/riscv.cpp ****         uint64 code;
 215              		.loc 1 30 9 is_stmt 1
  31:src/riscv.cpp ****         __asm__ volatile("ld t1, 8*10(fp)");
 216              		.loc 1 31 9
  31:src/riscv.cpp ****         __asm__ volatile("ld t1, 8*10(fp)");
 217              		.loc 1 31 44 is_stmt 0
 218              	#APP
 219              	# 31 "src/riscv.cpp" 1
  32:src/riscv.cpp ****         __asm__ volatile("mv %0, t1" : "=r" (code));
 220              		ld t1, 8*10(fp)
 221              	# 0 "" 2
 222              		.loc 1 32 9 is_stmt 1
  32:src/riscv.cpp ****         __asm__ volatile("mv %0, t1" : "=r" (code));
 223              		.loc 1 32 52 is_stmt 0
 224              	# 32 "src/riscv.cpp" 1
 225              		mv a5, t1
 226              	# 0 "" 2
 227              	.LVL6:
  34:src/riscv.cpp ****         if (code == MemAlloc) {
 228              		.loc 1 34 9 is_stmt 1
 229              	#NO_APP
 230              	.LBB227:
 231 00f0 13071000 		li	a4,1
 232              	.LVL7:
 233 00f4 6388E70C 		beq	a5,a4,.L9
 234              	.LBE227:
 235              	.LBE222:
 236              	.LBE393:
  37:src/riscv.cpp ****         else if (code == MemFree) {
GAS LISTING /tmp/ccRzSJoQ.s 			page 12


 237              		.loc 1 37 14
 238              	.LBB394:
 239              	.LBB377:
 240              	.LBB360:
 241              	.LBB228:
 242 00f8 13072000 		li	a4,2
 243 00fc 6384E70C 		beq	a5,a4,.L9
 244              	.LBE228:
 245              	.LBE360:
 246              	.LBE377:
 247              	.LBE394:
  40:src/riscv.cpp ****         else if (code == ThreadCreate){
 248              		.loc 1 40 14
 249              	.LBB395:
 250              	.LBB378:
 251              	.LBB361:
 252              	.LBB348:
 253              	.LBB229:
 254 0100 1307B000 		li	a4,11
 255 0104 638CE708 		beq	a5,a4,.L33
 256              	.LBE229:
 257              	.LBE348:
 258              	.LBE361:
 259              	.LBE378:
 260              	.LBE395:
  61:src/riscv.cpp ****         else if (code == ThreadExit){
 261              		.loc 1 61 14
 262              	.LBB396:
 263              	.LBB379:
 264              	.LBB362:
 265              	.LBB349:
 266              	.LBB337:
 267              	.LBB230:
 268 0108 1307C000 		li	a4,12
 269 010c 6384E70E 		beq	a5,a4,.L34
 270              	.LBE230:
 271              	.LBE337:
 272              	.LBE349:
 273              	.LBE362:
 274              	.LBE379:
 275              	.LBE396:
  67:src/riscv.cpp ****         else if (code == ThreadDispatch){
 276              		.loc 1 67 14
 277              	.LBB397:
 278              	.LBB380:
 279              	.LBB363:
 280              	.LBB350:
 281              	.LBB338:
 282              	.LBB326:
 283              	.LBB231:
 284 0110 1307D000 		li	a4,13
 285 0114 6388E710 		beq	a5,a4,.L35
 286              	.LBE231:
 287              	.LBE326:
 288              	.LBE338:
 289              	.LBE350:
 290              	.LBE363:
GAS LISTING /tmp/ccRzSJoQ.s 			page 13


 291              	.LBE380:
 292              	.LBE397:
  73:src/riscv.cpp ****         else if (code == SemOpen){
 293              		.loc 1 73 14
 294              	.LBB398:
 295              	.LBB381:
 296              	.LBB364:
 297              	.LBB351:
 298              	.LBB339:
 299              	.LBB327:
 300              	.LBB311:
 301              	.LBB232:
 302 0118 13075001 		li	a4,21
 303 011c 6384E70A 		beq	a5,a4,.L9
 304              	.LBE232:
 305              	.LBE311:
 306              	.LBE327:
 307              	.LBE339:
 308              	.LBE351:
 309              	.LBE364:
 310              	.LBE381:
 311              	.LBE398:
  76:src/riscv.cpp ****         else if (code == SemClose){
 312              		.loc 1 76 14
 313              	.LBB399:
 314              	.LBB382:
 315              	.LBB365:
 316              	.LBB352:
 317              	.LBB340:
 318              	.LBB328:
 319              	.LBB312:
 320              	.LBB299:
 321              	.LBB233:
 322 0120 13076001 		li	a4,22
 323 0124 6380E70A 		beq	a5,a4,.L9
 324              	.LBE233:
 325              	.LBE299:
 326              	.LBE312:
 327              	.LBE328:
 328              	.LBE340:
 329              	.LBE352:
 330              	.LBE365:
 331              	.LBE382:
 332              	.LBE399:
  79:src/riscv.cpp ****         else if (code == SemWait){
 333              		.loc 1 79 14
 334              	.LBB400:
 335              	.LBB383:
 336              	.LBB366:
 337              	.LBB353:
 338              	.LBB341:
 339              	.LBB329:
 340              	.LBB313:
 341              	.LBB300:
 342              	.LBB292:
 343              	.LBB234:
 344 0128 13077001 		li	a4,23
GAS LISTING /tmp/ccRzSJoQ.s 			page 14


 345 012c 638CE708 		beq	a5,a4,.L9
 346              	.LBE234:
 347              	.LBE292:
 348              	.LBE300:
 349              	.LBE313:
 350              	.LBE329:
 351              	.LBE341:
 352              	.LBE353:
 353              	.LBE366:
 354              	.LBE383:
 355              	.LBE400:
  82:src/riscv.cpp ****         else if (code == SemSignal){
 356              		.loc 1 82 14
 357              	.LBB401:
 358              	.LBB384:
 359              	.LBB367:
 360              	.LBB354:
 361              	.LBB342:
 362              	.LBB330:
 363              	.LBB314:
 364              	.LBB301:
 365              	.LBB293:
 366              	.LBB286:
 367              	.LBB235:
 368 0130 13078001 		li	a4,24
 369 0134 6388E708 		beq	a5,a4,.L9
 370              	.LBE235:
 371              	.LBE286:
 372              	.LBE293:
 373              	.LBE301:
 374              	.LBE314:
 375              	.LBE330:
 376              	.LBE342:
 377              	.LBE354:
 378              	.LBE367:
 379              	.LBE384:
 380              	.LBE401:
  85:src/riscv.cpp ****         else if (code == TimeSleep){
 381              		.loc 1 85 14
 382              	.LBB402:
 383              	.LBB385:
 384              	.LBB368:
 385              	.LBB355:
 386              	.LBB343:
 387              	.LBB331:
 388              	.LBB315:
 389              	.LBB302:
 390              	.LBB294:
 391              	.LBB287:
 392              	.LBB281:
 393              	.LBB236:
 394 0138 1307F001 		li	a4,31
 395 013c 6388E710 		beq	a5,a4,.L36
 396              	.LBE236:
 397              	.LBE281:
 398              	.LBE287:
 399              	.LBE294:
GAS LISTING /tmp/ccRzSJoQ.s 			page 15


 400              	.LBE302:
 401              	.LBE315:
 402              	.LBE331:
 403              	.LBE343:
 404              	.LBE355:
 405              	.LBE368:
 406              	.LBE385:
 407              	.LBE402:
 104:src/riscv.cpp ****         else if (code == GetC){
 408              		.loc 1 104 14
 409              	.LBB403:
 410              	.LBB386:
 411              	.LBB369:
 412              	.LBB356:
 413              	.LBB344:
 414              	.LBB332:
 415              	.LBB316:
 416              	.LBB303:
 417              	.LBB295:
 418              	.LBB288:
 419              	.LBB282:
 420              	.LBB277:
 421              	.LBB237:
 422 0140 13079002 		li	a4,41
 423 0144 6380E708 		beq	a5,a4,.L9
 424              	.LBE237:
 425              	.LBE277:
 426              	.LBE282:
 427              	.LBE288:
 428              	.LBE295:
 429              	.LBE303:
 430              	.LBE316:
 431              	.LBE332:
 432              	.LBE344:
 433              	.LBE356:
 434              	.LBE369:
 435              	.LBE386:
 436              	.LBE403:
 107:src/riscv.cpp ****         else if (code == PutC){
 437              		.loc 1 107 14
 438              	.LBB404:
 439              	.LBB387:
 440              	.LBB370:
 441              	.LBB357:
 442              	.LBB345:
 443              	.LBB333:
 444              	.LBB317:
 445              	.LBB304:
 446              	.LBB296:
 447              	.LBB289:
 448              	.LBB283:
 449              	.LBB278:
 450              	.LBB248:
 451              	.LBB238:
 452 0148 1307A002 		li	a4,42
 453 014c 638CE706 		beq	a5,a4,.L9
 454              	.LBB239:
GAS LISTING /tmp/ccRzSJoQ.s 			page 16


 111:src/riscv.cpp ****             uint64 volatile sepc = r_sepc() + 4;
 455              		.loc 1 111 13
 456              	.LBB240:
 457              	.LBB241:
 107:src/../h/riscv.hpp ****     __asm__ volatile ("csrr %[sepc], sepc" : [sepc] "=r"(sepc));
 458              		.loc 3 107 5
 108:src/../h/riscv.hpp ****     return sepc;
 459              		.loc 3 108 5
 108:src/../h/riscv.hpp ****     return sepc;
 460              		.loc 3 108 64 is_stmt 0
 461              	#APP
 462              	# 108 "src/../h/riscv.hpp" 1
 463              		csrr a5, sepc
 464              	# 0 "" 2
 465              	.LVL8:
 466              	#NO_APP
 467 0154 233CF4FA 		sd	a5,-72(s0)
 109:src/../h/riscv.hpp **** }
 468              		.loc 3 109 5 is_stmt 1
 109:src/../h/riscv.hpp **** }
 469              		.loc 3 109 12 is_stmt 0
 470 0158 833784FB 		ld	a5,-72(s0)
 471              	.LBE241:
 472              	.LBE240:
 111:src/riscv.cpp ****             uint64 volatile sepc = r_sepc() + 4;
 473              		.loc 1 111 45
 474 015c 93874700 		addi	a5,a5,4
 111:src/riscv.cpp ****             uint64 volatile sepc = r_sepc() + 4;
 475              		.loc 1 111 47
 476 0160 233CF4F6 		sd	a5,-136(s0)
 112:src/riscv.cpp ****             uint64 volatile sstatus = r_sstatus();
 477              		.loc 1 112 13 is_stmt 1
 478              	.LBB242:
 479              	.LBB243:
 175:src/../h/riscv.hpp ****     __asm__ volatile ("csrr %[sstatus], sstatus" : [sstatus] "=r"(sstatus));
 480              		.loc 3 175 5
 176:src/../h/riscv.hpp ****     return sstatus;
 481              		.loc 3 176 5
 176:src/../h/riscv.hpp ****     return sstatus;
 482              		.loc 3 176 76 is_stmt 0
 483              	#APP
 484              	# 176 "src/../h/riscv.hpp" 1
 485              		csrr a5, sstatus
 486              	# 0 "" 2
 487              	#NO_APP
 488 0168 2338F4FA 		sd	a5,-80(s0)
 489              		.loc 3 177 5 is_stmt 1
 490              		.loc 3 177 12 is_stmt 0
 491 016c 833704FB 		ld	a5,-80(s0)
 492              	.LBE243:
 493              	.LBE242:
 112:src/riscv.cpp ****             uint64 volatile sstatus = r_sstatus();
 494              		.loc 1 112 49
 495 0170 2330F4F8 		sd	a5,-128(s0)
 113:src/riscv.cpp ****             TCB::timeSliceCounter = 0;
 496              		.loc 1 113 13 is_stmt 1
 113:src/riscv.cpp ****             TCB::timeSliceCounter = 0;
GAS LISTING /tmp/ccRzSJoQ.s 			page 17


 497              		.loc 1 113 35 is_stmt 0
 498 0174 97070000 		la	a5,_ZN3TCB16timeSliceCounterE
 498      83B70700 
 499 017c 23B00700 		sd	zero,0(a5)
 114:src/riscv.cpp ****             TCB::dispatch();
 500              		.loc 1 114 13 is_stmt 1
 114:src/riscv.cpp ****             TCB::dispatch();
 501              		.loc 1 114 26 is_stmt 0
 502 0180 97000000 		call	_ZN3TCB8dispatchEv@plt
 502      E7800000 
 503              	.LVL9:
 115:src/riscv.cpp ****             w_sstatus(sstatus);
 504              		.loc 1 115 13 is_stmt 1
 115:src/riscv.cpp ****             w_sstatus(sstatus);
 505              		.loc 1 115 22 is_stmt 0
 506 0188 833704F8 		ld	a5,-128(s0)
 507              	.LVL10:
 508              	.LBB244:
 509              	.LBB245:
 178:src/../h/riscv.hpp **** }
 179:src/../h/riscv.hpp **** 
 180:src/../h/riscv.hpp **** inline void Riscv::w_sstatus(uint64 sstatus)
 181:src/../h/riscv.hpp **** {
 182:src/../h/riscv.hpp ****     __asm__ volatile ("csrw sstatus, %[sstatus]" : : [sstatus] "r"(sstatus));
 510              		.loc 3 182 5 is_stmt 1
 511              		.loc 3 182 77 is_stmt 0
 512              	#APP
 513              	# 182 "src/../h/riscv.hpp" 1
 183              	}
 514              		csrw sstatus, a5
 515              	# 0 "" 2
 516              	.LVL11:
 517              	#NO_APP
 518              	.LBE245:
 519              	.LBE244:
 116:src/riscv.cpp ****             w_sepc(sepc);
 520              		.loc 1 116 13 is_stmt 1
 116:src/riscv.cpp ****             w_sepc(sepc);
 521              		.loc 1 116 19 is_stmt 0
 522 0190 833784F7 		ld	a5,-136(s0)
 523              	.LVL12:
 524              	.LBB246:
 525              	.LBB247:
 114:src/../h/riscv.hpp **** }
 526              		.loc 3 114 5 is_stmt 1
 114:src/../h/riscv.hpp **** }
 527              		.loc 3 114 65 is_stmt 0
 528              	#APP
 529              	# 114 "src/../h/riscv.hpp" 1
 115:src/../h/riscv.hpp **** 
 530              		csrw sepc, a5
 531              	# 0 "" 2
 532              		.loc 3 115 1
 533              	#NO_APP
 534 0198 6F00C002 		j	.L9
 535              	.LVL13:
 536              	.L33:
GAS LISTING /tmp/ccRzSJoQ.s 			page 18


 537              	.LBE247:
 538              	.LBE246:
 539              	.LBE239:
 540              	.LBE238:
 541              	.LBE248:
 542              	.LBE278:
 543              	.LBE283:
 544              	.LBE289:
 545              	.LBE296:
 546              	.LBE304:
 547              	.LBE317:
 548              	.LBE333:
 549              	.LBB334:
  41:src/riscv.cpp ****             TCB::Body start_routine;
 550              		.loc 1 41 13 is_stmt 1
  42:src/riscv.cpp ****             void* args = nullptr;
 551              		.loc 1 42 13
  43:src/riscv.cpp ****             uint64 *stack;
 552              		.loc 1 43 13
  44:src/riscv.cpp ****             thread_t* handle;
 553              		.loc 1 44 13
  46:src/riscv.cpp ****             __asm__ volatile("ld t2, 8*11(fp)");
 554              		.loc 1 46 13
  46:src/riscv.cpp ****             __asm__ volatile("ld t2, 8*11(fp)");
 555              		.loc 1 46 48 is_stmt 0
 556              	#APP
 557              	# 46 "src/riscv.cpp" 1
  47:src/riscv.cpp ****             __asm__ volatile("mv %0, t2" : "=r" (handle));
 558              		ld t2, 8*11(fp)
 559              	# 0 "" 2
 560              		.loc 1 47 13 is_stmt 1
  47:src/riscv.cpp ****             __asm__ volatile("mv %0, t2" : "=r" (handle));
 561              		.loc 1 47 58 is_stmt 0
 562              	# 47 "src/riscv.cpp" 1
 563              		mv a0, t2
 564              	# 0 "" 2
 565              	.LVL14:
  49:src/riscv.cpp ****             __asm__ volatile("ld t1, 8*12(fp)");
 566              		.loc 1 49 13 is_stmt 1
  49:src/riscv.cpp ****             __asm__ volatile("ld t1, 8*12(fp)");
 567              		.loc 1 49 48 is_stmt 0
 568              	# 49 "src/riscv.cpp" 1
  50:src/riscv.cpp ****             __asm__ volatile("mv %0, t1" : "=r" (start_routine));
 569              		ld t1, 8*12(fp)
 570              	# 0 "" 2
 571              		.loc 1 50 13 is_stmt 1
  50:src/riscv.cpp ****             __asm__ volatile("mv %0, t1" : "=r" (start_routine));
 572              		.loc 1 50 65 is_stmt 0
 573              	# 50 "src/riscv.cpp" 1
 574              		mv a1, t1
 575              	# 0 "" 2
 576              	.LVL15:
  52:src/riscv.cpp ****             __asm__ volatile("ld t1, 8*13(fp)");
 577              		.loc 1 52 13 is_stmt 1
  52:src/riscv.cpp ****             __asm__ volatile("ld t1, 8*13(fp)");
 578              		.loc 1 52 48 is_stmt 0
 579              	# 52 "src/riscv.cpp" 1
GAS LISTING /tmp/ccRzSJoQ.s 			page 19


  53:src/riscv.cpp ****             __asm__ volatile("mv %0, t1" : "=r" (args));
 580              		ld t1, 8*13(fp)
 581              	# 0 "" 2
 582              		.loc 1 53 13 is_stmt 1
  53:src/riscv.cpp ****             __asm__ volatile("mv %0, t1" : "=r" (args));
 583              		.loc 1 53 56 is_stmt 0
 584              	# 53 "src/riscv.cpp" 1
 585              		mv a2, t1
 586              	# 0 "" 2
 587              	.LVL16:
  55:src/riscv.cpp ****             __asm__ volatile("ld t1, 8*14(fp)");
 588              		.loc 1 55 13 is_stmt 1
  55:src/riscv.cpp ****             __asm__ volatile("ld t1, 8*14(fp)");
 589              		.loc 1 55 48 is_stmt 0
 590              	# 55 "src/riscv.cpp" 1
  56:src/riscv.cpp ****             __asm__ volatile("mv %0, t1" : "=r" (stack));
 591              		ld t1, 8*14(fp)
 592              	# 0 "" 2
 593              		.loc 1 56 13 is_stmt 1
  56:src/riscv.cpp ****             __asm__ volatile("mv %0, t1" : "=r" (stack));
 594              		.loc 1 56 57 is_stmt 0
 595              	# 56 "src/riscv.cpp" 1
 596              		mv a3, t1
 597              	# 0 "" 2
 598              	.LVL17:
  58:src/riscv.cpp ****             TCB::createThread(handle, start_routine, args, stack);
 599              		.loc 1 58 13 is_stmt 1
  58:src/riscv.cpp ****             TCB::createThread(handle, start_routine, args, stack);
 600              		.loc 1 58 30 is_stmt 0
 601              	#NO_APP
 602 01bc 97000000 		call	_ZN3TCB12createThreadEPPS_PFvvEPvPm@plt
 602      E7800000 
 603              	.LVL18:
 604              	.L9:
 605              	.LBE334:
 606              	.LBE345:
 607              	.LBE357:
 608              	.LBE370:
 119:src/riscv.cpp ****         w_sstatus(sstatus);
 609              		.loc 1 119 9 is_stmt 1
 119:src/riscv.cpp ****         w_sstatus(sstatus);
 610              		.loc 1 119 18 is_stmt 0
 611 01c4 833704F7 		ld	a5,-144(s0)
 612              	.LVL19:
 613              	.LBB371:
 614              	.LBB372:
 182:src/../h/riscv.hpp **** }
 615              		.loc 3 182 5 is_stmt 1
 182:src/../h/riscv.hpp **** }
 616              		.loc 3 182 77 is_stmt 0
 617              	#APP
 618              	# 182 "src/../h/riscv.hpp" 1
 619              		csrw sstatus, a5
 620              	# 0 "" 2
 621              	.LVL20:
 622              	#NO_APP
 623              	.LBE372:
GAS LISTING /tmp/ccRzSJoQ.s 			page 20


 624              	.LBE371:
 120:src/riscv.cpp ****         w_sepc(sepc);
 625              		.loc 1 120 9 is_stmt 1
 120:src/riscv.cpp ****         w_sepc(sepc);
 626              		.loc 1 120 15 is_stmt 0
 627 01cc 833784F6 		ld	a5,-152(s0)
 628              	.LVL21:
 629              	.LBB373:
 630              	.LBB374:
 114:src/../h/riscv.hpp **** }
 631              		.loc 3 114 5 is_stmt 1
 114:src/../h/riscv.hpp **** }
 632              		.loc 3 114 65 is_stmt 0
 633              	#APP
 634              	# 114 "src/../h/riscv.hpp" 1
 635              		csrw sepc, a5
 636              	# 0 "" 2
 637              	.LVL22:
 638              	#NO_APP
 639              	.L7:
 640              	.LBE374:
 641              	.LBE373:
 642              	.LBE387:
 643              	.LBE404:
 644              		.loc 1 158 1
 645 01d4 83308109 		ld	ra,152(sp)
 646              		.cfi_remember_state
 647              		.cfi_restore 1
 648 01d8 03340109 		ld	s0,144(sp)
 649              		.cfi_restore 8
 650              		.cfi_def_cfa 2, 160
 651 01dc 83348108 		ld	s1,136(sp)
 652              		.cfi_restore 9
 653 01e0 03390108 		ld	s2,128(sp)
 654              		.cfi_restore 18
 655 01e4 83398107 		ld	s3,120(sp)
 656              		.cfi_restore 19
 657 01e8 033A0107 		ld	s4,112(sp)
 658              		.cfi_restore 20
 659 01ec 1301010A 		addi	sp,sp,160
 660              		.cfi_def_cfa_offset 0
 661 01f0 67800000 		jr	ra
 662              	.LVL23:
 663              	.L34:
 664              		.cfi_restore_state
 665              	.LBB405:
 666              	.LBB388:
 667              	.LBB375:
 668              	.LBB358:
 669              	.LBB346:
 670              	.LBB335:
  62:src/riscv.cpp ****             TCB::running->setFinished(true);
 671              		.loc 1 62 13 is_stmt 1
  62:src/riscv.cpp ****             TCB::running->setFinished(true);
 672              		.loc 1 62 38 is_stmt 0
 673 01f4 97070000 		la	a5,_ZN3TCB7runningE
 673      83B70700 
GAS LISTING /tmp/ccRzSJoQ.s 			page 21


 674              	.LVL24:
 675 01fc 83B70700 		ld	a5,0(a5)
 676              	.LVL25:
 677              	.LBB318:
 678              	.LBB319:
 679              		.file 4 "src/../h/tcb.hpp"
   1:src/../h/tcb.hpp **** //
   2:src/../h/tcb.hpp **** // Created by marko on 20.4.22..
   3:src/../h/tcb.hpp **** //
   4:src/../h/tcb.hpp **** 
   5:src/../h/tcb.hpp **** #ifndef OS1_VEZBE07_RISCV_CONTEXT_SWITCH_2_INTERRUPT_TCB_HPP
   6:src/../h/tcb.hpp **** #define OS1_VEZBE07_RISCV_CONTEXT_SWITCH_2_INTERRUPT_TCB_HPP
   7:src/../h/tcb.hpp **** 
   8:src/../h/tcb.hpp **** #include "../lib/hw.h"
   9:src/../h/tcb.hpp **** #include "scheduler.hpp"
  10:src/../h/tcb.hpp **** #include "../h/print.hpp"
  11:src/../h/tcb.hpp **** 
  12:src/../h/tcb.hpp **** // Thread Control Block
  13:src/../h/tcb.hpp **** class TCB
  14:src/../h/tcb.hpp **** {
  15:src/../h/tcb.hpp **** public:
  16:src/../h/tcb.hpp ****     ~TCB() {
  17:src/../h/tcb.hpp ****         delete[] stack;
  18:src/../h/tcb.hpp ****     }
  19:src/../h/tcb.hpp **** 
  20:src/../h/tcb.hpp ****     bool isFinished() const { return finished; }
  21:src/../h/tcb.hpp ****     void setFinished(bool value) { finished = value; }
 680              		.loc 4 21 36 is_stmt 1
 681              		.loc 4 21 45 is_stmt 0
 682 0200 13071000 		li	a4,1
 683 0204 238AE702 		sb	a4,52(a5)
 684              	.LVL26:
 685              	.LBE319:
 686              	.LBE318:
  63:src/riscv.cpp ****             TCB::dispatch();
 687              		.loc 1 63 13 is_stmt 1
  63:src/riscv.cpp ****             TCB::dispatch();
 688              		.loc 1 63 26 is_stmt 0
 689 0208 97000000 		call	_ZN3TCB8dispatchEv@plt
 689      E7800000 
 690              	.LVL27:
  64:src/riscv.cpp ****             w_sstatus(sstatus);
 691              		.loc 1 64 13 is_stmt 1
  64:src/riscv.cpp ****             w_sstatus(sstatus);
 692              		.loc 1 64 22 is_stmt 0
 693 0210 833704F7 		ld	a5,-144(s0)
 694              	.LVL28:
 695              	.LBB320:
 696              	.LBB321:
 182:src/../h/riscv.hpp **** }
 697              		.loc 3 182 5 is_stmt 1
 182:src/../h/riscv.hpp **** }
 698              		.loc 3 182 77 is_stmt 0
 699              	#APP
 700              	# 182 "src/../h/riscv.hpp" 1
 701              		csrw sstatus, a5
 702              	# 0 "" 2
GAS LISTING /tmp/ccRzSJoQ.s 			page 22


 703              	.LVL29:
 704              	#NO_APP
 705              	.LBE321:
 706              	.LBE320:
  65:src/riscv.cpp ****             w_sepc(sepc);
 707              		.loc 1 65 13 is_stmt 1
  65:src/riscv.cpp ****             w_sepc(sepc);
 708              		.loc 1 65 19 is_stmt 0
 709 0218 833784F6 		ld	a5,-152(s0)
 710              	.LVL30:
 711              	.LBB322:
 712              	.LBB323:
 114:src/../h/riscv.hpp **** }
 713              		.loc 3 114 5 is_stmt 1
 114:src/../h/riscv.hpp **** }
 714              		.loc 3 114 65 is_stmt 0
 715              	#APP
 716              	# 114 "src/../h/riscv.hpp" 1
 115:src/../h/riscv.hpp **** 
 717              		csrw sepc, a5
 718              	# 0 "" 2
 719              		.loc 3 115 1
 720              	#NO_APP
 721 0220 6FF05FFA 		j	.L9
 722              	.LVL31:
 723              	.L35:
 724              	.LBE323:
 725              	.LBE322:
 726              	.LBB324:
  68:src/riscv.cpp ****             TCB::timeSliceCounter = 0;
 727              		.loc 1 68 13 is_stmt 1
  68:src/riscv.cpp ****             TCB::timeSliceCounter = 0;
 728              		.loc 1 68 35 is_stmt 0
 729 0224 97070000 		la	a5,_ZN3TCB16timeSliceCounterE
 729      83B70700 
 730              	.LVL32:
 731 022c 23B00700 		sd	zero,0(a5)
  69:src/riscv.cpp ****             TCB::dispatch();
 732              		.loc 1 69 13 is_stmt 1
  69:src/riscv.cpp ****             TCB::dispatch();
 733              		.loc 1 69 26 is_stmt 0
 734 0230 97000000 		call	_ZN3TCB8dispatchEv@plt
 734      E7800000 
 735              	.LVL33:
  70:src/riscv.cpp ****             w_sstatus(sstatus);
 736              		.loc 1 70 13 is_stmt 1
  70:src/riscv.cpp ****             w_sstatus(sstatus);
 737              		.loc 1 70 22 is_stmt 0
 738 0238 833704F7 		ld	a5,-144(s0)
 739              	.LVL34:
 740              	.LBB305:
 741              	.LBB306:
 182:src/../h/riscv.hpp **** }
 742              		.loc 3 182 5 is_stmt 1
 182:src/../h/riscv.hpp **** }
 743              		.loc 3 182 77 is_stmt 0
 744              	#APP
GAS LISTING /tmp/ccRzSJoQ.s 			page 23


 745              	# 182 "src/../h/riscv.hpp" 1
 746              		csrw sstatus, a5
 747              	# 0 "" 2
 748              	.LVL35:
 749              	#NO_APP
 750              	.LBE306:
 751              	.LBE305:
  71:src/riscv.cpp ****             w_sepc(sepc);
 752              		.loc 1 71 13 is_stmt 1
  71:src/riscv.cpp ****             w_sepc(sepc);
 753              		.loc 1 71 19 is_stmt 0
 754 0240 833784F6 		ld	a5,-152(s0)
 755              	.LVL36:
 756              	.LBB307:
 757              	.LBB308:
 114:src/../h/riscv.hpp **** }
 758              		.loc 3 114 5 is_stmt 1
 114:src/../h/riscv.hpp **** }
 759              		.loc 3 114 65 is_stmt 0
 760              	#APP
 761              	# 114 "src/../h/riscv.hpp" 1
 115:src/../h/riscv.hpp **** 
 762              		csrw sepc, a5
 763              	# 0 "" 2
 764              		.loc 3 115 1
 765              	#NO_APP
 766 0248 6FF0DFF7 		j	.L9
 767              	.LVL37:
 768              	.L36:
 769              	.LBE308:
 770              	.LBE307:
 771              	.LBB309:
 772              	.LBB297:
 773              	.LBB290:
 774              	.LBB284:
 775              	.LBB279:
 776              	.LBB249:
  89:src/riscv.cpp ****             time_t slice;
 777              		.loc 1 89 13 is_stmt 1
  90:src/riscv.cpp ****             printString("Usao ovde");
 778              		.loc 1 90 13
  90:src/riscv.cpp ****             printString("Usao ovde");
 779              		.loc 1 90 24 is_stmt 0
 780 024c 17050000 		lla	a0,.LC0
 780      13050500 
 781 0254 97000000 		call	_Z11printStringPKc@plt
 781      E7800000 
 782              	.LVL38:
  91:src/riscv.cpp ****             __asm__ volatile("ld t2, 8*11(fp)");
 783              		.loc 1 91 13 is_stmt 1
  91:src/riscv.cpp ****             __asm__ volatile("ld t2, 8*11(fp)");
 784              		.loc 1 91 48 is_stmt 0
 785              	#APP
 786              	# 91 "src/riscv.cpp" 1
  92:src/riscv.cpp ****             __asm__ volatile("mv %0, t2" : "=r" (slice));
 787              		ld t2, 8*11(fp)
 788              	# 0 "" 2
GAS LISTING /tmp/ccRzSJoQ.s 			page 24


 789              		.loc 1 92 13 is_stmt 1
  92:src/riscv.cpp ****             __asm__ volatile("mv %0, t2" : "=r" (slice));
 790              		.loc 1 92 57 is_stmt 0
 791              	# 92 "src/riscv.cpp" 1
 792              		mv s2, t2
 793              	# 0 "" 2
 794              	.LVL39:
  93:src/riscv.cpp ****             printString("\nSlice = ");
 795              		.loc 1 93 13 is_stmt 1
  93:src/riscv.cpp ****             printString("\nSlice = ");
 796              		.loc 1 93 24 is_stmt 0
 797              	#NO_APP
 798 0264 17050000 		lla	a0,.LC1
 798      13050500 
 799 026c 97000000 		call	_Z11printStringPKc@plt
 799      E7800000 
 800              	.LVL40:
  94:src/riscv.cpp ****             printInteger(slice);
 801              		.loc 1 94 13 is_stmt 1
  94:src/riscv.cpp ****             printInteger(slice);
 802              		.loc 1 94 25 is_stmt 0
 803 0274 13050900 		mv	a0,s2
 804 0278 97000000 		call	_Z12printIntegerm@plt
 804      E7800000 
 805              	.LVL41:
  95:src/riscv.cpp ****             printString("\n");
 806              		.loc 1 95 13 is_stmt 1
  95:src/riscv.cpp ****             printString("\n");
 807              		.loc 1 95 24 is_stmt 0
 808 0280 17050000 		lla	a0,.LC2
 808      13050500 
 809 0288 97000000 		call	_Z11printStringPKc@plt
 809      E7800000 
 810              	.LVL42:
  96:src/riscv.cpp ****             if(slice != 0) {
 811              		.loc 1 96 13 is_stmt 1
 812 0290 631E0900 		bnez	s2,.L37
 813              	.LVL43:
 814              	.L14:
 100:src/riscv.cpp ****             TCB::timeSliceCounter = 0;
 815              		.loc 1 100 13
 100:src/riscv.cpp ****             TCB::timeSliceCounter = 0;
 816              		.loc 1 100 35 is_stmt 0
 817 0294 97070000 		la	a5,_ZN3TCB16timeSliceCounterE
 817      83B70700 
 818 029c 23B00700 		sd	zero,0(a5)
 101:src/riscv.cpp ****             TCB::dispatch();
 819              		.loc 1 101 13 is_stmt 1
 101:src/riscv.cpp ****             TCB::dispatch();
 820              		.loc 1 101 26 is_stmt 0
 821 02a0 97000000 		call	_ZN3TCB8dispatchEv@plt
 821      E7800000 
 822              	.LVL44:
 823              	.LBE249:
 824 02a8 6FF0DFF1 		j	.L9
 825              	.LVL45:
 826              	.L37:
GAS LISTING /tmp/ccRzSJoQ.s 			page 25


 827              	.LBB275:
  97:src/riscv.cpp ****                 TCB::running->setSleeping(true);
 828              		.loc 1 97 17 is_stmt 1
  97:src/riscv.cpp ****                 TCB::running->setSleeping(true);
 829              		.loc 1 97 42 is_stmt 0
 830 02ac 97070000 		la	a5,_ZN3TCB7runningE
 830      83B70700 
 831 02b4 03BA0700 		ld	s4,0(a5)
 832              	.LVL46:
 833              	.LBB250:
 834              	.LBB251:
  22:src/../h/tcb.hpp ****     void setSleeping(bool value) { sleeping = value; }
 835              		.loc 4 22 36 is_stmt 1
 836              		.loc 4 22 45 is_stmt 0
 837 02b8 93071000 		li	a5,1
 838 02bc A30AFA02 		sb	a5,53(s4)
 839              	.LVL47:
 840              	.LBE251:
 841              	.LBE250:
  98:src/riscv.cpp ****                 Riscv::sleepingThreads.put(TCB::running, slice);
 842              		.loc 1 98 17 is_stmt 1
 843              	.LBB252:
 844              	.LBB253:
  27:src/../h/../h/sleepingThreadsList.h **** 
  28:src/../h/../h/sleepingThreadsList.h ****     SleepingThreadList(const SleepingThreadList&) = delete;
  29:src/../h/../h/sleepingThreadsList.h **** 
  30:src/../h/../h/sleepingThreadsList.h ****     SleepingThreadList &operator=(const SleepingThreadList&) = delete;
  31:src/../h/../h/sleepingThreadsList.h **** 
  32:src/../h/../h/sleepingThreadsList.h ****     void decFirst(){
  33:src/../h/../h/sleepingThreadsList.h ****         if (head != nullptr) {
  34:src/../h/../h/sleepingThreadsList.h ****             head->relativeTime -= 1;
  35:src/../h/../h/sleepingThreadsList.h ****         }
  36:src/../h/../h/sleepingThreadsList.h ****     }
  37:src/../h/../h/sleepingThreadsList.h ****     time_t peekFirstSlice()
  38:src/../h/../h/sleepingThreadsList.h ****     {
  39:src/../h/../h/sleepingThreadsList.h ****         if (!head) { return -1; }
  40:src/../h/../h/sleepingThreadsList.h ****         return head->relativeTime;
  41:src/../h/../h/sleepingThreadsList.h ****     }
  42:src/../h/../h/sleepingThreadsList.h **** 
  43:src/../h/../h/sleepingThreadsList.h ****     void removeFinishedThreads()
  44:src/../h/../h/sleepingThreadsList.h ****     {
  45:src/../h/../h/sleepingThreadsList.h ****         while (head != nullptr && head->relativeTime == 0){
  46:src/../h/../h/sleepingThreadsList.h ****             Elem *elem = head;
  47:src/../h/../h/sleepingThreadsList.h ****             head = head->next;
  48:src/../h/../h/sleepingThreadsList.h ****             if (!head) { tail = nullptr; }
  49:src/../h/../h/sleepingThreadsList.h ****             elem->data->setSleeping(false);
  50:src/../h/../h/sleepingThreadsList.h ****             Scheduler::put(elem->data);
  51:src/../h/../h/sleepingThreadsList.h ****             delete elem;
  52:src/../h/../h/sleepingThreadsList.h ****         }
  53:src/../h/../h/sleepingThreadsList.h ****     }
  54:src/../h/../h/sleepingThreadsList.h **** 
  55:src/../h/../h/sleepingThreadsList.h ****     void put(TCB* thread, time_t slice){
  56:src/../h/../h/sleepingThreadsList.h ****         if (head == nullptr) {
 845              		.loc 2 56 9
 846              	.LBB254:
 847              		.loc 2 56 13 is_stmt 0
 848 02c0 97040000 		ld	s1,.LANCHOR0
GAS LISTING /tmp/ccRzSJoQ.s 			page 26


 848      83B40400 
 849              		.loc 2 56 9
 850 02c8 63860400 		beqz	s1,.L38
 851              	.LBB255:
  57:src/../h/../h/sleepingThreadsList.h ****             head = new Elem(thread, nullptr, slice);
  58:src/../h/../h/sleepingThreadsList.h ****             tail = head;
  59:src/../h/../h/sleepingThreadsList.h ****         }
  60:src/../h/../h/sleepingThreadsList.h ****         else {
  61:src/../h/../h/sleepingThreadsList.h ****             Elem* temp = head;
  62:src/../h/../h/sleepingThreadsList.h ****             Elem* prev = nullptr;
 852              		.loc 2 62 19
 853 02cc 93090000 		li	s3,0
 854 02d0 6F00C003 		j	.L15
 855              	.L38:
 856              	.LBE255:
  57:src/../h/../h/sleepingThreadsList.h ****             head = new Elem(thread, nullptr, slice);
 857              		.loc 2 57 13 is_stmt 1
  57:src/../h/../h/sleepingThreadsList.h ****             head = new Elem(thread, nullptr, slice);
 858              		.loc 2 57 51 is_stmt 0
 859 02d4 13058001 		li	a0,24
 860 02d8 97000000 		call	_Znwm@plt
 860      E7800000 
 861              	.LVL48:
 862              	.LBB268:
 863              	.LBB269:
  20:src/../h/../h/sleepingThreadsList.h ****     };
 864              		.loc 2 20 109
 865 02e0 23304501 		sd	s4,0(a0)
 866 02e4 23340500 		sd	zero,8(a0)
 867 02e8 23382501 		sd	s2,16(a0)
 868              	.LVL49:
 869              	.LBE269:
 870              	.LBE268:
  57:src/../h/../h/sleepingThreadsList.h ****             head = new Elem(thread, nullptr, slice);
 871              		.loc 2 57 18
 872 02ec 17070000 		lla	a4,.LANCHOR0
 872      13070700 
 873 02f4 2330A700 		sd	a0,0(a4)
  58:src/../h/../h/sleepingThreadsList.h ****         }
 874              		.loc 2 58 13 is_stmt 1
  58:src/../h/../h/sleepingThreadsList.h ****         }
 875              		.loc 2 58 18 is_stmt 0
 876 02f8 2334A700 		sd	a0,8(a4)
 877 02fc 6FF09FF9 		j	.L14
 878              	.LVL50:
 879              	.L39:
 880              	.LBB270:
  63:src/../h/../h/sleepingThreadsList.h ****             while (temp != tail && slice >= temp->relativeTime) {
  64:src/../h/../h/sleepingThreadsList.h ****                 slice -= temp->relativeTime;
 881              		.loc 2 64 17 is_stmt 1
 882              		.loc 2 64 23 is_stmt 0
 883 0300 3309F940 		sub	s2,s2,a5
 884              	.LVL51:
  65:src/../h/../h/sleepingThreadsList.h ****                 prev = temp;
 885              		.loc 2 65 17 is_stmt 1
  66:src/../h/../h/sleepingThreadsList.h ****                 temp = temp->next;
 886              		.loc 2 66 17
GAS LISTING /tmp/ccRzSJoQ.s 			page 27


  65:src/../h/../h/sleepingThreadsList.h ****                 prev = temp;
 887              		.loc 2 65 22 is_stmt 0
 888 0304 93890400 		mv	s3,s1
 889              		.loc 2 66 22
 890 0308 83B48400 		ld	s1,8(s1)
 891              	.LVL52:
 892              	.L15:
  63:src/../h/../h/sleepingThreadsList.h ****             while (temp != tail && slice >= temp->relativeTime) {
 893              		.loc 2 63 13 is_stmt 1
  63:src/../h/../h/sleepingThreadsList.h ****             while (temp != tail && slice >= temp->relativeTime) {
 894              		.loc 2 63 33
  63:src/../h/../h/sleepingThreadsList.h ****             while (temp != tail && slice >= temp->relativeTime) {
 895              		.loc 2 63 28 is_stmt 0
 896 030c 17070000 		ld	a4,.LANCHOR0+8
 896      03370700 
  63:src/../h/../h/sleepingThreadsList.h ****             while (temp != tail && slice >= temp->relativeTime) {
 897              		.loc 2 63 33
 898 0314 63069700 		beq	a4,s1,.L17
  63:src/../h/../h/sleepingThreadsList.h ****             while (temp != tail && slice >= temp->relativeTime) {
 899              		.loc 2 63 51
 900 0318 83B70401 		ld	a5,16(s1)
  63:src/../h/../h/sleepingThreadsList.h ****             while (temp != tail && slice >= temp->relativeTime) {
 901              		.loc 2 63 33
 902 031c E372F9FE 		bleu	a5,s2,.L39
 903              	.L17:
  67:src/../h/../h/sleepingThreadsList.h ****             }
  68:src/../h/../h/sleepingThreadsList.h ****             if (temp == tail){
 904              		.loc 2 68 13 is_stmt 1
 905              	.LBB256:
 906 0320 630C9702 		beq	a4,s1,.L40
 907              	.LBB257:
  69:src/../h/../h/sleepingThreadsList.h ****                 if (slice >= tail->relativeTime){
  70:src/../h/../h/sleepingThreadsList.h ****                     Elem* novi = new Elem(thread, nullptr, slice - tail->relativeTime);
  71:src/../h/../h/sleepingThreadsList.h ****                     tail->next = novi;
  72:src/../h/../h/sleepingThreadsList.h ****                     tail = novi;
  73:src/../h/../h/sleepingThreadsList.h ****                 }
  74:src/../h/../h/sleepingThreadsList.h ****                 else {
  75:src/../h/../h/sleepingThreadsList.h ****                     Elem* novi = new Elem(thread, tail, slice);
  76:src/../h/../h/sleepingThreadsList.h ****                     if (prev != nullptr){
  77:src/../h/../h/sleepingThreadsList.h ****                         prev->next = novi;
  78:src/../h/../h/sleepingThreadsList.h ****                     }
  79:src/../h/../h/sleepingThreadsList.h ****                     else {
  80:src/../h/../h/sleepingThreadsList.h ****                         head = novi;
  81:src/../h/../h/sleepingThreadsList.h ****                     }
  82:src/../h/../h/sleepingThreadsList.h ****                     tail->relativeTime -= slice;
  83:src/../h/../h/sleepingThreadsList.h ****                 }
  84:src/../h/../h/sleepingThreadsList.h ****             }
  85:src/../h/../h/sleepingThreadsList.h ****             else {
  86:src/../h/../h/sleepingThreadsList.h ****                 Elem* novi = new Elem(thread, temp, slice);
 908              		.loc 2 86 17
 909              		.loc 2 86 58 is_stmt 0
 910 0324 13058001 		li	a0,24
 911 0328 97000000 		call	_Znwm@plt
 911      E7800000 
 912              	.LVL53:
 913              	.LBB258:
 914              	.LBB259:
GAS LISTING /tmp/ccRzSJoQ.s 			page 28


  20:src/../h/../h/sleepingThreadsList.h ****     };
 915              		.loc 2 20 109
 916 0330 23304501 		sd	s4,0(a0)
 917 0334 23349500 		sd	s1,8(a0)
 918 0338 23382501 		sd	s2,16(a0)
 919              	.LVL54:
 920              	.LBE259:
 921              	.LBE258:
  87:src/../h/../h/sleepingThreadsList.h ****                 prev->next = novi;
 922              		.loc 2 87 17 is_stmt 1
 923              		.loc 2 87 28 is_stmt 0
 924 033c 23B4A900 		sd	a0,8(s3)
 925              	.L22:
  88:src/../h/../h/sleepingThreadsList.h ****                 while(temp != nullptr){
 926              		.loc 2 88 17 is_stmt 1
 927              		.loc 2 88 28
 928 0340 E38A04F4 		beqz	s1,.L14
  89:src/../h/../h/sleepingThreadsList.h ****                     temp->relativeTime -= slice;
 929              		.loc 2 89 21
 930              		.loc 2 89 40 is_stmt 0
 931 0344 83B70401 		ld	a5,16(s1)
 932 0348 B3872741 		sub	a5,a5,s2
 933 034c 23B8F400 		sd	a5,16(s1)
  90:src/../h/../h/sleepingThreadsList.h ****                     temp = temp->next;
 934              		.loc 2 90 21 is_stmt 1
 935              		.loc 2 90 26 is_stmt 0
 936 0350 83B48400 		ld	s1,8(s1)
 937              	.LVL55:
  88:src/../h/../h/sleepingThreadsList.h ****                 while(temp != nullptr){
 938              		.loc 2 88 17
 939 0354 6FF0DFFE 		j	.L22
 940              	.LVL56:
 941              	.L40:
 942              	.LBE257:
 943              	.LBE256:
 944              	.LBE270:
 945              	.LBE254:
 946              	.LBE253:
 947              	.LBE252:
 948              	.LBE275:
 949              	.LBE279:
 950              	.LBE284:
 951              	.LBE290:
 952              	.LBE297:
 953              	.LBE309:
 954              	.LBE324:
 955              	.LBE335:
 956              	.LBE346:
 957              	.LBE358:
 958              	.LBE375:
 959              	.LBE388:
 960              	.LBE405:
  69:src/../h/../h/sleepingThreadsList.h ****                     Elem* novi = new Elem(thread, nullptr, slice - tail->relativeTime);
 961              		.loc 2 69 17 is_stmt 1
 962              	.LBB406:
 963              	.LBB389:
 964              	.LBB376:
GAS LISTING /tmp/ccRzSJoQ.s 			page 29


 965              	.LBB359:
 966              	.LBB347:
 967              	.LBB336:
 968              	.LBB325:
 969              	.LBB310:
 970              	.LBB298:
 971              	.LBB291:
 972              	.LBB285:
 973              	.LBB280:
 974              	.LBB276:
 975              	.LBB274:
 976              	.LBB273:
 977              	.LBB272:
 978              	.LBB271:
 979              	.LBB267:
 980              	.LBB260:
  69:src/../h/../h/sleepingThreadsList.h ****                     Elem* novi = new Elem(thread, nullptr, slice - tail->relativeTime);
 981              		.loc 2 69 36 is_stmt 0
 982 0358 83370701 		ld	a5,16(a4)
  69:src/../h/../h/sleepingThreadsList.h ****                     Elem* novi = new Elem(thread, nullptr, slice - tail->relativeTime);
 983              		.loc 2 69 17
 984 035c 636EF902 		bltu	s2,a5,.L19
 985              	.LBB261:
  70:src/../h/../h/sleepingThreadsList.h ****                     tail->next = novi;
 986              		.loc 2 70 21 is_stmt 1
  70:src/../h/../h/sleepingThreadsList.h ****                     tail->next = novi;
 987              		.loc 2 70 86 is_stmt 0
 988 0360 13058001 		li	a0,24
 989 0364 97000000 		call	_Znwm@plt
 989      E7800000 
 990              	.LVL57:
  70:src/../h/../h/sleepingThreadsList.h ****                     tail->next = novi;
 991              		.loc 2 70 68
 992 036c 97060000 		lla	a3,.LANCHOR0
 992      93860600 
 993 0374 03B68600 		ld	a2,8(a3)
  70:src/../h/../h/sleepingThreadsList.h ****                     tail->next = novi;
 994              		.loc 2 70 74
 995 0378 03370601 		ld	a4,16(a2)
  70:src/../h/../h/sleepingThreadsList.h ****                     tail->next = novi;
 996              		.loc 2 70 86
 997 037c 3309E940 		sub	s2,s2,a4
 998              	.LVL58:
 999              	.LBB262:
 1000              	.LBB263:
  20:src/../h/../h/sleepingThreadsList.h ****     };
 1001              		.loc 2 20 109
 1002 0380 23304501 		sd	s4,0(a0)
 1003 0384 23340500 		sd	zero,8(a0)
 1004 0388 23382501 		sd	s2,16(a0)
 1005              	.LVL59:
 1006              	.LBE263:
 1007              	.LBE262:
  71:src/../h/../h/sleepingThreadsList.h ****                     tail = novi;
 1008              		.loc 2 71 21 is_stmt 1
  71:src/../h/../h/sleepingThreadsList.h ****                     tail = novi;
 1009              		.loc 2 71 32 is_stmt 0
GAS LISTING /tmp/ccRzSJoQ.s 			page 30


 1010 038c 2334A600 		sd	a0,8(a2)
  72:src/../h/../h/sleepingThreadsList.h ****                 }
 1011              		.loc 2 72 21 is_stmt 1
  72:src/../h/../h/sleepingThreadsList.h ****                 }
 1012              		.loc 2 72 26 is_stmt 0
 1013 0390 23B4A600 		sd	a0,8(a3)
 1014              	.LBE261:
 1015 0394 6FF01FF0 		j	.L14
 1016              	.LVL60:
 1017              	.L19:
 1018              	.LBB264:
  75:src/../h/../h/sleepingThreadsList.h ****                     if (prev != nullptr){
 1019              		.loc 2 75 21 is_stmt 1
  75:src/../h/../h/sleepingThreadsList.h ****                     if (prev != nullptr){
 1020              		.loc 2 75 62 is_stmt 0
 1021 0398 13058001 		li	a0,24
 1022 039c 97000000 		call	_Znwm@plt
 1022      E7800000 
 1023              	.LVL61:
 1024              	.LBB265:
 1025              	.LBB266:
  20:src/../h/../h/sleepingThreadsList.h ****     };
 1026              		.loc 2 20 109
 1027 03a4 23304501 		sd	s4,0(a0)
 1028              	.LVL62:
 1029 03a8 17070000 		ld	a4,.LANCHOR0+8
 1029      03370700 
 1030 03b0 2334E500 		sd	a4,8(a0)
 1031 03b4 23382501 		sd	s2,16(a0)
 1032              	.LVL63:
 1033              	.LBE266:
 1034              	.LBE265:
  76:src/../h/../h/sleepingThreadsList.h ****                         prev->next = novi;
 1035              		.loc 2 76 21 is_stmt 1
 1036 03b8 63800902 		beqz	s3,.L20
  77:src/../h/../h/sleepingThreadsList.h ****                     }
 1037              		.loc 2 77 25
  77:src/../h/../h/sleepingThreadsList.h ****                     }
 1038              		.loc 2 77 36 is_stmt 0
 1039 03bc 23B4A900 		sd	a0,8(s3)
 1040              	.L21:
  82:src/../h/../h/sleepingThreadsList.h ****                 }
 1041              		.loc 2 82 21 is_stmt 1
 1042 03c0 17070000 		ld	a4,.LANCHOR0+8
 1042      03370700 
  82:src/../h/../h/sleepingThreadsList.h ****                 }
 1043              		.loc 2 82 40 is_stmt 0
 1044 03c8 83370701 		ld	a5,16(a4)
 1045 03cc 33892741 		sub	s2,a5,s2
 1046              	.LVL64:
 1047 03d0 23382701 		sd	s2,16(a4)
 1048 03d4 6FF01FEC 		j	.L14
 1049              	.LVL65:
 1050              	.L20:
  80:src/../h/../h/sleepingThreadsList.h ****                     }
 1051              		.loc 2 80 25 is_stmt 1
  80:src/../h/../h/sleepingThreadsList.h ****                     }
GAS LISTING /tmp/ccRzSJoQ.s 			page 31


 1052              		.loc 2 80 30 is_stmt 0
 1053 03d8 17070000 		sd	a0,.LANCHOR0,a4
 1053      2330A700 
 1054 03e0 6FF01FFE 		j	.L21
 1055              	.LVL66:
 1056              	.L32:
 1057              	.LBE264:
 1058              	.LBE260:
 1059              	.LBE267:
 1060              	.LBE271:
 1061              	.LBE272:
 1062              	.LBE273:
 1063              	.LBE274:
 1064              	.LBE276:
 1065              	.LBE280:
 1066              	.LBE285:
 1067              	.LBE291:
 1068              	.LBE298:
 1069              	.LBE310:
 1070              	.LBE325:
 1071              	.LBE336:
 1072              	.LBE347:
 1073              	.LBE359:
 1074              	.LBE376:
 1075              	.LBE389:
 1076              	.LBB390:
 1077              	.LBB196:
 126:src/riscv.cpp ****         time_t temp = Riscv::sleepingThreads.peekFirstSlice();
 1078              		.loc 1 126 9 is_stmt 1
 1079              	.LBB197:
 1080              	.LBB198:
  39:src/../h/../h/sleepingThreadsList.h ****         return head->relativeTime;
 1081              		.loc 2 39 9
  39:src/../h/../h/sleepingThreadsList.h ****         return head->relativeTime;
 1082              		.loc 2 39 14 is_stmt 0
 1083 03e4 17070000 		ld	a4,.LANCHOR0
 1083      03370700 
 1084              	.LVL67:
  39:src/../h/../h/sleepingThreadsList.h ****         return head->relativeTime;
 1085              		.loc 2 39 9
 1086 03ec 630E0700 		beqz	a4,.L25
  40:src/../h/../h/sleepingThreadsList.h ****     }
 1087              		.loc 2 40 9 is_stmt 1
  40:src/../h/../h/sleepingThreadsList.h ****     }
 1088              		.loc 2 40 22 is_stmt 0
 1089 03f0 83370701 		ld	a5,16(a4)
 1090              	.LVL68:
 1091              	.LBE198:
 1092              	.LBE197:
 127:src/riscv.cpp ****         time_t t1 = -1;
 1093              		.loc 1 127 9 is_stmt 1
 129:src/riscv.cpp ****         if (temp != t1){
 1094              		.loc 1 129 9
 1095 03f4 9306F0FF 		li	a3,-1
 1096              	.LVL69:
 1097 03f8 6388D700 		beq	a5,a3,.L25
 132:src/riscv.cpp ****             Riscv::sleepingThreads.decFirst();
GAS LISTING /tmp/ccRzSJoQ.s 			page 32


 1098              		.loc 1 132 13
 1099              	.LVL70:
 1100              	.LBB199:
 1101              	.LBB200:
  33:src/../h/../h/sleepingThreadsList.h ****             head->relativeTime -= 1;
 1102              		.loc 2 33 9
  34:src/../h/../h/sleepingThreadsList.h ****         }
 1103              		.loc 2 34 13
  34:src/../h/../h/sleepingThreadsList.h ****         }
 1104              		.loc 2 34 32 is_stmt 0
 1105 03fc 9387F7FF 		addi	a5,a5,-1
 1106              	.LVL71:
 1107 0400 2338F700 		sd	a5,16(a4)
 1108              	.LVL72:
 1109              	.LBE200:
 1110              	.LBE199:
 133:src/riscv.cpp ****             if (Riscv::sleepingThreads.peekFirstSlice() == 0) {
 1111              		.loc 1 133 13 is_stmt 1
 1112              	.LBE196:
 1113              	.LBE390:
 1114              	.LBE406:
  39:src/../h/../h/sleepingThreadsList.h ****         return head->relativeTime;
 1115              		.loc 2 39 9
  40:src/../h/../h/sleepingThreadsList.h ****     }
 1116              		.loc 2 40 9
 1117              	.LBB407:
 1118              	.LBB391:
 1119              	.LBB221:
 133:src/riscv.cpp ****             if (Riscv::sleepingThreads.peekFirstSlice() == 0) {
 1120              		.loc 1 133 13 is_stmt 0
 1121 0404 638E0708 		beqz	a5,.L27
 1122              	.LVL73:
 1123              	.L25:
 137:src/riscv.cpp ****         mc_sip(SIP_SSIP);
 1124              		.loc 1 137 9 is_stmt 1
 1125              	.LBB201:
 1126              	.LBB202:
 148:src/../h/riscv.hpp **** }
 1127              		.loc 3 148 5
 148:src/../h/riscv.hpp **** }
 1128              		.loc 3 148 64 is_stmt 0
 1129 0408 93072000 		li	a5,2
 1130              	#APP
 1131              	# 148 "src/../h/riscv.hpp" 1
 1132              		csrc sip, a5
 1133              	# 0 "" 2
 1134              	.LVL74:
 1135              	#NO_APP
 1136              	.LBE202:
 1137              	.LBE201:
 138:src/riscv.cpp ****         TCB::timeSliceCounter++;
 1138              		.loc 1 138 9 is_stmt 1
 138:src/riscv.cpp ****         TCB::timeSliceCounter++;
 1139              		.loc 1 138 30 is_stmt 0
 1140 0410 17070000 		la	a4,_ZN3TCB16timeSliceCounterE
 1140      03370700 
 1141 0418 83370700 		ld	a5,0(a4)
GAS LISTING /tmp/ccRzSJoQ.s 			page 33


 1142 041c 93871700 		addi	a5,a5,1
 1143 0420 2330F700 		sd	a5,0(a4)
 139:src/riscv.cpp ****         if (TCB::timeSliceCounter >= TCB::running->getTimeSlice())
 1144              		.loc 1 139 9 is_stmt 1
 1145              	.LBB203:
 139:src/riscv.cpp ****         if (TCB::timeSliceCounter >= TCB::running->getTimeSlice())
 1146              		.loc 1 139 64 is_stmt 0
 1147 0424 17070000 		la	a4,_ZN3TCB7runningE
 1147      03370700 
 1148 042c 03370700 		ld	a4,0(a4)
 1149              	.LVL75:
 1150              	.LBB204:
 1151              	.LBB205:
  23:src/../h/tcb.hpp ****     bool isSleeping() const { return sleeping; }
  24:src/../h/tcb.hpp ****     uint64 getTimeSlice() const { return timeSlice; }
 1152              		.loc 4 24 35 is_stmt 1
 1153              		.loc 4 24 42 is_stmt 0
 1154 0430 03378702 		ld	a4,40(a4)
 1155              	.LVL76:
 1156              	.LBE205:
 1157              	.LBE204:
 139:src/riscv.cpp ****         if (TCB::timeSliceCounter >= TCB::running->getTimeSlice())
 1158              		.loc 1 139 9
 1159 0434 E3E0E7DA 		bltu	a5,a4,.L7
 1160              	.LBB206:
 141:src/riscv.cpp ****             uint64 volatile sepc = r_sepc();
 1161              		.loc 1 141 13 is_stmt 1
 1162              	.LBB207:
 1163              	.LBB208:
 107:src/../h/riscv.hpp ****     __asm__ volatile ("csrr %[sepc], sepc" : [sepc] "=r"(sepc));
 1164              		.loc 3 107 5
 108:src/../h/riscv.hpp ****     return sepc;
 1165              		.loc 3 108 5
 108:src/../h/riscv.hpp ****     return sepc;
 1166              		.loc 3 108 64 is_stmt 0
 1167              	#APP
 1168              	# 108 "src/../h/riscv.hpp" 1
 1169              		csrr a5, sepc
 1170              	# 0 "" 2
 1171              	#NO_APP
 1172 043c 2334F4FC 		sd	a5,-56(s0)
 109:src/../h/riscv.hpp **** }
 1173              		.loc 3 109 5 is_stmt 1
 109:src/../h/riscv.hpp **** }
 1174              		.loc 3 109 12 is_stmt 0
 1175 0440 833784FC 		ld	a5,-56(s0)
 1176              	.LBE208:
 1177              	.LBE207:
 141:src/riscv.cpp ****             uint64 volatile sepc = r_sepc();
 1178              		.loc 1 141 43
 1179 0444 2334F4F8 		sd	a5,-120(s0)
 142:src/riscv.cpp ****             uint64 volatile sstatus = r_sstatus();
 1180              		.loc 1 142 13 is_stmt 1
 1181              	.LBB209:
 1182              	.LBB210:
 175:src/../h/riscv.hpp ****     __asm__ volatile ("csrr %[sstatus], sstatus" : [sstatus] "=r"(sstatus));
 1183              		.loc 3 175 5
GAS LISTING /tmp/ccRzSJoQ.s 			page 34


 176:src/../h/riscv.hpp ****     return sstatus;
 1184              		.loc 3 176 5
 176:src/../h/riscv.hpp ****     return sstatus;
 1185              		.loc 3 176 76 is_stmt 0
 1186              	#APP
 1187              	# 176 "src/../h/riscv.hpp" 1
 1188              		csrr a5, sstatus
 1189              	# 0 "" 2
 1190              	#NO_APP
 1191 044c 2330F4FC 		sd	a5,-64(s0)
 177:src/../h/riscv.hpp **** }
 1192              		.loc 3 177 5 is_stmt 1
 177:src/../h/riscv.hpp **** }
 1193              		.loc 3 177 12 is_stmt 0
 1194 0450 833704FC 		ld	a5,-64(s0)
 1195              	.LBE210:
 1196              	.LBE209:
 142:src/riscv.cpp ****             uint64 volatile sstatus = r_sstatus();
 1197              		.loc 1 142 49
 1198 0454 2338F4F8 		sd	a5,-112(s0)
 143:src/riscv.cpp ****             TCB::timeSliceCounter = 0;
 1199              		.loc 1 143 13 is_stmt 1
 143:src/riscv.cpp ****             TCB::timeSliceCounter = 0;
 1200              		.loc 1 143 35 is_stmt 0
 1201 0458 97070000 		la	a5,_ZN3TCB16timeSliceCounterE
 1201      83B70700 
 1202 0460 23B00700 		sd	zero,0(a5)
 144:src/riscv.cpp ****             TCB::dispatch();
 1203              		.loc 1 144 13 is_stmt 1
 144:src/riscv.cpp ****             TCB::dispatch();
 1204              		.loc 1 144 26 is_stmt 0
 1205 0464 97000000 		call	_ZN3TCB8dispatchEv@plt
 1205      E7800000 
 1206              	.LVL77:
 145:src/riscv.cpp ****             w_sstatus(sstatus);
 1207              		.loc 1 145 13 is_stmt 1
 145:src/riscv.cpp ****             w_sstatus(sstatus);
 1208              		.loc 1 145 22 is_stmt 0
 1209 046c 833704F9 		ld	a5,-112(s0)
 1210              	.LVL78:
 1211              	.LBB211:
 1212              	.LBB212:
 182:src/../h/riscv.hpp **** }
 1213              		.loc 3 182 5 is_stmt 1
 182:src/../h/riscv.hpp **** }
 1214              		.loc 3 182 77 is_stmt 0
 1215              	#APP
 1216              	# 182 "src/../h/riscv.hpp" 1
 1217              		csrw sstatus, a5
 1218              	# 0 "" 2
 1219              	.LVL79:
 1220              	#NO_APP
 1221              	.LBE212:
 1222              	.LBE211:
 146:src/riscv.cpp ****             w_sepc(sepc);
 1223              		.loc 1 146 13 is_stmt 1
 146:src/riscv.cpp ****             w_sepc(sepc);
GAS LISTING /tmp/ccRzSJoQ.s 			page 35


 1224              		.loc 1 146 19 is_stmt 0
 1225 0474 833784F8 		ld	a5,-120(s0)
 1226              	.LVL80:
 1227              	.LBB213:
 1228              	.LBB214:
 114:src/../h/riscv.hpp **** }
 1229              		.loc 3 114 5 is_stmt 1
 114:src/../h/riscv.hpp **** }
 1230              		.loc 3 114 65 is_stmt 0
 1231              	#APP
 1232              	# 114 "src/../h/riscv.hpp" 1
 115:src/../h/riscv.hpp **** 
 1233              		csrw sepc, a5
 1234              	# 0 "" 2
 1235              		.loc 3 115 1
 1236              	#NO_APP
 1237 047c 6FF09FD5 		j	.L7
 1238              	.LVL81:
 1239              	.L42:
 1240              	.LBE214:
 1241              	.LBE213:
 1242              	.LBE206:
 1243              	.LBE203:
 1244              	.LBB215:
 1245              	.LBB216:
 1246              	.LBB217:
  48:src/../h/../h/sleepingThreadsList.h ****             elem->data->setSleeping(false);
 1247              		.loc 2 48 26 is_stmt 1
  48:src/../h/../h/sleepingThreadsList.h ****             elem->data->setSleeping(false);
 1248              		.loc 2 48 31 is_stmt 0
 1249 0480 97070000 		sd	zero,.LANCHOR0+8,a5
 1249      23B00700 
 1250              	.L26:
  49:src/../h/../h/sleepingThreadsList.h ****             Scheduler::put(elem->data);
 1251              		.loc 2 49 13 is_stmt 1
  49:src/../h/../h/sleepingThreadsList.h ****             Scheduler::put(elem->data);
 1252              		.loc 2 49 19 is_stmt 0
 1253 0488 83B70400 		ld	a5,0(s1)
 1254              	.LVL82:
 1255              	.LBB218:
 1256              	.LBB219:
  22:src/../h/tcb.hpp ****     bool isSleeping() const { return sleeping; }
 1257              		.loc 4 22 36 is_stmt 1
  22:src/../h/tcb.hpp ****     bool isSleeping() const { return sleeping; }
 1258              		.loc 4 22 45 is_stmt 0
 1259 048c A38A0702 		sb	zero,53(a5)
 1260              	.LVL83:
 1261              	.LBE219:
 1262              	.LBE218:
  50:src/../h/../h/sleepingThreadsList.h ****             delete elem;
 1263              		.loc 2 50 13 is_stmt 1
  50:src/../h/../h/sleepingThreadsList.h ****             delete elem;
 1264              		.loc 2 50 27 is_stmt 0
 1265 0490 03B50400 		ld	a0,0(s1)
 1266 0494 97000000 		call	_ZN9Scheduler3putEP3TCB@plt
 1266      E7800000 
 1267              	.LVL84:
GAS LISTING /tmp/ccRzSJoQ.s 			page 36


  51:src/../h/../h/sleepingThreadsList.h ****         }
 1268              		.loc 2 51 13 is_stmt 1
  51:src/../h/../h/sleepingThreadsList.h ****         }
 1269              		.loc 2 51 24 is_stmt 0
 1270 049c 63960402 		bnez	s1,.L41
 1271              	.LVL85:
 1272              	.L27:
 1273              	.LBE217:
  45:src/../h/../h/sleepingThreadsList.h ****             Elem *elem = head;
 1274              		.loc 2 45 9 is_stmt 1
  45:src/../h/../h/sleepingThreadsList.h ****             Elem *elem = head;
 1275              		.loc 2 45 32
  45:src/../h/../h/sleepingThreadsList.h ****             Elem *elem = head;
 1276              		.loc 2 45 16 is_stmt 0
 1277 04a0 97040000 		ld	s1,.LANCHOR0
 1277      83B40400 
  45:src/../h/../h/sleepingThreadsList.h ****             Elem *elem = head;
 1278              		.loc 2 45 32
 1279 04a8 E38004F6 		beqz	s1,.L25
  45:src/../h/../h/sleepingThreadsList.h ****             Elem *elem = head;
 1280              		.loc 2 45 41
 1281 04ac 83B70401 		ld	a5,16(s1)
  45:src/../h/../h/sleepingThreadsList.h ****             Elem *elem = head;
 1282              		.loc 2 45 32
 1283 04b0 E39C07F4 		bnez	a5,.L25
 1284              	.LBB220:
  46:src/../h/../h/sleepingThreadsList.h ****             head = head->next;
 1285              		.loc 2 46 13 is_stmt 1
 1286              	.LVL86:
  47:src/../h/../h/sleepingThreadsList.h ****             if (!head) { tail = nullptr; }
 1287              		.loc 2 47 13
  47:src/../h/../h/sleepingThreadsList.h ****             if (!head) { tail = nullptr; }
 1288              		.loc 2 47 26 is_stmt 0
 1289 04b4 83B78400 		ld	a5,8(s1)
  47:src/../h/../h/sleepingThreadsList.h ****             if (!head) { tail = nullptr; }
 1290              		.loc 2 47 18
 1291 04b8 17070000 		sd	a5,.LANCHOR0,a4
 1291      2330F700 
  48:src/../h/../h/sleepingThreadsList.h ****             elem->data->setSleeping(false);
 1292              		.loc 2 48 13 is_stmt 1
 1293 04c0 E39407FC 		bnez	a5,.L26
 1294 04c4 6FF0DFFB 		j	.L42
 1295              	.L41:
  51:src/../h/../h/sleepingThreadsList.h ****         }
 1296              		.loc 2 51 20 is_stmt 0
 1297 04c8 13850400 		mv	a0,s1
 1298 04cc 97000000 		call	_ZdlPv@plt
 1298      E7800000 
 1299              	.LVL87:
 1300 04d4 6FF0DFFC 		j	.L27
 1301              	.LBE220:
 1302              	.LBE216:
 1303              	.LBE215:
 1304              	.LBE221:
 1305              	.LBE391:
 1306              	.LBE407:
 1307              		.cfi_endproc
GAS LISTING /tmp/ccRzSJoQ.s 			page 37


 1308              	.LFE47:
 1310              		.align	2
 1312              	_GLOBAL__sub_I__ZN5Riscv15sleepingThreadsE:
 1313              	.LFB49:
 1314              		.loc 1 158 1 is_stmt 1
 1315              		.cfi_startproc
 1316 04d8 130101FF 		addi	sp,sp,-16
 1317              		.cfi_def_cfa_offset 16
 1318 04dc 23341100 		sd	ra,8(sp)
 1319 04e0 23308100 		sd	s0,0(sp)
 1320              		.cfi_offset 1, -8
 1321              		.cfi_offset 8, -16
 1322 04e4 13040101 		addi	s0,sp,16
 1323              		.cfi_def_cfa 8, 0
 1324              		.loc 1 158 1 is_stmt 0
 1325 04e8 B7050100 		li	a1,65536
 1326 04ec 9385F5FF 		addi	a1,a1,-1
 1327 04f0 13051000 		li	a0,1
 1328 04f4 97000000 		call	_Z41__static_initialization_and_destruction_0ii
 1328      E7800000 
 1329              	.LVL88:
 1330 04fc 83308100 		ld	ra,8(sp)
 1331              		.cfi_restore 1
 1332 0500 03340100 		ld	s0,0(sp)
 1333              		.cfi_restore 8
 1334              		.cfi_def_cfa 2, 16
 1335 0504 13010101 		addi	sp,sp,16
 1336              		.cfi_def_cfa_offset 0
 1337 0508 67800000 		jr	ra
 1338              		.cfi_endproc
 1339              	.LFE49:
 1341              		.section	.init_array,"aw"
 1342              		.align	3
 1343 0000 00000000 		.dword	_GLOBAL__sub_I__ZN5Riscv15sleepingThreadsE
 1343      00000000 
 1344              		.globl	_ZN5Riscv15sleepingThreadsE
 1345              		.bss
 1346              		.align	3
 1347              		.set	.LANCHOR0,. + 0
 1350              	_ZN5Riscv15sleepingThreadsE:
 1351 0000 00000000 		.zero	16
 1351      00000000 
 1351      00000000 
 1351      00000000 
 1352              		.text
 1353              	.Letext0:
 1354              		.file 5 "src/../h/../lib/hw.h"
 1355              		.file 6 "src/../h/scheduler.hpp"
 1356              		.file 7 "src/../h/../h/syscall_c.h"
 1357              		.file 8 "src/../h/codes.h"
 1358              		.file 9 "src/../h/../h/print.hpp"
 1359              		.file 10 "src/../lib/console.h"
GAS LISTING /tmp/ccRzSJoQ.s 			page 38

