GAS LISTING /tmp/ccNEdkrL.s 			page 1


   1              		.file	"syscall_c.cpp"
   2              		.option pic
   3              		.option norelax
   4              		.text
   5              	.Ltext0:
   6              		.align	2
   7              		.globl	_Z9mem_allocm
   9              	_Z9mem_allocm:
  10              	.LFB60:
  11              		.file 1 "src/syscall_c.cpp"
   1:src/syscall_c.cpp **** #include "../h/syscall_c.h"
   2:src/syscall_c.cpp **** #include "../lib/mem.h"
   3:src/syscall_c.cpp **** #include "../h/tcb.hpp"
   4:src/syscall_c.cpp **** #include "../h/codes.hpp"
   5:src/syscall_c.cpp **** #include "../h/riscv.hpp"
   6:src/syscall_c.cpp **** 
   7:src/syscall_c.cpp **** void* mem_alloc (size_t size) {
  12              		.loc 1 7 31
  13              		.cfi_startproc
  14              	.LVL0:
  15 0000 130101FF 		addi	sp,sp,-16
  16              		.cfi_def_cfa_offset 16
  17 0004 23341100 		sd	ra,8(sp)
  18 0008 23308100 		sd	s0,0(sp)
  19              		.cfi_offset 1, -8
  20              		.cfi_offset 8, -16
  21 000c 13040101 		addi	s0,sp,16
  22              		.cfi_def_cfa 8, 0
   8:src/syscall_c.cpp **** //    char c = 'k';
   9:src/syscall_c.cpp **** //    void* ret = &c;
  10:src/syscall_c.cpp **** //    size_t brojBlokova;
  11:src/syscall_c.cpp **** //    if (size % MEM_BLOCK_SIZE == 0) {
  12:src/syscall_c.cpp **** //        brojBlokova = size/MEM_BLOCK_SIZE;
  13:src/syscall_c.cpp **** //    } else {
  14:src/syscall_c.cpp **** //        brojBlokova = size/MEM_BLOCK_SIZE + 1;
  15:src/syscall_c.cpp **** //    }
  16:src/syscall_c.cpp **** //    __asm__ volatile("mv a2, %0" : : "r" (ret));
  17:src/syscall_c.cpp **** //    __asm__ volatile("mv a1, %0" : : "r" (brojBlokova));
  18:src/syscall_c.cpp **** //    __asm__ volatile("mv a0, %0" : : "r" (MEM_ALLOC));
  19:src/syscall_c.cpp **** //    __asm__ volatile ("ecall");
  20:src/syscall_c.cpp **** //
  21:src/syscall_c.cpp **** //    return ret;     ne znam zasto je optimized out, uvek vrati null;
  22:src/syscall_c.cpp **** 
  23:src/syscall_c.cpp ****     return __mem_alloc(size);
  23              		.loc 1 23 5
  24              		.loc 1 23 23 is_stmt 0
  25 0010 97000000 		call	__mem_alloc@plt
  25      E7800000 
  26              	.LVL1:
  24:src/syscall_c.cpp **** }
  27              		.loc 1 24 1
  28 0018 83308100 		ld	ra,8(sp)
  29              		.cfi_restore 1
  30 001c 03340100 		ld	s0,0(sp)
  31              		.cfi_restore 8
  32              		.cfi_def_cfa 2, 16
  33 0020 13010101 		addi	sp,sp,16
GAS LISTING /tmp/ccNEdkrL.s 			page 2


  34              		.cfi_def_cfa_offset 0
  35 0024 67800000 		jr	ra
  36              		.cfi_endproc
  37              	.LFE60:
  39              		.align	2
  40              		.globl	_Z8mem_freePv
  42              	_Z8mem_freePv:
  43              	.LFB61:
  25:src/syscall_c.cpp **** 
  26:src/syscall_c.cpp **** int mem_free (void* v) {
  44              		.loc 1 26 24 is_stmt 1
  45              		.cfi_startproc
  46              	.LVL2:
  47 0028 130101FF 		addi	sp,sp,-16
  48              		.cfi_def_cfa_offset 16
  49 002c 23341100 		sd	ra,8(sp)
  50 0030 23308100 		sd	s0,0(sp)
  51              		.cfi_offset 1, -8
  52              		.cfi_offset 8, -16
  53 0034 13040101 		addi	s0,sp,16
  54              		.cfi_def_cfa 8, 0
  27:src/syscall_c.cpp ****     return __mem_free(v);
  55              		.loc 1 27 5
  56              		.loc 1 27 22 is_stmt 0
  57 0038 97000000 		call	__mem_free@plt
  57      E7800000 
  58              	.LVL3:
  28:src/syscall_c.cpp **** }
  59              		.loc 1 28 1
  60 0040 83308100 		ld	ra,8(sp)
  61              		.cfi_restore 1
  62 0044 03340100 		ld	s0,0(sp)
  63              		.cfi_restore 8
  64              		.cfi_def_cfa 2, 16
  65 0048 13010101 		addi	sp,sp,16
  66              		.cfi_def_cfa_offset 0
  67 004c 67800000 		jr	ra
  68              		.cfi_endproc
  69              	.LFE61:
  71              		.align	2
  72              		.globl	_Z13thread_createPP3TCBPFvPvES2_
  74              	_Z13thread_createPP3TCBPFvPvES2_:
  75              	.LFB62:
  29:src/syscall_c.cpp **** 
  30:src/syscall_c.cpp **** 
  31:src/syscall_c.cpp **** int thread_create (thread_t* handle, void(*start_routine)(void*), void* arg) {
  76              		.loc 1 31 78 is_stmt 1
  77              		.cfi_startproc
  78              	.LVL4:
  79 0050 130101FC 		addi	sp,sp,-64
  80              		.cfi_def_cfa_offset 64
  81 0054 233C1102 		sd	ra,56(sp)
  82 0058 23388102 		sd	s0,48(sp)
  83 005c 23349102 		sd	s1,40(sp)
  84 0060 23302103 		sd	s2,32(sp)
  85 0064 233C3101 		sd	s3,24(sp)
  86              		.cfi_offset 1, -8
GAS LISTING /tmp/ccNEdkrL.s 			page 3


  87              		.cfi_offset 8, -16
  88              		.cfi_offset 9, -24
  89              		.cfi_offset 18, -32
  90              		.cfi_offset 19, -40
  91 0068 13040104 		addi	s0,sp,64
  92              		.cfi_def_cfa 8, 0
  93 006c 93040500 		mv	s1,a0
  94 0070 13890500 		mv	s2,a1
  95 0074 93090600 		mv	s3,a2
  32:src/syscall_c.cpp **** 
  33:src/syscall_c.cpp ****     int x = 0;
  96              		.loc 1 33 5
  97              		.loc 1 33 9 is_stmt 0
  98 0078 232604FC 		sw	zero,-52(s0)
  34:src/syscall_c.cpp ****     int *ret = &x;
  99              		.loc 1 34 5 is_stmt 1
 100              	.LVL5:
  35:src/syscall_c.cpp **** 
  36:src/syscall_c.cpp ****     auto *stack = (uint64*)(new uint64[DEFAULT_STACK_SIZE]);
 101              		.loc 1 36 5
 102              		.loc 1 36 58 is_stmt 0
 103 007c 37850000 		li	a0,32768
 104              	.LVL6:
 105 0080 97000000 		call	_Znam@plt
 105      E7800000 
 106              	.LVL7:
  37:src/syscall_c.cpp ****     __asm__ volatile("mv a4, %0" : : "r" (stack));
 107              		.loc 1 37 5 is_stmt 1
 108              		.loc 1 37 50 is_stmt 0
 109              	#APP
 110              	# 37 "src/syscall_c.cpp" 1
  38              	    __asm__ volatile("mv a3, %0" : : "r" (arg));
 111              		mv a4, a0
 112              	# 0 "" 2
 113              		.loc 1 38 5 is_stmt 1
 114              		.loc 1 38 48 is_stmt 0
 115              	# 38 "src/syscall_c.cpp" 1
  39              	    __asm__ volatile("mv a2, %0" : : "r" (start_routine));
 116              		mv a3, s3
 117              	# 0 "" 2
 118              		.loc 1 39 5 is_stmt 1
 119              		.loc 1 39 58 is_stmt 0
 120              	# 39 "src/syscall_c.cpp" 1
  40              	    __asm__ volatile("mv a1, %0" : : "r" (handle));
 121              		mv a2, s2
 122              	# 0 "" 2
 123              		.loc 1 40 5 is_stmt 1
 124              		.loc 1 40 51 is_stmt 0
 125              	# 40 "src/syscall_c.cpp" 1
  41              	    __asm__ volatile("mv a0, %0" : : "r" (THREAD_CREATE));
 126              		mv a1, s1
 127              	# 0 "" 2
 128              		.loc 1 41 5 is_stmt 1
 129              		.loc 1 41 58 is_stmt 0
 130              	#NO_APP
 131 0098 9307B000 		li	a5,11
 132              	#APP
GAS LISTING /tmp/ccNEdkrL.s 			page 4


 133              	# 41 "src/syscall_c.cpp" 1
  42              	    __asm__ volatile("mv a5, %0" : : "r" (ret));
 134              		mv a0, a5
 135              	# 0 "" 2
 136              		.loc 1 42 5 is_stmt 1
 137              		.loc 1 42 48 is_stmt 0
 138              	#NO_APP
 139 00a0 9307C4FC 		addi	a5,s0,-52
 140              	.LVL8:
 141              	#APP
 142              	# 42 "src/syscall_c.cpp" 1
  43              	    __asm__ volatile ("ecall");
 143              		mv a5, a5
 144              	# 0 "" 2
 145              		.loc 1 43 5 is_stmt 1
 146              		.loc 1 43 31 is_stmt 0
 147              	# 43 "src/syscall_c.cpp" 1
  44              	
  45:src/syscall_c.cpp ****     return *ret;
 148              		ecall
 149              	# 0 "" 2
 150              		.loc 1 45 5 is_stmt 1
  46:src/syscall_c.cpp **** }
 151              		.loc 1 46 1 is_stmt 0
 152              	#NO_APP
 153 00ac 0325C4FC 		lw	a0,-52(s0)
 154              	.LVL9:
 155 00b0 83308103 		ld	ra,56(sp)
 156              		.cfi_restore 1
 157 00b4 03340103 		ld	s0,48(sp)
 158              		.cfi_restore 8
 159              		.cfi_def_cfa 2, 64
 160 00b8 83348102 		ld	s1,40(sp)
 161              		.cfi_restore 9
 162              	.LVL10:
 163 00bc 03390102 		ld	s2,32(sp)
 164              		.cfi_restore 18
 165              	.LVL11:
 166 00c0 83398101 		ld	s3,24(sp)
 167              		.cfi_restore 19
 168              	.LVL12:
 169 00c4 13010104 		addi	sp,sp,64
 170              		.cfi_def_cfa_offset 0
 171 00c8 67800000 		jr	ra
 172              		.cfi_endproc
 173              	.LFE62:
 175              		.align	2
 176              		.globl	_Z11thread_exitv
 178              	_Z11thread_exitv:
 179              	.LFB63:
  47:src/syscall_c.cpp **** 
  48:src/syscall_c.cpp **** int thread_exit () {
 180              		.loc 1 48 20 is_stmt 1
 181              		.cfi_startproc
 182 00cc 130101FF 		addi	sp,sp,-16
 183              		.cfi_def_cfa_offset 16
 184 00d0 23348100 		sd	s0,8(sp)
GAS LISTING /tmp/ccNEdkrL.s 			page 5


 185              		.cfi_offset 8, -8
 186 00d4 13040101 		addi	s0,sp,16
 187              		.cfi_def_cfa 8, 0
  49:src/syscall_c.cpp ****     if (TCB::running->getMain()) {
 188              		.loc 1 49 5
 189              		.loc 1 49 30 is_stmt 0
 190 00d8 97070000 		la	a5,_ZN3TCB7runningE
 190      83B70700 
 191 00e0 83B70700 		ld	a5,0(a5)
 192              	.LVL13:
 193              	.LBB4:
 194              	.LBB5:
 195              		.file 2 "src/../h/tcb.hpp"
   1:src/../h/tcb.hpp **** #ifndef OS1_VEZBE07_RISCV_CONTEXT_SWITCH_2_INTERRUPT_TCB_HPP
   2:src/../h/tcb.hpp **** #define OS1_VEZBE07_RISCV_CONTEXT_SWITCH_2_INTERRUPT_TCB_HPP
   3:src/../h/tcb.hpp **** 
   4:src/../h/tcb.hpp **** #include "../lib/hw.h"
   5:src/../h/tcb.hpp **** #include "scheduler.hpp"
   6:src/../h/tcb.hpp **** #include "../h/syscall_cpp.hpp"
   7:src/../h/tcb.hpp **** #include "../h/print.hpp"
   8:src/../h/tcb.hpp **** 
   9:src/../h/tcb.hpp **** // Thread Control Block
  10:src/../h/tcb.hpp **** class TCB
  11:src/../h/tcb.hpp **** {
  12:src/../h/tcb.hpp **** public:
  13:src/../h/tcb.hpp ****     virtual ~TCB() {
  14:src/../h/tcb.hpp ****         delete[] stack;
  15:src/../h/tcb.hpp ****     }
  16:src/../h/tcb.hpp **** 
  17:src/../h/tcb.hpp ****     static void outputThreadBody(void*);
  18:src/../h/tcb.hpp **** 
  19:src/../h/tcb.hpp ****     bool isFinished() const { return finished; }
  20:src/../h/tcb.hpp ****     void setFinished(bool value) { finished = value; }
  21:src/../h/tcb.hpp **** 
  22:src/../h/tcb.hpp ****     bool isSleeping() const { return sleeping; }
  23:src/../h/tcb.hpp ****     void setSleeping(bool value) { sleeping = value; }
  24:src/../h/tcb.hpp **** 
  25:src/../h/tcb.hpp ****     bool isBlocked() const { return blocked; }
  26:src/../h/tcb.hpp ****     void setBlocked(bool value) { blocked = value; }
  27:src/../h/tcb.hpp **** 
  28:src/../h/tcb.hpp ****     bool getMain() const { return main; }
 196              		.loc 2 28 28 is_stmt 1
 197              		.loc 2 28 35 is_stmt 0
 198 00e4 83C7F703 		lbu	a5,63(a5)
 199              	.LVL14:
 200              	.LBE5:
 201              	.LBE4:
 202              		.loc 1 49 5
 203 00e8 63900702 		bnez	a5,.L9
  50:src/syscall_c.cpp ****         return -1;
  51:src/syscall_c.cpp ****     }
  52:src/syscall_c.cpp ****     __asm__ volatile("mv a0, %0" : : "r" (THREAD_EXIT));
 204              		.loc 1 52 5 is_stmt 1
 205              		.loc 1 52 56 is_stmt 0
 206 00ec 9307C000 		li	a5,12
 207              	#APP
 208              	# 52 "src/syscall_c.cpp" 1
GAS LISTING /tmp/ccNEdkrL.s 			page 6


  53              	    __asm__ volatile ("ecall");
 209              		mv a0, a5
 210              	# 0 "" 2
 211              		.loc 1 53 5 is_stmt 1
 212              		.loc 1 53 31 is_stmt 0
 213              	# 53 "src/syscall_c.cpp" 1
  54              	    return 0;
 214              		ecall
 215              	# 0 "" 2
 216              		.loc 1 54 5 is_stmt 1
 217              		.loc 1 54 12 is_stmt 0
 218              	#NO_APP
 219 00f8 13050000 		li	a0,0
 220              	.L8:
  55:src/syscall_c.cpp **** }
 221              		.loc 1 55 1
 222 00fc 03348100 		ld	s0,8(sp)
 223              		.cfi_remember_state
 224              		.cfi_restore 8
 225              		.cfi_def_cfa 2, 16
 226 0100 13010101 		addi	sp,sp,16
 227              		.cfi_def_cfa_offset 0
 228 0104 67800000 		jr	ra
 229              	.L9:
 230              		.cfi_restore_state
  50:src/syscall_c.cpp ****         return -1;
 231              		.loc 1 50 17
 232 0108 1305F0FF 		li	a0,-1
 233 010c 6FF01FFF 		j	.L8
 234              		.cfi_endproc
 235              	.LFE63:
 237              		.align	2
 238              		.globl	_Z15thread_dispatchv
 240              	_Z15thread_dispatchv:
 241              	.LFB64:
  56:src/syscall_c.cpp **** 
  57:src/syscall_c.cpp **** void thread_dispatch () {
 242              		.loc 1 57 25 is_stmt 1
 243              		.cfi_startproc
 244 0110 130101FF 		addi	sp,sp,-16
 245              		.cfi_def_cfa_offset 16
 246 0114 23348100 		sd	s0,8(sp)
 247              		.cfi_offset 8, -8
 248 0118 13040101 		addi	s0,sp,16
 249              		.cfi_def_cfa 8, 0
  58:src/syscall_c.cpp ****     __asm__ volatile("mv a0, %0" : : "r" (THREAD_DISPATCH));
 250              		.loc 1 58 5
 251              		.loc 1 58 60 is_stmt 0
 252 011c 9307D000 		li	a5,13
 253              	#APP
 254              	# 58 "src/syscall_c.cpp" 1
  59              	    __asm__ volatile ("ecall");
 255              		mv a0, a5
 256              	# 0 "" 2
 257              		.loc 1 59 5 is_stmt 1
 258              		.loc 1 59 31 is_stmt 0
 259              	# 59 "src/syscall_c.cpp" 1
GAS LISTING /tmp/ccNEdkrL.s 			page 7


  60              	}
 260              		ecall
 261              	# 0 "" 2
 262              		.loc 1 60 1
 263              	#NO_APP
 264 0128 03348100 		ld	s0,8(sp)
 265              		.cfi_restore 8
 266              		.cfi_def_cfa 2, 16
 267 012c 13010101 		addi	sp,sp,16
 268              		.cfi_def_cfa_offset 0
 269 0130 67800000 		jr	ra
 270              		.cfi_endproc
 271              	.LFE64:
 273              		.align	2
 274              		.globl	_Z8sem_openPP4_semj
 276              	_Z8sem_openPP4_semj:
 277              	.LFB65:
  61:src/syscall_c.cpp **** 
  62:src/syscall_c.cpp **** int sem_open (sem_t* handle, unsigned init) {
 278              		.loc 1 62 45 is_stmt 1
 279              		.cfi_startproc
 280              	.LVL15:
 281 0134 130101FE 		addi	sp,sp,-32
 282              		.cfi_def_cfa_offset 32
 283 0138 233C8100 		sd	s0,24(sp)
 284              		.cfi_offset 8, -8
 285 013c 13040102 		addi	s0,sp,32
 286              		.cfi_def_cfa 8, 0
  63:src/syscall_c.cpp **** 
  64:src/syscall_c.cpp ****     int x = 0;
 287              		.loc 1 64 5
 288              		.loc 1 64 9 is_stmt 0
 289 0140 232604FE 		sw	zero,-20(s0)
  65:src/syscall_c.cpp ****     int *ret = &x;
 290              		.loc 1 65 5 is_stmt 1
 291              	.LVL16:
  66:src/syscall_c.cpp **** 
  67:src/syscall_c.cpp ****     __asm__ volatile("mv a2, %0" : : "r" (init));
 292              		.loc 1 67 5
 293              		.loc 1 67 49 is_stmt 0
 294              	#APP
 295              	# 67 "src/syscall_c.cpp" 1
  68              	    __asm__ volatile("mv a1, %0" : : "r" (handle));
 296              		mv a2, a1
 297              	# 0 "" 2
 298              		.loc 1 68 5 is_stmt 1
 299              		.loc 1 68 51 is_stmt 0
 300              	# 68 "src/syscall_c.cpp" 1
  69              	    __asm__ volatile("mv a0, %0" : : "r" (SEM_OPEN));
 301              		mv a1, a0
 302              	# 0 "" 2
 303              		.loc 1 69 5 is_stmt 1
 304              		.loc 1 69 53 is_stmt 0
 305              	#NO_APP
 306 014c 93075001 		li	a5,21
 307              	#APP
 308              	# 69 "src/syscall_c.cpp" 1
GAS LISTING /tmp/ccNEdkrL.s 			page 8


  70              	    __asm__ volatile("mv a3, %0" : : "r" (ret));
 309              		mv a0, a5
 310              	# 0 "" 2
 311              		.loc 1 70 5 is_stmt 1
 312              		.loc 1 70 48 is_stmt 0
 313              	#NO_APP
 314 0154 9307C4FE 		addi	a5,s0,-20
 315              	.LVL17:
 316              	#APP
 317              	# 70 "src/syscall_c.cpp" 1
  71              	    __asm__ volatile ("ecall");
 318              		mv a3, a5
 319              	# 0 "" 2
 320              		.loc 1 71 5 is_stmt 1
 321              		.loc 1 71 31 is_stmt 0
 322              	# 71 "src/syscall_c.cpp" 1
  72              	    return *ret;
 323              		ecall
 324              	# 0 "" 2
 325              		.loc 1 72 5 is_stmt 1
  73:src/syscall_c.cpp **** }
 326              		.loc 1 73 1 is_stmt 0
 327              	#NO_APP
 328 0160 0325C4FE 		lw	a0,-20(s0)
 329              	.LVL18:
 330 0164 03348101 		ld	s0,24(sp)
 331              		.cfi_restore 8
 332              		.cfi_def_cfa 2, 32
 333 0168 13010102 		addi	sp,sp,32
 334              		.cfi_def_cfa_offset 0
 335 016c 67800000 		jr	ra
 336              		.cfi_endproc
 337              	.LFE65:
 339              		.align	2
 340              		.globl	_Z9sem_closeP4_sem
 342              	_Z9sem_closeP4_sem:
 343              	.LFB66:
  74:src/syscall_c.cpp **** 
  75:src/syscall_c.cpp **** int sem_close (sem_t handle) {
 344              		.loc 1 75 30 is_stmt 1
 345              		.cfi_startproc
 346              	.LVL19:
  76:src/syscall_c.cpp ****     if (handle == nullptr) {
 347              		.loc 1 76 5
 348 0170 630E0502 		beqz	a0,.L17
  75:src/syscall_c.cpp ****     if (handle == nullptr) {
 349              		.loc 1 75 30 is_stmt 0
 350 0174 130101FE 		addi	sp,sp,-32
 351              		.cfi_def_cfa_offset 32
 352 0178 233C8100 		sd	s0,24(sp)
 353              		.cfi_offset 8, -8
 354 017c 13040102 		addi	s0,sp,32
 355              		.cfi_def_cfa 8, 0
  77:src/syscall_c.cpp ****         return -1;
  78:src/syscall_c.cpp ****     }
  79:src/syscall_c.cpp **** 
  80:src/syscall_c.cpp ****     int x = 0;
GAS LISTING /tmp/ccNEdkrL.s 			page 9


 356              		.loc 1 80 5 is_stmt 1
 357              		.loc 1 80 9 is_stmt 0
 358 0180 232604FE 		sw	zero,-20(s0)
  81:src/syscall_c.cpp ****     int *ret = &x;
 359              		.loc 1 81 5 is_stmt 1
 360              	.LVL20:
  82:src/syscall_c.cpp **** 
  83:src/syscall_c.cpp ****     __asm__ volatile("mv a1, %0" : : "r" (handle));
 361              		.loc 1 83 5
 362              		.loc 1 83 51 is_stmt 0
 363              	#APP
 364              	# 83 "src/syscall_c.cpp" 1
  84              	    __asm__ volatile("mv a0, %0" : : "r" (SEM_CLOSE));
 365              		mv a1, a0
 366              	# 0 "" 2
 367              		.loc 1 84 5 is_stmt 1
 368              		.loc 1 84 54 is_stmt 0
 369              	#NO_APP
 370 0188 93076001 		li	a5,22
 371              	#APP
 372              	# 84 "src/syscall_c.cpp" 1
  85              	    __asm__ volatile("mv a2, %0" : : "r" (ret));
 373              		mv a0, a5
 374              	# 0 "" 2
 375              		.loc 1 85 5 is_stmt 1
 376              		.loc 1 85 48 is_stmt 0
 377              	#NO_APP
 378 0190 9307C4FE 		addi	a5,s0,-20
 379              	.LVL21:
 380              	#APP
 381              	# 85 "src/syscall_c.cpp" 1
  86              	    __asm__ volatile ("ecall");
 382              		mv a2, a5
 383              	# 0 "" 2
 384              		.loc 1 86 5 is_stmt 1
 385              		.loc 1 86 31 is_stmt 0
 386              	# 86 "src/syscall_c.cpp" 1
  87              	    return *ret;
 387              		ecall
 388              	# 0 "" 2
 389              		.loc 1 87 5 is_stmt 1
 390              		.loc 1 87 13 is_stmt 0
 391              	#NO_APP
 392 019c 0325C4FE 		lw	a0,-20(s0)
 393              	.LVL22:
  88:src/syscall_c.cpp **** }
 394              		.loc 1 88 1
 395 01a0 03348101 		ld	s0,24(sp)
 396              		.cfi_restore 8
 397              		.cfi_def_cfa 2, 32
 398 01a4 13010102 		addi	sp,sp,32
 399              		.cfi_def_cfa_offset 0
 400 01a8 67800000 		jr	ra
 401              	.LVL23:
 402              	.L17:
  77:src/syscall_c.cpp ****     }
 403              		.loc 1 77 17
GAS LISTING /tmp/ccNEdkrL.s 			page 10


 404 01ac 1305F0FF 		li	a0,-1
 405              	.LVL24:
 406              		.loc 1 88 1
 407 01b0 67800000 		ret
 408              		.cfi_endproc
 409              	.LFE66:
 411              		.align	2
 412              		.globl	_Z8sem_waitP4_sem
 414              	_Z8sem_waitP4_sem:
 415              	.LFB67:
  89:src/syscall_c.cpp **** 
  90:src/syscall_c.cpp **** int sem_wait (sem_t id) {
 416              		.loc 1 90 25 is_stmt 1
 417              		.cfi_startproc
 418              	.LVL25:
  91:src/syscall_c.cpp ****     if (id == nullptr) {
 419              		.loc 1 91 5
 420 01b4 630E0502 		beqz	a0,.L24
  90:src/syscall_c.cpp ****     if (id == nullptr) {
 421              		.loc 1 90 25 is_stmt 0
 422 01b8 130101FE 		addi	sp,sp,-32
 423              		.cfi_def_cfa_offset 32
 424 01bc 233C8100 		sd	s0,24(sp)
 425              		.cfi_offset 8, -8
 426 01c0 13040102 		addi	s0,sp,32
 427              		.cfi_def_cfa 8, 0
  92:src/syscall_c.cpp ****         return -1;
  93:src/syscall_c.cpp ****     }
  94:src/syscall_c.cpp **** 
  95:src/syscall_c.cpp ****     int x = 0;
 428              		.loc 1 95 5 is_stmt 1
 429              		.loc 1 95 9 is_stmt 0
 430 01c4 232604FE 		sw	zero,-20(s0)
  96:src/syscall_c.cpp ****     int *ret = &x;
 431              		.loc 1 96 5 is_stmt 1
 432              	.LVL26:
  97:src/syscall_c.cpp **** 
  98:src/syscall_c.cpp ****     __asm__ volatile("mv a1, %0" : : "r" (id));
 433              		.loc 1 98 5
 434              		.loc 1 98 47 is_stmt 0
 435              	#APP
 436              	# 98 "src/syscall_c.cpp" 1
  99              	    __asm__ volatile("mv a0, %0" : : "r" (SEM_WAIT));
 437              		mv a1, a0
 438              	# 0 "" 2
 439              		.loc 1 99 5 is_stmt 1
 440              		.loc 1 99 53 is_stmt 0
 441              	#NO_APP
 442 01cc 93077001 		li	a5,23
 443              	#APP
 444              	# 99 "src/syscall_c.cpp" 1
 100              	    __asm__ volatile("mv a2, %0" : : "r" (ret));
 445              		mv a0, a5
 446              	# 0 "" 2
 447              		.loc 1 100 5 is_stmt 1
 448              		.loc 1 100 48 is_stmt 0
 449              	#NO_APP
GAS LISTING /tmp/ccNEdkrL.s 			page 11


 450 01d4 9307C4FE 		addi	a5,s0,-20
 451              	.LVL27:
 452              	#APP
 453              	# 100 "src/syscall_c.cpp" 1
 101              	    __asm__ volatile ("ecall");
 454              		mv a2, a5
 455              	# 0 "" 2
 456              		.loc 1 101 5 is_stmt 1
 457              		.loc 1 101 31 is_stmt 0
 458              	# 101 "src/syscall_c.cpp" 1
 102              	    return *ret;
 459              		ecall
 460              	# 0 "" 2
 461              		.loc 1 102 5 is_stmt 1
 462              		.loc 1 102 13 is_stmt 0
 463              	#NO_APP
 464 01e0 0325C4FE 		lw	a0,-20(s0)
 465              	.LVL28:
 103:src/syscall_c.cpp **** }
 466              		.loc 1 103 1
 467 01e4 03348101 		ld	s0,24(sp)
 468              		.cfi_restore 8
 469              		.cfi_def_cfa 2, 32
 470 01e8 13010102 		addi	sp,sp,32
 471              		.cfi_def_cfa_offset 0
 472 01ec 67800000 		jr	ra
 473              	.LVL29:
 474              	.L24:
  92:src/syscall_c.cpp ****     }
 475              		.loc 1 92 17
 476 01f0 1305F0FF 		li	a0,-1
 477              	.LVL30:
 478              		.loc 1 103 1
 479 01f4 67800000 		ret
 480              		.cfi_endproc
 481              	.LFE67:
 483              		.align	2
 484              		.globl	_Z10sem_signalP4_sem
 486              	_Z10sem_signalP4_sem:
 487              	.LFB68:
 104:src/syscall_c.cpp **** 
 105:src/syscall_c.cpp **** int sem_signal (sem_t id) {
 488              		.loc 1 105 27 is_stmt 1
 489              		.cfi_startproc
 490              	.LVL31:
 106:src/syscall_c.cpp ****     if (id == nullptr) {
 491              		.loc 1 106 5
 492 01f8 630E0502 		beqz	a0,.L31
 105:src/syscall_c.cpp ****     if (id == nullptr) {
 493              		.loc 1 105 27 is_stmt 0
 494 01fc 130101FE 		addi	sp,sp,-32
 495              		.cfi_def_cfa_offset 32
 496 0200 233C8100 		sd	s0,24(sp)
 497              		.cfi_offset 8, -8
 498 0204 13040102 		addi	s0,sp,32
 499              		.cfi_def_cfa 8, 0
 107:src/syscall_c.cpp ****         return -1;
GAS LISTING /tmp/ccNEdkrL.s 			page 12


 108:src/syscall_c.cpp ****     }
 109:src/syscall_c.cpp **** 
 110:src/syscall_c.cpp ****     int x = 0;
 500              		.loc 1 110 5 is_stmt 1
 501              		.loc 1 110 9 is_stmt 0
 502 0208 232604FE 		sw	zero,-20(s0)
 111:src/syscall_c.cpp ****     int *ret = &x;
 503              		.loc 1 111 5 is_stmt 1
 504              	.LVL32:
 112:src/syscall_c.cpp **** 
 113:src/syscall_c.cpp ****     __asm__ volatile("mv a1, %0" : : "r" (id));
 505              		.loc 1 113 5
 506              		.loc 1 113 47 is_stmt 0
 507              	#APP
 508              	# 113 "src/syscall_c.cpp" 1
 114              	    __asm__ volatile("mv a0, %0" : : "r" (SEM_SIGNAL));
 509              		mv a1, a0
 510              	# 0 "" 2
 511              		.loc 1 114 5 is_stmt 1
 512              		.loc 1 114 55 is_stmt 0
 513              	#NO_APP
 514 0210 93078001 		li	a5,24
 515              	#APP
 516              	# 114 "src/syscall_c.cpp" 1
 115              	    __asm__ volatile("mv a2, %0" : : "r" (ret));
 517              		mv a0, a5
 518              	# 0 "" 2
 519              		.loc 1 115 5 is_stmt 1
 520              		.loc 1 115 48 is_stmt 0
 521              	#NO_APP
 522 0218 9307C4FE 		addi	a5,s0,-20
 523              	.LVL33:
 524              	#APP
 525              	# 115 "src/syscall_c.cpp" 1
 116              	    __asm__ volatile ("ecall");
 526              		mv a2, a5
 527              	# 0 "" 2
 528              		.loc 1 116 5 is_stmt 1
 529              		.loc 1 116 31 is_stmt 0
 530              	# 116 "src/syscall_c.cpp" 1
 117              	    return *ret;
 531              		ecall
 532              	# 0 "" 2
 533              		.loc 1 117 5 is_stmt 1
 534              		.loc 1 117 13 is_stmt 0
 535              	#NO_APP
 536 0224 0325C4FE 		lw	a0,-20(s0)
 537              	.LVL34:
 118:src/syscall_c.cpp **** }
 538              		.loc 1 118 1
 539 0228 03348101 		ld	s0,24(sp)
 540              		.cfi_restore 8
 541              		.cfi_def_cfa 2, 32
 542 022c 13010102 		addi	sp,sp,32
 543              		.cfi_def_cfa_offset 0
 544 0230 67800000 		jr	ra
 545              	.LVL35:
GAS LISTING /tmp/ccNEdkrL.s 			page 13


 546              	.L31:
 107:src/syscall_c.cpp ****     }
 547              		.loc 1 107 17
 548 0234 1305F0FF 		li	a0,-1
 549              	.LVL36:
 550              		.loc 1 118 1
 551 0238 67800000 		ret
 552              		.cfi_endproc
 553              	.LFE68:
 555              		.align	2
 556              		.globl	_Z10time_sleepm
 558              	_Z10time_sleepm:
 559              	.LFB69:
 119:src/syscall_c.cpp **** 
 120:src/syscall_c.cpp **** int time_sleep (time_t slice) {
 560              		.loc 1 120 31 is_stmt 1
 561              		.cfi_startproc
 562              	.LVL37:
 563 023c 130101FF 		addi	sp,sp,-16
 564              		.cfi_def_cfa_offset 16
 565 0240 23348100 		sd	s0,8(sp)
 566              		.cfi_offset 8, -8
 567 0244 13040101 		addi	s0,sp,16
 568              		.cfi_def_cfa 8, 0
 121:src/syscall_c.cpp ****     __asm__ volatile("mv a1, %0" : : "r" (slice));
 569              		.loc 1 121 5
 570              		.loc 1 121 50 is_stmt 0
 571              	#APP
 572              	# 121 "src/syscall_c.cpp" 1
 122              	    __asm__ volatile("mv a0, %0" : : "r" (TIME_SLEEP));
 573              		mv a1, a0
 574              	# 0 "" 2
 575              		.loc 1 122 5 is_stmt 1
 576              		.loc 1 122 55 is_stmt 0
 577              	#NO_APP
 578 024c 9307F001 		li	a5,31
 579              	#APP
 580              	# 122 "src/syscall_c.cpp" 1
 123              	    __asm__ volatile ("ecall");
 581              		mv a0, a5
 582              	# 0 "" 2
 583              		.loc 1 123 5 is_stmt 1
 584              		.loc 1 123 31 is_stmt 0
 585              	# 123 "src/syscall_c.cpp" 1
 124              	    return 0;
 586              		ecall
 587              	# 0 "" 2
 588              		.loc 1 124 5 is_stmt 1
 125:src/syscall_c.cpp **** }
 589              		.loc 1 125 1 is_stmt 0
 590              	#NO_APP
 591 0258 13050000 		li	a0,0
 592              	.LVL38:
 593 025c 03348100 		ld	s0,8(sp)
 594              		.cfi_restore 8
 595              		.cfi_def_cfa 2, 16
 596 0260 13010101 		addi	sp,sp,16
GAS LISTING /tmp/ccNEdkrL.s 			page 14


 597              		.cfi_def_cfa_offset 0
 598 0264 67800000 		jr	ra
 599              		.cfi_endproc
 600              	.LFE69:
 602              		.align	2
 603              		.globl	_Z4getcv
 605              	_Z4getcv:
 606              	.LFB70:
 126:src/syscall_c.cpp **** 
 127:src/syscall_c.cpp **** char getc () {
 607              		.loc 1 127 14 is_stmt 1
 608              		.cfi_startproc
 609 0268 130101FE 		addi	sp,sp,-32
 610              		.cfi_def_cfa_offset 32
 611 026c 233C8100 		sd	s0,24(sp)
 612              		.cfi_offset 8, -8
 613 0270 13040102 		addi	s0,sp,32
 614              		.cfi_def_cfa 8, 0
 128:src/syscall_c.cpp ****     __asm__ volatile("mv a0, %0" : : "r" (GET_C));
 615              		.loc 1 128 5
 616              		.loc 1 128 50 is_stmt 0
 617 0274 93079002 		li	a5,41
 618              	#APP
 619              	# 128 "src/syscall_c.cpp" 1
 129              	    char c = 's';
 620              		mv a0, a5
 621              	# 0 "" 2
 622              		.loc 1 129 5 is_stmt 1
 623              		.loc 1 129 10 is_stmt 0
 624              	#NO_APP
 625 027c 93073007 		li	a5,115
 626 0280 A307F4FE 		sb	a5,-17(s0)
 130:src/syscall_c.cpp ****     char* ret = &c;
 627              		.loc 1 130 5 is_stmt 1
 628              	.LVL39:
 131:src/syscall_c.cpp ****     __asm__ volatile("mv a1, %0" : : "r" (ret));
 629              		.loc 1 131 5
 630              		.loc 1 131 48 is_stmt 0
 631 0284 9307F4FE 		addi	a5,s0,-17
 632              	.LVL40:
 633              	#APP
 634              	# 131 "src/syscall_c.cpp" 1
 132              	    __asm__ volatile ("ecall");
 635              		mv a1, a5
 636              	# 0 "" 2
 637              		.loc 1 132 5 is_stmt 1
 638              		.loc 1 132 31 is_stmt 0
 639              	# 132 "src/syscall_c.cpp" 1
 133              	
 134:src/syscall_c.cpp ****     if (ret != nullptr)
 640              		ecall
 641              	# 0 "" 2
 642              		.loc 1 134 5 is_stmt 1
 135:src/syscall_c.cpp ****         return *ret;
 643              		.loc 1 135 9
 136:src/syscall_c.cpp ****     else {
 137:src/syscall_c.cpp ****         return ' ';
GAS LISTING /tmp/ccNEdkrL.s 			page 15


 138:src/syscall_c.cpp ****     }
 139:src/syscall_c.cpp **** }
 644              		.loc 1 139 1 is_stmt 0
 645              	#NO_APP
 646 0290 0345F4FE 		lbu	a0,-17(s0)
 647 0294 03348101 		ld	s0,24(sp)
 648              		.cfi_restore 8
 649              		.cfi_def_cfa 2, 32
 650 0298 13010102 		addi	sp,sp,32
 651              		.cfi_def_cfa_offset 0
 652 029c 67800000 		jr	ra
 653              		.cfi_endproc
 654              	.LFE70:
 656              		.align	2
 657              		.globl	_Z4putcc
 659              	_Z4putcc:
 660              	.LFB71:
 140:src/syscall_c.cpp **** 
 141:src/syscall_c.cpp **** void putc (char c){
 661              		.loc 1 141 19 is_stmt 1
 662              		.cfi_startproc
 663              	.LVL41:
 664 02a0 130101FF 		addi	sp,sp,-16
 665              		.cfi_def_cfa_offset 16
 666 02a4 23348100 		sd	s0,8(sp)
 667              		.cfi_offset 8, -8
 668 02a8 13040101 		addi	s0,sp,16
 669              		.cfi_def_cfa 8, 0
 142:src/syscall_c.cpp ****     __asm__ volatile("mv a1, %0" : : "r" (c));
 670              		.loc 1 142 5
 671              		.loc 1 142 46 is_stmt 0
 672              	#APP
 673              	# 142 "src/syscall_c.cpp" 1
 143              	    __asm__ volatile("mv a0, %0" : : "r" (PUT_C));
 674              		mv a1, a0
 675              	# 0 "" 2
 676              		.loc 1 143 5 is_stmt 1
 677              		.loc 1 143 50 is_stmt 0
 678              	#NO_APP
 679 02b0 9307A002 		li	a5,42
 680              	#APP
 681              	# 143 "src/syscall_c.cpp" 1
 144              	    __asm__ volatile ("ecall");
 682              		mv a0, a5
 683              	# 0 "" 2
 684              		.loc 1 144 5 is_stmt 1
 685              		.loc 1 144 31 is_stmt 0
 686              	# 144 "src/syscall_c.cpp" 1
 145              	}...
 687              		ecall
 688              	# 0 "" 2
 689              		.loc 1 145 1
 690              	#NO_APP
 691 02bc 03348100 		ld	s0,8(sp)
 692              		.cfi_restore 8
 693              		.cfi_def_cfa 2, 16
 694 02c0 13010101 		addi	sp,sp,16
GAS LISTING /tmp/ccNEdkrL.s 			page 16


 695              		.cfi_def_cfa_offset 0
 696 02c4 67800000 		jr	ra
 697              		.cfi_endproc
 698              	.LFE71:
 700              	.Letext0:
 701              		.file 3 "src/../h/../lib/hw.h"
 702              		.file 4 "src/../h/syscall_c.h"
 703              		.file 5 "src/../h/../h/_sem.hpp"
 704              		.file 6 "src/../h/list.hpp"
 705              		.file 7 "src/../h/codes.hpp"
 706              		.file 8 "src/../lib/mem.h"
GAS LISTING /tmp/ccNEdkrL.s 			page 17

