GAS LISTING /tmp/ccNEdkrL.s 			page 1


   1              		.file	"syscall_c.cpp"
   2              		.option pic
   3              		.option norelax
   4              		.text
   5              	.Ltext0:
   6              		.align	2
   7              		.globl	_Z9mem_allocm
   9              	_Z9mem_allocm:
  10              	.LFB60:
  11              		.file 1 "src/syscall_c.cpp"
   1:src/syscall_c.cpp **** #include "../h/syscall_c.h"
   2:src/syscall_c.cpp **** #include "../lib/mem.h"
   3:src/syscall_c.cpp **** #include "../h/tcb.hpp"
   4:src/syscall_c.cpp **** #include "../h/codes.hpp"
   5:src/syscall_c.cpp **** #include "../h/riscv.hpp"
   6:src/syscall_c.cpp **** 
   7:src/syscall_c.cpp **** void* mem_alloc (size_t size) {
  12              		.loc 1 7 31
  13              		.cfi_startproc
  14              	.LVL0:
  15 0000 130101FF 		addi	sp,sp,-16
  16              		.cfi_def_cfa_offset 16
  17 0004 23341100 		sd	ra,8(sp)
  18 0008 23308100 		sd	s0,0(sp)
  19              		.cfi_offset 1, -8
  20              		.cfi_offset 8, -16
  21 000c 13040101 		addi	s0,sp,16
  22              		.cfi_def_cfa 8, 0
   8:src/syscall_c.cpp **** //    char c = 'k';
   9:src/syscall_c.cpp **** //    void* ret = &c;
  10:src/syscall_c.cpp **** //    size_t brojBlokova;
  11:src/syscall_c.cpp **** //    if (size % MEM_BLOCK_SIZE == 0) {
  12:src/syscall_c.cpp **** //        brojBlokova = size/MEM_BLOCK_SIZE;
  13:src/syscall_c.cpp **** //    } else {
  14:src/syscall_c.cpp **** //        brojBlokova = size/MEM_BLOCK_SIZE + 1;
  15:src/syscall_c.cpp **** //    }
  16:src/syscall_c.cpp **** //    __asm__ volatile("mv a2, %0" : : "r" (ret));
  17:src/syscall_c.cpp **** //    __asm__ volatile("mv a1, %0" : : "r" (brojBlokova));
  18:src/syscall_c.cpp **** //    __asm__ volatile("mv a0, %0" : : "r" (MEM_ALLOC));
  19:src/syscall_c.cpp **** //    __asm__ volatile ("ecall");
  20:src/syscall_c.cpp **** //
  21:src/syscall_c.cpp **** //    return ret;     ne znam zasto je optimized out, uvek vrati null;
  22:src/syscall_c.cpp **** 
  23:src/syscall_c.cpp ****     return __mem_alloc(size);
  23              		.loc 1 23 5
  24              		.loc 1 23 23 is_stmt 0
  25 0010 97000000 		call	__mem_alloc@plt
  25      E7800000 
  26              	.LVL1:
  24:src/syscall_c.cpp **** }
  27              		.loc 1 24 1
  28 0018 83308100 		ld	ra,8(sp)
  29              		.cfi_restore 1
  30 001c 03340100 		ld	s0,0(sp)
  31              		.cfi_restore 8
  32              		.cfi_def_cfa 2, 16
  33 0020 13010101 		addi	sp,sp,16
GAS LISTING /tmp/ccNEdkrL.s 			page 2


  34              		.cfi_def_cfa_offset 0
  35 0024 67800000 		jr	ra
  36              		.cfi_endproc
  37              	.LFE60:
  39              		.align	2
  40              		.globl	_Z8mem_freePv
  42              	_Z8mem_freePv:
  43              	.LFB61:
  25:src/syscall_c.cpp **** 
  26:src/syscall_c.cpp **** int mem_free (void* v) {
  44              		.loc 1 26 24 is_stmt 1
  45              		.cfi_startproc
  46              	.LVL2:
  47 0028 130101FF 		addi	sp,sp,-16
  48              		.cfi_def_cfa_offset 16
  49 002c 23341100 		sd	ra,8(sp)
  50 0030 23308100 		sd	s0,0(sp)
  51              		.cfi_offset 1, -8
  52              		.cfi_offset 8, -16
  53 0034 13040101 		addi	s0,sp,16
  54              		.cfi_def_cfa 8, 0
  27:src/syscall_c.cpp ****     return __mem_free(v);
  55              		.loc 1 27 5
  56              		.loc 1 27 22 is_stmt 0
  57 0038 97000000 		call	__mem_free@plt
  57      E7800000 
  58              	.LVL3:
  28:src/syscall_c.cpp **** }
  59              		.loc 1 28 1
  60 0040 83308100 		ld	ra,8(sp)
  61              		.cfi_restore 1
  62 0044 03340100 		ld	s0,0(sp)
  63              		.cfi_restore 8
  64              		.cfi_def_cfa 2, 16
  65 0048 13010101 		addi	sp,sp,16
  66              		.cfi_def_cfa_offset 0
  67 004c 67800000 		jr	ra
  68              		.cfi_endproc
  69              	.LFE61:
  71              		.align	2
  72              		.globl	_Z13thread_createPP3TCBPFvPvES2_
  74              	_Z13thread_createPP3TCBPFvPvES2_:
  75              	.LFB62:
  29:src/syscall_c.cpp **** 
  30:src/syscall_c.cpp **** 
  31:src/syscall_c.cpp **** int thread_create (thread_t* handle, void(*start_routine)(void*), void* arg) {
  76              		.loc 1 31 78 is_stmt 1
  77              		.cfi_startproc
  78              	.LVL4:
  79 0050 130101FC 		addi	sp,sp,-64
  80              		.cfi_def_cfa_offset 64
  81 0054 233C1102 		sd	ra,56(sp)
  82 0058 23388102 		sd	s0,48(sp)
  83 005c 23349102 		sd	s1,40(sp)
  84 0060 23302103 		sd	s2,32(sp)
  85 0064 233C3101 		sd	s3,24(sp)
  86              		.cfi_offset 1, -8
GAS LISTING /tmp/ccNEdkrL.s 			page 3


  87              		.cfi_offset 8, -16
  88              		.cfi_offset 9, -24
  89              		.cfi_offset 18, -32
  90              		.cfi_offset 19, -40
  91 0068 13040104 		addi	s0,sp,64
  92              		.cfi_def_cfa 8, 0
  93 006c 93040500 		mv	s1,a0
  94 0070 13890500 		mv	s2,a1
  95 0074 93090600 		mv	s3,a2
  32:src/syscall_c.cpp **** 
  33:src/syscall_c.cpp ****     int x = 0;
  96              		.loc 1 33 5
  97              		.loc 1 33 9 is_stmt 0
  98 0078 232604FC 		sw	zero,-52(s0)
  34:src/syscall_c.cpp ****     int *ret = &x;
  99              		.loc 1 34 5 is_stmt 1
 100              	.LVL5:
  35:src/syscall_c.cpp **** 
  36:src/syscall_c.cpp ****     auto *stack = (uint64*)(new uint64[DEFAULT_STACK_SIZE]);
 101              		.loc 1 36 5
 102              		.loc 1 36 58 is_stmt 0
 103 007c 37850000 		li	a0,32768
 104              	.LVL6:
 105 0080 97000000 		call	_Znam@plt
 105      E7800000 
 106              	.LVL7:
  37:src/syscall_c.cpp ****     __asm__ volatile("mv a4, %0" : : "r" (stack));
 107              		.loc 1 37 5 is_stmt 1
 108              		.loc 1 37 50 is_stmt 0
 109              	#APP
 110              	# 37 "src/syscall_c.cpp" 1
  38              	    __asm__ volatile("mv a3, %0" : : "r" (arg));
 111              		mv a4, a0
 112              	# 0 "" 2
 113              		.loc 1 38 5 is_stmt 1
 114              		.loc 1 38 48 is_stmt 0
 115              	# 38 "src/syscall_c.cpp" 1
  39              	    __asm__ volatile("mv a2, %0" : : "r" (start_routine));
 116              		mv a3, s3
 117              	# 0 "" 2
 118              		.loc 1 39 5 is_stmt 1
 119              		.loc 1 39 58 is_stmt 0
 120              	# 39 "src/syscall_c.cpp" 1
  40              	    __asm__ volatile("mv a1, %0" : : "r" (handle));
 121              		mv a2, s2
 122              	# 0 "" 2
 123              		.loc 1 40 5 is_stmt 1
 124              		.loc 1 40 51 is_stmt 0
 125              	# 40 "src/syscall_c.cpp" 1
  41              	    __asm__ volatile("mv a0, %0" : : "r" (THREAD_CREATE));
 126              		mv a1, s1
 127              	# 0 "" 2
 128              		.loc 1 41 5 is_stmt 1
 129              		.loc 1 41 58 is_stmt 0
 130              	#NO_APP
 131 0098 9307B000 		li	a5,11
 132              	#APP
GAS LISTING /tmp/ccNEdkrL.s 			page 4


 133              	# 41 "src/syscall_c.cpp" 1
  42              	    __asm__ volatile("mv a5, %0" : : "r" (ret));
 134              		mv a0, a5
 135              	# 0 "" 2
 136              		.loc 1 42 5 is_stmt 1
 137              		.loc 1 42 48 is_stmt 0
 138              	#NO_APP
 139 00a0 9307C4FC 		addi	a5,s0,-52
 140              	.LVL8:
 141              	#APP
 142              	# 42 "src/syscall_c.cpp" 1
  43              	    __asm__ volatile ("ecall");
 143              		mv a5, a5
 144              	# 0 "" 2
 145              		.loc 1 43 5 is_stmt 1
 146              		.loc 1 43 31 is_stmt 0
 147              	# 43 "src/syscall_c.cpp" 1
  44              	
  45:src/syscall_c.cpp ****     return *ret;
 148              		ecall
 149              	# 0 "" 2
 150              		.loc 1 45 5 is_stmt 1
  46:src/syscall_c.cpp **** }
 151              		.loc 1 46 1 is_stmt 0
 152              	#NO_APP
 153 00ac 0325C4FC 		lw	a0,-52(s0)
 154              	.LVL9:
 155 00b0 83308103 		ld	ra,56(sp)
 156              		.cfi_restore 1
 157 00b4 03340103 		ld	s0,48(sp)
 158              		.cfi_restore 8
 159              		.cfi_def_cfa 2, 64
 160 00b8 83348102 		ld	s1,40(sp)
 161              		.cfi_restore 9
 162              	.LVL10:
 163 00bc 03390102 		ld	s2,32(sp)
 164              		.cfi_restore 18
 165              	.LVL11:
 166 00c0 83398101 		ld	s3,24(sp)
 167              		.cfi_restore 19
 168              	.LVL12:
 169 00c4 13010104 		addi	sp,sp,64
 170              		.cfi_def_cfa_offset 0
 171 00c8 67800000 		jr	ra
 172              		.cfi_endproc
 173              	.LFE62:
 175              		.align	2
 176              		.globl	_Z11thread_exitv
 178              	_Z11thread_exitv:
 179              	.LFB63:
  47:src/syscall_c.cpp **** 
  48:src/syscall_c.cpp **** int thread_exit () {
 180              		.loc 1 48 20 is_stmt 1
 181              		.cfi_startproc
 182 00cc 130101FF 		addi	sp,sp,-16
 183              		.cfi_def_cfa_offset 16
 184 00d0 23348100 		sd	s0,8(sp)
GAS LISTING /tmp/ccNEdkrL.s 			page 5


 185              		.cfi_offset 8, -8
 186 00d4 13040101 		addi	s0,sp,16
 187              		.cfi_def_cfa 8, 0
  49:src/syscall_c.cpp ****     if (TCB::running->getMain()) {
 188              		.loc 1 49 5
 189              		.loc 1 49 30 is_stmt 0
 190 00d8 97070000 		la	a5,_ZN3TCB7runningE
 190      83B70700 
 191 00e0 83B70700 		ld	a5,0(a5)
 192              	.LVL13:
 193              	.LBB4:
 194              	.LBB5:
 195              		.file 2 "src/../h/tcb.hpp"
   1:src/../h/tcb.hpp **** #ifndef OS1_VEZBE07_RISCV_CONTEXT_SWITCH_2_INTERRUPT_TCB_HPP
   2:src/../h/tcb.hpp **** #define OS1_VEZBE07_RISCV_CONTEXT_SWITCH_2_INTERRUPT_TCB_HPP
   3:src/../h/tcb.hpp **** 
   4:src/../h/tcb.hpp **** #include "../lib/hw.h"
   5:src/../h/tcb.hpp **** #include "scheduler.hpp"
   6:src/../h/tcb.hpp **** #include "../h/syscall_cpp.hpp"
   7:src/../h/tcb.hpp **** #include "../h/print.hpp"
   8:src/../h/tcb.hpp **** 
   9:src/../h/tcb.hpp **** // Thread Control Block
  10:src/../h/tcb.hpp **** class TCB
  11:src/../h/tcb.hpp **** {
  12:src/../h/tcb.hpp **** public:
  13:src/../h/tcb.hpp ****     virtual ~TCB() {
  14:src/../h/tcb.hpp ****         delete[] stack;
  15:src/../h/tcb.hpp ****     }
  16:src/../h/tcb.hpp **** 
  17:src/../h/tcb.hpp ****     static void outputThreadBody(void*);
  18:src/../h/tcb.hpp **** 
  19:src/../h/tcb.hpp ****     bool isFinished() const { return finished; }
  20:src/../h/tcb.hpp ****     void setFinished(bool value) { finished = value; }
  21:src/../h/tcb.hpp **** 
  22:src/../h/tcb.hpp ****     bool isSleeping() const { return sleeping; }
  23:src/../h/tcb.hpp ****     void setSleeping(bool value) { sleeping = value; }
  24:src/../h/tcb.hpp **** 
  25:src/../h/tcb.hpp ****     bool isBlocked() const { return blocked; }
  26:src/../h/tcb.hpp ****     void setBlocked(bool value) { blocked = value; }
  27:src/../h/tcb.hpp **** 
  28:src/../h/tcb.hpp ****     bool getMain() const { return main; }
 196              		.loc 2 28 28 is_stmt 1
 197              		.loc 2 28 35 is_stmt 0
 198 00e4 83C7F703 		lbu	a5,63(a5)
 199              	.LVL14:
 200              	.LBE5:
 201              	.LBE4:
 202              		.loc 1 49 5
 203 00e8 63900702 		bnez	a5,.L9
  50:src/syscall_c.cpp ****         return -1;
  51:src/syscall_c.cpp ****     }
  52:src/syscall_c.cpp ****     __asm__ volatile("mv a0, %0" : : "r" (THREAD_EXIT));
 204              		.loc 1 52 5 is_stmt 1
 205              		.loc 1 52 56 is_stmt 0
 206 00ec 9307C000 		li	a5,12
 207              	#APP
 208              	# 52 "src/syscall_c.cpp" 1
GAS LISTING /tmp/ccNEdkrL.s 			page 6


  53              	    __asm__ volatile ("ecall");
 209              		mv a0, a5
 210              	# 0 "" 2
 211              		.loc 1 53 5 is_stmt 1
 212              		.loc 1 53 31 is_stmt 0
 213              	# 53 "src/syscall_c.cpp" 1
  54              	    return 0;
 214              		ecall
 215              	# 0 "" 2
 216              		.loc 1 54 5 is_stmt 1
 217              		.loc 1 54 12 is_stmt 0
 218              	#NO_APP
 219 00f8 13050000 		li	a0,0
 220              	.L8:
  55:src/syscall_c.cpp **** }
 221              		.loc 1 55 1
 222 00fc 03348100 		ld	s0,8(sp)
 223              		.cfi_remember_state
 224              		.cfi_restore 8
 225              		.cfi_def_cfa 2, 16
 226 0100 13010101 		addi	sp,sp,16
 227              		.cfi_def_cfa_offset 0
 228 0104 67800000 		jr	ra
 229              	.L9:
 230              		.cfi_restore_state
  50:src/syscall_c.cpp ****         return -1;
 231              		.loc 1 50 17
 232 0108 1305F0FF 		li	a0,-1
 233 010c 6FF01FFF 		j	.L8
 234              		.cfi_endproc
 235              	.LFE63:
 237              		.align	2
 238              		.globl	_Z15thread_dispatchv
 240              	_Z15thread_dispatchv:
 241              	.LFB64:
  56:src/syscall_c.cpp **** 
  57:src/syscall_c.cpp **** void thread_dispatch () {
 242              		.loc 1 57 25 is_stmt 1
 243              		.cfi_startproc
 244 0110 130101FF 		addi	sp,sp,-16
 245              		.cfi_def_cfa_offset 16
 246 0114 23348100 		sd	s0,8(sp)
 247              		.cfi_offset 8, -8
 248 0118 13040101 		addi	s0,sp,16
 249              		.cfi_def_cfa 8, 0
  58:src/syscall_c.cpp ****     __asm__ volatile("mv a0, %0" : : "r" (THREAD_DISPATCH));
 250              		.loc 1 58 5
 251              		.loc 1 58 60 is_stmt 0
 252 011c 9307D000 		li	a5,13
 253              	#APP
 254              	# 58 "src/syscall_c.cpp" 1
  59              	    __asm__ volatile ("ecall");
 255              		mv a0, a5
 256              	# 0 "" 2
 257              		.loc 1 59 5 is_stmt 1
 258              		.loc 1 59 31 is_stmt 0
 259              	# 59 "src/syscall_c.cpp" 1
GAS LISTING /tmp/ccNEdkrL.s 			page 7


  60              	}
 260              		ecall
 261              	# 0 "" 2
 262              		.loc 1 60 1
 263              	#NO_APP
 264 0128 03348100 		ld	s0,8(sp)
 265              		.cfi_restore 8
 266              		.cfi_def_cfa 2, 16
 267 012c 13010101 		addi	sp,sp,16
 268              		.cfi_def_cfa_offset 0
 269 0130 67800000 		jr	ra
 270              		.cfi_endproc
 271              	.LFE64:
 273              		.align	2
 274              		.globl	_Z8sem_openPP4_semj
 276              	_Z8sem_openPP4_semj:
 277              	.LFB65:
  61:src/syscall_c.cpp **** 
  62:src/syscall_c.cpp **** int sem_open (sem_t* handle, unsigned init) {
 278              		.loc 1 62 45 is_stmt 1
 279              		.cfi_startproc
 280              	.LVL15:
 281 0134 130101FE 		addi	sp,sp,-32
 282              		.cfi_def_cfa_offset 32
 283 0138 233C8100 		sd	s0,24(sp)
 284              		.cfi_offset 8, -8
 285 013c 13040102 		addi	s0,sp,32
 286              		.cfi_def_cfa 8, 0
  63:src/syscall_c.cpp **** 
  64:src/syscall_c.cpp ****     int x = 0;
 287              		.loc 1 64 5
 288              		.loc 1 64 9 is_stmt 0
 289 0140 232604FE 		sw	zero,-20(s0)
  65:src/syscall_c.cpp ****     int *ret = &x;
 290              		.loc 1 65 5 is_stmt 1
 291              	.LVL16:
  66:src/syscall_c.cpp **** 
  67:src/syscall_c.cpp ****     __asm__ volatile("mv a2, %0" : : "r" (init));
 292              		.loc 1 67 5
 293              		.loc 1 67 49 is_stmt 0
 294              	#APP
 295              	# 67 "src/syscall_c.cpp" 1
  68              	    __asm__ volatile("mv a1, %0" : : "r" (handle));
 296              		mv a2, a1
 297              	# 0 "" 2
 298              		.loc 1 68 5 is_stmt 1
 299              		.loc 1 68 51 is_stmt 0
 300              	# 68 "src/syscall_c.cpp" 1
  69              	    __asm__ volatile("mv a0, %0" : : "r" (SEM_OPEN));
 301              		mv a1, a0
 302              	# 0 "" 2
 303              		.loc 1 69 5 is_stmt 1
 304              		.loc 1 69 53 is_stmt 0
 305              	#NO_APP
 306 014c 93075001 		li	a5,21
 307              	#APP
 308              	# 69 "src/syscall_c.cpp" 1
GAS LISTING /tmp/ccNEdkrL.s 			page 8


  70              	    __asm__ volatile("mv a3, %0" : : "r" (ret));
 309              		mv a0, a5
 310              	# 0 "" 2
 311              		.loc 1 70 5 is_stmt 1
 312              		.loc 1 70 48 is_stmt 0
 313              	#NO_APP
 314 0154 9307C4FE 		addi	a5,s0,-20
 315              	.LVL17:
 316              	#APP
 317              	# 70 "src/syscall_c.cpp" 1
  71              	    __asm__ volatile ("ecall");
 318              		mv a3, a5
 319              	# 0 "" 2
 320              		.loc 1 71 5 is_stmt 1
 321              		.loc 1 71 31 is_stmt 0
 322              	# 71 "src/syscall_c.cpp" 1
  72              	    return *ret;
 323              		ecall
 324              	# 0 "" 2
 325              		.loc 1 72 5 is_stmt 1
  73:src/syscall_c.cpp **** }
 326              		.loc 1 73 1 is_stmt 0
 327              	#NO_APP
 328 0160 0325C4FE 		lw	a0,-20(s0)
 329              	.LVL18:
 330 0164 03348101 		ld	s0,24(sp)
 331              		.cfi_restore 8
 332              		.cfi_def_cfa 2, 32
 333 0168 13010102 		addi	sp,sp,32
 334              		.cfi_def_cfa_offset 0
 335 016c 67800000 		jr	ra
 336              		.cfi_endproc
 337              	.LFE65:
 339              		.align	2
 340              		.globl	_Z9sem_closeP4_sem
 342              	_Z9sem_closeP4_sem:
 343              	.LFB66:
  74:src/syscall_c.cpp **** 
  75:src/syscall_c.cpp **** int sem_close (sem_t handle) {
 344              		.loc 1 75 30 is_stmt 1
 345              		.cfi_startproc
 346              	.LVL19:
  76:src/syscall_c.cpp ****     if (handle == nullptr) {
 347              		.loc 1 76 5
 348 0170 630E0502 		beqz	a0,.L17
  75:src/syscall_c.cpp ****     if (handle == nullptr) {
 349              		.loc 1 75 30 is_stmt 0
 350 0174 130101FE 		addi	sp,sp,-32
 351              		.cfi_def_cfa_offset 32
 352 0178 233C8100 		sd	s0,24(sp)
 353              		.cfi_offset 8, -8
 354 017c 13040102 		addi	s0,sp,32
 355              		.cfi_def_cfa 8, 0
  77:src/syscall_c.cpp ****         return -1;
  78:src/syscall_c.cpp ****     }
  79:src/syscall_c.cpp **** 
  80:src/syscall_c.cpp ****     int x = 0;
GAS LISTING /tmp/ccNEdkrL.s 			page 9


 356              		.loc 1 80 5 is_stmt 1
 357              		.loc 1 80 9 is_stmt 0
 358 0180 232604FE 		sw	zero,-20(s0)
  81:src/syscall_c.cpp ****     int *ret = &x;
 359              		.loc 1 81 5 is_stmt 1
 360              	.LVL20:
  82:src/syscall_c.cpp **** 
  83:src/syscall_c.cpp ****     __asm__ volatile("mv a1, %0" : : "r" (handle));
 361              		.loc 1 83 5
 362              		.loc 1 83 51 is_stmt 0
 363              	#APP
 364              	# 83 "src/syscall_c.cpp" 1
  84              	    __asm__ volatile("mv a0, %0" : : "r" (SEM_CLOSE));
 365              		mv a1, a0
 366              	# 0 "" 2
 367              		.loc 1 84 5 is_stmt 1
 368              		.loc 1 84 54 is_stmt 0
 369              	#NO_APP
 370 0188 93076001 		li	a5,22
 371              	#APP
 372              	# 84 "src/syscall_c.cpp" 1
  85              	    __asm__ volatile("mv a2, %0" : : "r" (ret));
 373              		mv a0, a5
 374              	# 0 "" 2
 375              		.loc 1 85 5 is_stmt 1
 376              		.loc 1 85 48 is_stmt 0
 377              	#NO_APP
 378 0190 9307C4FE 		addi	a5,s0,-20
 379              	.LVL21:
 380              	#APP
 381              	# 85 "src/syscall_c.cpp" 1
  86              	    __asm__ volatile ("ecall");
 382              		mv a2, a5
 383              	# 0 "" 2
 384              		.loc 1 86 5 is_stmt 1
 385              		.loc 1 86 31 is_stmt 0
 386              	# 86 "src/syscall_c.cpp" 1
  87              	    return *ret;
 387              		ecall
 388              	# 0 "" 2
 389              		.loc 1 87 5 is_stmt 1
 390              		.loc 1 87 13 is_stmt 0
 391              	#NO_APP
 392 019c 0325C4FE 		lw	a0,-20(s0)
 393              	.LVL22:
  88:src/syscall_c.cpp **** }
 394              		.loc 1 88 1
 395 01a0 03348101 		ld	s0,24(sp)
 396              		.cfi_restore 8
 397              		.cfi_def_cfa 2, 32
 398 01a4 13010102 		addi	sp,sp,32
 399              		.cfi_def_cfa_offset 0
 400 01a8 67800000 		jr	ra
 401              	.LVL23:
 402              	.L17:
  77:src/syscall_c.cpp ****     }
 403              		.loc 1 77 17
GAS LISTING /tmp/ccNEdkrL.s 			page 10


 404 01ac 1305F0FF 		li	a0,-1
 405              	.LVL24:
 406              		.loc 1 88 1
 407 01b0 67800000 		ret
 408              		.cfi_endproc
 409              	.LFE66:
 411              		.align	2
 412              		.globl	_Z8sem_waitP4_sem
 414              	_Z8sem_waitP4_sem:
 415              	.LFB67:
  89:src/syscall_c.cpp **** 
  90:src/syscall_c.cpp **** int sem_wait (sem_t id) {
 416              		.loc 1 90 25 is_stmt 1
 417              		.cfi_startproc
 418              	.LVL25:
  91:src/syscall_c.cpp ****     if (id == nullptr) {
 419              		.loc 1 91 5
 420 01b4 630E0502 		beqz	a0,.L24
  90:src/syscall_c.cpp ****     if (id == nullptr) {
 421              		.loc 1 90 25 is_stmt 0
 422 01b8 130101FE 		addi	sp,sp,-32
 423              		.cfi_def_cfa_offset 32
 424 01bc 233C8100 		sd	s0,24(sp)
 425              		.cfi_offset 8, -8
 426 01c0 13040102 		addi	s0,sp,32
 427              		.cfi_def_cfa 8, 0
  92:src/syscall_c.cpp ****         return -1;
  93:src/syscall_c.cpp ****     }
  94:src/syscall_c.cpp **** 
  95:src/syscall_c.cpp ****     int x = 0;
 428              		.loc 1 95 5 is_stmt 1
 429              		.loc 1 95 9 is_stmt 0
 430 01c4 232604FE 		sw	zero,-20(s0)
  96:src/syscall_c.cpp ****     int *ret = &x;
 431              		.loc 1 96 5 is_stmt 1
 432              	.LVL26:
  97:src/syscall_c.cpp **** 
  98:src/syscall_c.cpp ****     __asm__ volatile("mv a1, %0" : : "r" (id));
 433              		.loc 1 98 5
 434              		.loc 1 98 47 is_stmt 0
 435              	#APP
 436              	# 98 "src/syscall_c.cpp" 1
  99              	    __asm__ volatile("mv a0, %0" : : "r" (SEM_WAIT));
 437              		mv a1, a0
 438              	# 0 "" 2
 439              		.loc 1 99 5 is_stmt 1
 440              		.loc 1 99 53 is_stmt 0
 441              	#NO_APP
 442 01cc 93077001 		li	a5,23
 443              	#APP
 444              	# 99 "src/syscall_c.cpp" 1
 100              	    __asm__ volatile("mv a2, %0" : : "r" (ret));
 445              		mv a0, a5
 446              	# 0 "" 2
 447              		.loc 1 100 5 is_stmt 1
 448              		.loc 1 100 48 is_stmt 0
 449              	#NO_APP
GAS LISTING /tmp/ccNEdkrL.s 			page 11


 450 01d4 9307C4FE 		addi	a5,s0,-20
 451              	.LVL27:
 452              	#APP
 453              	# 100 "src/syscall_c.cpp" 1
 101              	    __asm__ volatile ("ecall");
 454              		mv a2, a5
 455              	# 0 "" 2
 456              		.loc 1 101 5 is_stmt 1
 457              		.loc 1 101 31 is_stmt 0
 458              	# 101 "src/syscall_c.cpp" 1
 102              	    return *ret;
 459              		ecall
 460              	# 0 "" 2
 461              		.loc 1 102 5 is_stmt 1
 462              		.loc 1 102 13 is_stmt 0
 463              	#NO_APP
 464 01e0 0325C4FE 		lw	a0,-20(s0)
 465              	.LVL28:
 103:src/syscall_c.cpp **** }
 466              		.loc 1 103 1
 467 01e4 03348101 		ld	s0,24(sp)
 468              		.cfi_restore 8
 469              		.cfi_def_cfa 2, 32
 470 01e8 13010102 		addi	sp,sp,32
 471              		.cfi_def_cfa_offset 0
 472 01ec 67800000 		jr	ra
 473              	.LVL29:
 474              	.L24:
  92:src/syscall_c.cpp ****     }
 475              		.loc 1 92 17
 476 01f0 1305F0FF 		li	a0,-1
 477              	.LVL30:
 478              		.loc 1 103 1
 479 01f4 67800000 		ret
 480              		.cfi_endproc
 481              	.LFE67:
 483              		.align	2
 484              		.globl	_Z10sem_signalP4_sem
 486              	_Z10sem_signalP4_sem:
 487              	.LFB68:
 104:src/syscall_c.cpp **** 
 105:src/syscall_c.cpp **** int sem_signal (sem_t id) {
 488              		.loc 1 105 27 is_stmt 1
 489              		.cfi_startproc
 490              	.LVL31:
 106:src/syscall_c.cpp ****     if (id == nullptr) {
 491              		.loc 1 106 5
 492 01f8 630E0502 		beqz	a0,.L31
 105:src/syscall_c.cpp ****     if (id == nullptr) {
 493              		.loc 1 105 27 is_stmt 0
 494 01fc 130101FE 		addi	sp,sp,-32
 495              		.cfi_def_cfa_offset 32
 496 0200 233C8100 		sd	s0,24(sp)
 497              		.cfi_offset 8, -8
 498 0204 13040102 		addi	s0,sp,32
 499              		.cfi_def_cfa 8, 0
 107:src/syscall_c.cpp ****         return -1;
GAS LISTING /tmp/ccNEdkrL.s 			page 12


 108:src/syscall_c.cpp ****     }
 109:src/syscall_c.cpp **** 
 110:src/syscall_c.cpp ****     int x = 0;
 500              		.loc 1 110 5 is_stmt 1
 501              		.loc 1 110 9 is_stmt 0
 502 0208 232604FE 		sw	zero,-20(s0)
 111:src/syscall_c.cpp ****     int *ret = &x;
 503              		.loc 1 111 5 is_stmt 1
 504              	.LVL32:
 112:src/syscall_c.cpp **** 
 113:src/syscall_c.cpp ****     __asm__ volatile("mv a1, %0" : : "r" (id));
 505              		.loc 1 113 5
 506              		.loc 1 113 47 is_stmt 0
 507              	#APP
 508              	# 113 "src/syscall_c.cpp" 1
 114              	    __asm__ volatile("mv a0, %0" : : "r" (SEM_SIGNAL));
 509              		mv a1, a0
 510              	# 0 "" 2
 511              		.loc 1 114 5 is_stmt 1
 512              		.loc 1 114 55 is_stmt 0
 513              	#NO_APP
 514 0210 93078001 		li	a5,24
 515              	#APP
 516              	# 114 "src/syscall_c.cpp" 1
 115              	    __asm__ volatile("mv a2, %0" : : "r" (ret));
 517              		mv a0, a5
 518              	# 0 "" 2
 519              		.loc 1 115 5 is_stmt 1
 520              		.loc 1 115 48 is_stmt 0
 521              	#NO_APP
 522 0218 9307C4FE 		addi	a5,s0,-20
 523              	.LVL33:
 524              	#APP
 525              	# 115 "src/syscall_c.cpp" 1
 116              	    __asm__ volatile ("ecall");
 526              		mv a2, a5
 527              	# 0 "" 2
 528              		.loc 1 116 5 is_stmt 1
 529              		.loc 1 116 31 is_stmt 0
 530              	# 116 "src/syscall_c.cpp" 1
 117              	    return *ret;
 531              		ecall
 532              	# 0 "" 2
 533              		.loc 1 117 5 is_stmt 1
 534              		.loc 1 117 13 is_stmt 0
 535              	#NO_APP
 536 0224 0325C4FE 		lw	a0,-20(s0)
 537              	.LVL34:
 118:src/syscall_c.cpp **** }
 538              		.loc 1 118 1
 539 0228 03348101 		ld	s0,24(sp)
 540              		.cfi_restore 8
 541              		.cfi_def_cfa 2, 32
 542 022c 13010102 		addi	sp,sp,32
 543              		.cfi_def_cfa_offset 0
 544 0230 67800000 		jr	ra
 545              	.LVL35:
GAS LISTING /tmp/ccNEdkrL.s 			page 13


 546              	.L31:
 107:src/syscall_c.cpp ****     }
 547              		.loc 1 107 17
 548 0234 1305F0FF 		li	a0,-1
 549              	.LVL36:
 550              		.loc 1 118 1
 551 0238 67800000 		ret
 552              		.cfi_endproc
 553              	.LFE68:
 555              		.align	2
 556              		.globl	_Z10time_sleepm
 558              	_Z10time_sleepm:
 559              	.LFB69:
 119:src/syscall_c.cpp **** 
 120:src/syscall_c.cpp **** int time_sleep (time_t slice) {
 560              		.loc 1 120 31 is_stmt 1
 561              		.cfi_startproc
 562              	.LVL37:
 563 023c 130101FF 		addi	sp,sp,-16
 564              		.cfi_def_cfa_offset 16
 565 0240 23348100 		sd	s0,8(sp)
 566              		.cfi_offset 8, -8
 567 0244 13040101 		addi	s0,sp,16
 568              		.cfi_def_cfa 8, 0
 121:src/syscall_c.cpp ****     __asm__ volatile("mv a1, %0" : : "r" (slice));
 569              		.loc 1 121 5
 570              		.loc 1 121 50 is_stmt 0
 571              	#APP
 572              	# 121 "src/syscall_c.cpp" 1
 122              	    __asm__ volatile("mv a0, %0" : : "r" (TIME_SLEEP));
 573              		mv a1, a0
 574              	# 0 "" 2
 575              		.loc 1 122 5 is_stmt 1
 576              		.loc 1 122 55 is_stmt 0
 577              	#NO_APP
 578 024c 9307F001 		li	a5,31
 579              	#APP
 580              	# 122 "src/syscall_c.cpp" 1
 123              	    __asm__ volatile ("ecall");
 581              		mv a0, a5
 582              	# 0 "" 2
 583              		.loc 1 123 5 is_stmt 1
 584              		.loc 1 123 31 is_stmt 0
 585              	# 123 "src/syscall_c.cpp" 1
 124              	    return 0;
 586              		ecall
 587              	# 0 "" 2
 588              		.loc 1 124 5 is_stmt 1
 125:src/syscall_c.cpp **** }
 589              		.loc 1 125 1 is_stmt 0
 590              	#NO_APP
 591 0258 13050000 		li	a0,0
 592              	.LVL38:
 593 025c 03348100 		ld	s0,8(sp)
 594              		.cfi_restore 8
 595              		.cfi_def_cfa 2, 16
 596 0260 13010101 		addi	sp,sp,16
GAS LISTING /tmp/ccNEdkrL.s 			page 14


 597              		.cfi_def_cfa_offset 0
 598 0264 67800000 		jr	ra
 599              		.cfi_endproc
 600              	.LFE69:
 602              		.align	2
 603              		.globl	_Z4getcv
 605              	_Z4getcv:
 606              	.LFB70:
 126:src/syscall_c.cpp **** 
 127:src/syscall_c.cpp **** char getc () {
 607              		.loc 1 127 14 is_stmt 1
 608              		.cfi_startproc
 609 0268 130101FE 		addi	sp,sp,-32
 610              		.cfi_def_cfa_offset 32
 611 026c 233C8100 		sd	s0,24(sp)
 612              		.cfi_offset 8, -8
 613 0270 13040102 		addi	s0,sp,32
 614              		.cfi_def_cfa 8, 0
 128:src/syscall_c.cpp ****     __asm__ volatile("mv a0, %0" : : "r" (GET_C));
 615              		.loc 1 128 5
 616              		.loc 1 128 50 is_stmt 0
 617 0274 93079002 		li	a5,41
 618              	#APP
 619              	# 128 "src/syscall_c.cpp" 1
 129              	    char c = 's';
 620              		mv a0, a5
 621              	# 0 "" 2
 622              		.loc 1 129 5 is_stmt 1
 623              		.loc 1 129 10 is_stmt 0
 624              	#NO_APP
 625 027c 93073007 		li	a5,115
 626 0280 A307F4FE 		sb	a5,-17(s0)
 130:src/syscall_c.cpp ****     char* ret = &c;
 627              		.loc 1 130 5 is_stmt 1
 628              	.LVL39:
 131:src/syscall_c.cpp ****     __asm__ volatile("mv a1, %0" : : "r" (ret));
 629              		.loc 1 131 5
 630              		.loc 1 131 48 is_stmt 0
 631 0284 9307F4FE 		addi	a5,s0,-17
 632              	.LVL40:
 633              	#APP
 634              	# 131 "src/syscall_c.cpp" 1
 132              	    __asm__ volatile ("ecall");
 635              		mv a1, a5
 636              	# 0 "" 2
 637              		.loc 1 132 5 is_stmt 1
 638              		.loc 1 132 31 is_stmt 0
 639              	# 132 "src/syscall_c.cpp" 1
 133              	
 134:src/syscall_c.cpp ****     if (ret != nullptr)
 640              		ecall
 641              	# 0 "" 2
 642              		.loc 1 134 5 is_stmt 1
 135:src/syscall_c.cpp ****         return *ret;
 643              		.loc 1 135 9
 136:src/syscall_c.cpp ****     else {
 137:src/syscall_c.cpp ****         return ' ';
GAS LISTING /tmp/ccNEdkrL.s 			page 15


 138:src/syscall_c.cpp ****     }
 139:src/syscall_c.cpp **** }
 644              		.loc 1 139 1 is_stmt 0
 645              	#NO_APP
 646 0290 0345F4FE 		lbu	a0,-17(s0)
 647 0294 03348101 		ld	s0,24(sp)
 648              		.cfi_restore 8
 649              		.cfi_def_cfa 2, 32
 650 0298 13010102 		addi	sp,sp,32
 651              		.cfi_def_cfa_offset 0
 652 029c 67800000 		jr	ra
 653              		.cfi_endproc
 654              	.LFE70:
 656              		.align	2
 657              		.globl	_Z4putcc
 659              	_Z4putcc:
 660              	.LFB71:
 140:src/syscall_c.cpp **** 
 141:src/syscall_c.cpp **** void putc (char c){
 661              		.loc 1 141 19 is_stmt 1
 662              		.cfi_startproc
 663              	.LVL41:
 664 02a0 130101FF 		addi	sp,sp,-16
 665              		.cfi_def_cfa_offset 16
 666 02a4 23348100 		sd	s0,8(sp)
 667              		.cfi_offset 8, -8
 668 02a8 13040101 		addi	s0,sp,16
 669              		.cfi_def_cfa 8, 0
 142:src/syscall_c.cpp ****     __asm__ volatile("mv a1, %0" : : "r" (c));
 670              		.loc 1 142 5
 671              		.loc 1 142 46 is_stmt 0
 672              	#APP
 673              	# 142 "src/syscall_c.cpp" 1
 143              	    __asm__ volatile("mv a0, %0" : : "r" (PUT_C));
 674              		mv a1, a0
 675              	# 0 "" 2
 676              		.loc 1 143 5 is_stmt 1
 677              		.loc 1 143 50 is_stmt 0
 678              	#NO_APP
 679 02b0 9307A002 		li	a5,42
 680              	#APP
 681              	# 143 "src/syscall_c.cpp" 1
 144              	    __asm__ volatile ("ecall");
 682              		mv a0, a5
 683              	# 0 "" 2
 684              		.loc 1 144 5 is_stmt 1
 685              		.loc 1 144 31 is_stmt 0
 686              	# 144 "src/syscall_c.cpp" 1
 145              	}...
 687              		ecall
 688              	# 0 "" 2
 689              		.loc 1 145 1
 690              	#NO_APP
 691 02bc 03348100 		ld	s0,8(sp)
 692              		.cfi_restore 8
 693              		.cfi_def_cfa 2, 16
 694 02c0 13010101 		addi	sp,sp,16
GAS LISTING /tmp/ccNEdkrL.s 			page 16


 695              		.cfi_def_cfa_offset 0
 696 02c4 67800000 		jr	ra
 697              		.cfi_endproc
 698              	.LFE71:
 700              	.Letext0:
 701              		.file 3 "src/../h/../lib/hw.h"
 702              		.file 4 "src/../h/syscall_c.h"
 703              		.file 5 "src/../h/../h/_sem.hpp"
 704              		.file 6 "src/../h/list.hpp"
 705              		.file 7 "src/../h/codes.hpp"
 706              		.file 8 "src/../lib/mem.h"
GAS LISTING /tmp/ccNEdkrL.s 			page 17


DEFINED SYMBOLS
                            *ABS*:0000000000000000 syscall_c.cpp
     /tmp/ccNEdkrL.s:9      .text:0000000000000000 _Z9mem_allocm
     /tmp/ccNEdkrL.s:13     .text:0000000000000000 .L0 
     /tmp/ccNEdkrL.s:15     .text:0000000000000000 .L0 
     /tmp/ccNEdkrL.s:16     .text:0000000000000004 .L0 
     /tmp/ccNEdkrL.s:19     .text:000000000000000c .L0 
     /tmp/ccNEdkrL.s:20     .text:000000000000000c .L0 
     /tmp/ccNEdkrL.s:22     .text:0000000000000010 .L0 
     /tmp/ccNEdkrL.s:24     .text:0000000000000010 .L0 
     /tmp/ccNEdkrL.s:25     .text:0000000000000010 .L0 
     /tmp/ccNEdkrL.s:28     .text:0000000000000018 .L0 
     /tmp/ccNEdkrL.s:29     .text:000000000000001c .L0 
     /tmp/ccNEdkrL.s:31     .text:0000000000000020 .L0 
     /tmp/ccNEdkrL.s:32     .text:0000000000000020 .L0 
     /tmp/ccNEdkrL.s:34     .text:0000000000000024 .L0 
     /tmp/ccNEdkrL.s:36     .text:0000000000000028 .L0 
     /tmp/ccNEdkrL.s:42     .text:0000000000000028 _Z8mem_freePv
     /tmp/ccNEdkrL.s:45     .text:0000000000000028 .L0 
     /tmp/ccNEdkrL.s:47     .text:0000000000000028 .L0 
     /tmp/ccNEdkrL.s:48     .text:000000000000002c .L0 
     /tmp/ccNEdkrL.s:51     .text:0000000000000034 .L0 
     /tmp/ccNEdkrL.s:52     .text:0000000000000034 .L0 
     /tmp/ccNEdkrL.s:54     .text:0000000000000038 .L0 
     /tmp/ccNEdkrL.s:56     .text:0000000000000038 .L0 
     /tmp/ccNEdkrL.s:57     .text:0000000000000038 .L0 
     /tmp/ccNEdkrL.s:60     .text:0000000000000040 .L0 
     /tmp/ccNEdkrL.s:61     .text:0000000000000044 .L0 
     /tmp/ccNEdkrL.s:63     .text:0000000000000048 .L0 
     /tmp/ccNEdkrL.s:64     .text:0000000000000048 .L0 
     /tmp/ccNEdkrL.s:66     .text:000000000000004c .L0 
     /tmp/ccNEdkrL.s:68     .text:0000000000000050 .L0 
     /tmp/ccNEdkrL.s:74     .text:0000000000000050 _Z13thread_createPP3TCBPFvPvES2_
     /tmp/ccNEdkrL.s:77     .text:0000000000000050 .L0 
     /tmp/ccNEdkrL.s:79     .text:0000000000000050 .L0 
     /tmp/ccNEdkrL.s:80     .text:0000000000000054 .L0 
     /tmp/ccNEdkrL.s:86     .text:0000000000000068 .L0 
     /tmp/ccNEdkrL.s:87     .text:0000000000000068 .L0 
     /tmp/ccNEdkrL.s:88     .text:0000000000000068 .L0 
     /tmp/ccNEdkrL.s:89     .text:0000000000000068 .L0 
     /tmp/ccNEdkrL.s:90     .text:0000000000000068 .L0 
     /tmp/ccNEdkrL.s:92     .text:000000000000006c .L0 
     /tmp/ccNEdkrL.s:97     .text:0000000000000078 .L0 
     /tmp/ccNEdkrL.s:98     .text:0000000000000078 .L0 
     /tmp/ccNEdkrL.s:101    .text:000000000000007c .L0 
     /tmp/ccNEdkrL.s:102    .text:000000000000007c .L0 
     /tmp/ccNEdkrL.s:103    .text:000000000000007c .L0 
     /tmp/ccNEdkrL.s:108    .text:0000000000000088 .L0 
   src/syscall_c.cpp:37     .text:0000000000000088 .L0 
     /tmp/ccNEdkrL.s:114    .text:000000000000008c .L0 
   src/syscall_c.cpp:38     .text:000000000000008c .L0 
     /tmp/ccNEdkrL.s:119    .text:0000000000000090 .L0 
   src/syscall_c.cpp:39     .text:0000000000000090 .L0 
     /tmp/ccNEdkrL.s:124    .text:0000000000000094 .L0 
   src/syscall_c.cpp:40     .text:0000000000000094 .L0 
     /tmp/ccNEdkrL.s:129    .text:0000000000000098 .L0 
     /tmp/ccNEdkrL.s:131    .text:0000000000000098 .L0 
GAS LISTING /tmp/ccNEdkrL.s 			page 18


     /tmp/ccNEdkrL.s:137    .text:00000000000000a0 .L0 
     /tmp/ccNEdkrL.s:139    .text:00000000000000a0 .L0 
     /tmp/ccNEdkrL.s:146    .text:00000000000000a8 .L0 
   src/syscall_c.cpp:43     .text:00000000000000a8 .L0 
     /tmp/ccNEdkrL.s:151    .text:00000000000000ac .L0 
     /tmp/ccNEdkrL.s:153    .text:00000000000000ac .L0 
     /tmp/ccNEdkrL.s:156    .text:00000000000000b4 .L0 
     /tmp/ccNEdkrL.s:158    .text:00000000000000b8 .L0 
     /tmp/ccNEdkrL.s:159    .text:00000000000000b8 .L0 
     /tmp/ccNEdkrL.s:161    .text:00000000000000bc .L0 
     /tmp/ccNEdkrL.s:164    .text:00000000000000c0 .L0 
     /tmp/ccNEdkrL.s:167    .text:00000000000000c4 .L0 
     /tmp/ccNEdkrL.s:170    .text:00000000000000c8 .L0 
     /tmp/ccNEdkrL.s:172    .text:00000000000000cc .L0 
     /tmp/ccNEdkrL.s:178    .text:00000000000000cc _Z11thread_exitv
     /tmp/ccNEdkrL.s:181    .text:00000000000000cc .L0 
     /tmp/ccNEdkrL.s:182    .text:00000000000000cc .L0 
     /tmp/ccNEdkrL.s:183    .text:00000000000000d0 .L0 
     /tmp/ccNEdkrL.s:185    .text:00000000000000d4 .L0 
     /tmp/ccNEdkrL.s:187    .text:00000000000000d8 .L0 
     /tmp/ccNEdkrL.s:189    .text:00000000000000d8 .L0 
     /tmp/ccNEdkrL.s:190    .text:00000000000000d8 .L0 
     /tmp/ccNEdkrL.s:197    .text:00000000000000e4 .L0 
     /tmp/ccNEdkrL.s:198    .text:00000000000000e4 .L0 
     /tmp/ccNEdkrL.s:203    .text:00000000000000e8 .L0 
     /tmp/ccNEdkrL.s:205    .text:00000000000000ec .L0 
     /tmp/ccNEdkrL.s:206    .text:00000000000000ec .L0 
     /tmp/ccNEdkrL.s:212    .text:00000000000000f4 .L0 
   src/syscall_c.cpp:53     .text:00000000000000f4 .L0 
     /tmp/ccNEdkrL.s:217    .text:00000000000000f8 .L0 
     /tmp/ccNEdkrL.s:219    .text:00000000000000f8 .L0 
     /tmp/ccNEdkrL.s:222    .text:00000000000000fc .L0 
     /tmp/ccNEdkrL.s:223    .text:0000000000000100 .L0 
     /tmp/ccNEdkrL.s:224    .text:0000000000000100 .L0 
     /tmp/ccNEdkrL.s:225    .text:0000000000000100 .L0 
     /tmp/ccNEdkrL.s:227    .text:0000000000000104 .L0 
     /tmp/ccNEdkrL.s:230    .text:0000000000000108 .L0 
     /tmp/ccNEdkrL.s:232    .text:0000000000000108 .L0 
     /tmp/ccNEdkrL.s:234    .text:0000000000000110 .L0 
     /tmp/ccNEdkrL.s:240    .text:0000000000000110 _Z15thread_dispatchv
     /tmp/ccNEdkrL.s:243    .text:0000000000000110 .L0 
     /tmp/ccNEdkrL.s:244    .text:0000000000000110 .L0 
     /tmp/ccNEdkrL.s:245    .text:0000000000000114 .L0 
     /tmp/ccNEdkrL.s:247    .text:0000000000000118 .L0 
     /tmp/ccNEdkrL.s:249    .text:000000000000011c .L0 
     /tmp/ccNEdkrL.s:251    .text:000000000000011c .L0 
     /tmp/ccNEdkrL.s:252    .text:000000000000011c .L0 
     /tmp/ccNEdkrL.s:258    .text:0000000000000124 .L0 
   src/syscall_c.cpp:59     .text:0000000000000124 .L0 
     /tmp/ccNEdkrL.s:264    .text:0000000000000128 .L0 
     /tmp/ccNEdkrL.s:265    .text:000000000000012c .L0 
     /tmp/ccNEdkrL.s:266    .text:000000000000012c .L0 
     /tmp/ccNEdkrL.s:268    .text:0000000000000130 .L0 
     /tmp/ccNEdkrL.s:270    .text:0000000000000134 .L0 
     /tmp/ccNEdkrL.s:276    .text:0000000000000134 _Z8sem_openPP4_semj
     /tmp/ccNEdkrL.s:279    .text:0000000000000134 .L0 
     /tmp/ccNEdkrL.s:281    .text:0000000000000134 .L0 
GAS LISTING /tmp/ccNEdkrL.s 			page 19


     /tmp/ccNEdkrL.s:282    .text:0000000000000138 .L0 
     /tmp/ccNEdkrL.s:284    .text:000000000000013c .L0 
     /tmp/ccNEdkrL.s:286    .text:0000000000000140 .L0 
     /tmp/ccNEdkrL.s:288    .text:0000000000000140 .L0 
     /tmp/ccNEdkrL.s:289    .text:0000000000000140 .L0 
     /tmp/ccNEdkrL.s:292    .text:0000000000000144 .L0 
     /tmp/ccNEdkrL.s:293    .text:0000000000000144 .L0 
   src/syscall_c.cpp:67     .text:0000000000000144 .L0 
     /tmp/ccNEdkrL.s:299    .text:0000000000000148 .L0 
   src/syscall_c.cpp:68     .text:0000000000000148 .L0 
     /tmp/ccNEdkrL.s:304    .text:000000000000014c .L0 
     /tmp/ccNEdkrL.s:306    .text:000000000000014c .L0 
     /tmp/ccNEdkrL.s:312    .text:0000000000000154 .L0 
     /tmp/ccNEdkrL.s:314    .text:0000000000000154 .L0 
     /tmp/ccNEdkrL.s:321    .text:000000000000015c .L0 
   src/syscall_c.cpp:71     .text:000000000000015c .L0 
     /tmp/ccNEdkrL.s:326    .text:0000000000000160 .L0 
     /tmp/ccNEdkrL.s:328    .text:0000000000000160 .L0 
     /tmp/ccNEdkrL.s:331    .text:0000000000000168 .L0 
     /tmp/ccNEdkrL.s:332    .text:0000000000000168 .L0 
     /tmp/ccNEdkrL.s:334    .text:000000000000016c .L0 
     /tmp/ccNEdkrL.s:336    .text:0000000000000170 .L0 
     /tmp/ccNEdkrL.s:342    .text:0000000000000170 _Z9sem_closeP4_sem
     /tmp/ccNEdkrL.s:345    .text:0000000000000170 .L0 
     /tmp/ccNEdkrL.s:347    .text:0000000000000170 .L0 
     /tmp/ccNEdkrL.s:348    .text:0000000000000170 .L0 
     /tmp/ccNEdkrL.s:350    .text:0000000000000174 .L0 
     /tmp/ccNEdkrL.s:351    .text:0000000000000178 .L0 
     /tmp/ccNEdkrL.s:353    .text:000000000000017c .L0 
     /tmp/ccNEdkrL.s:355    .text:0000000000000180 .L0 
     /tmp/ccNEdkrL.s:357    .text:0000000000000180 .L0 
     /tmp/ccNEdkrL.s:358    .text:0000000000000180 .L0 
     /tmp/ccNEdkrL.s:361    .text:0000000000000184 .L0 
     /tmp/ccNEdkrL.s:362    .text:0000000000000184 .L0 
   src/syscall_c.cpp:83     .text:0000000000000184 .L0 
     /tmp/ccNEdkrL.s:368    .text:0000000000000188 .L0 
     /tmp/ccNEdkrL.s:370    .text:0000000000000188 .L0 
     /tmp/ccNEdkrL.s:376    .text:0000000000000190 .L0 
     /tmp/ccNEdkrL.s:378    .text:0000000000000190 .L0 
     /tmp/ccNEdkrL.s:385    .text:0000000000000198 .L0 
   src/syscall_c.cpp:86     .text:0000000000000198 .L0 
     /tmp/ccNEdkrL.s:390    .text:000000000000019c .L0 
     /tmp/ccNEdkrL.s:392    .text:000000000000019c .L0 
     /tmp/ccNEdkrL.s:395    .text:00000000000001a0 .L0 
     /tmp/ccNEdkrL.s:396    .text:00000000000001a4 .L0 
     /tmp/ccNEdkrL.s:397    .text:00000000000001a4 .L0 
     /tmp/ccNEdkrL.s:399    .text:00000000000001a8 .L0 
     /tmp/ccNEdkrL.s:404    .text:00000000000001ac .L0 
     /tmp/ccNEdkrL.s:407    .text:00000000000001b0 .L0 
     /tmp/ccNEdkrL.s:408    .text:00000000000001b4 .L0 
     /tmp/ccNEdkrL.s:414    .text:00000000000001b4 _Z8sem_waitP4_sem
     /tmp/ccNEdkrL.s:417    .text:00000000000001b4 .L0 
     /tmp/ccNEdkrL.s:419    .text:00000000000001b4 .L0 
     /tmp/ccNEdkrL.s:420    .text:00000000000001b4 .L0 
     /tmp/ccNEdkrL.s:422    .text:00000000000001b8 .L0 
     /tmp/ccNEdkrL.s:423    .text:00000000000001bc .L0 
     /tmp/ccNEdkrL.s:425    .text:00000000000001c0 .L0 
GAS LISTING /tmp/ccNEdkrL.s 			page 20


     /tmp/ccNEdkrL.s:427    .text:00000000000001c4 .L0 
     /tmp/ccNEdkrL.s:429    .text:00000000000001c4 .L0 
     /tmp/ccNEdkrL.s:430    .text:00000000000001c4 .L0 
     /tmp/ccNEdkrL.s:433    .text:00000000000001c8 .L0 
     /tmp/ccNEdkrL.s:434    .text:00000000000001c8 .L0 
   src/syscall_c.cpp:98     .text:00000000000001c8 .L0 
     /tmp/ccNEdkrL.s:440    .text:00000000000001cc .L0 
     /tmp/ccNEdkrL.s:442    .text:00000000000001cc .L0 
     /tmp/ccNEdkrL.s:448    .text:00000000000001d4 .L0 
     /tmp/ccNEdkrL.s:450    .text:00000000000001d4 .L0 
     /tmp/ccNEdkrL.s:457    .text:00000000000001dc .L0 
   src/syscall_c.cpp:101    .text:00000000000001dc .L0 
     /tmp/ccNEdkrL.s:462    .text:00000000000001e0 .L0 
     /tmp/ccNEdkrL.s:464    .text:00000000000001e0 .L0 
     /tmp/ccNEdkrL.s:467    .text:00000000000001e4 .L0 
     /tmp/ccNEdkrL.s:468    .text:00000000000001e8 .L0 
     /tmp/ccNEdkrL.s:469    .text:00000000000001e8 .L0 
     /tmp/ccNEdkrL.s:471    .text:00000000000001ec .L0 
     /tmp/ccNEdkrL.s:476    .text:00000000000001f0 .L0 
     /tmp/ccNEdkrL.s:479    .text:00000000000001f4 .L0 
     /tmp/ccNEdkrL.s:480    .text:00000000000001f8 .L0 
     /tmp/ccNEdkrL.s:486    .text:00000000000001f8 _Z10sem_signalP4_sem
     /tmp/ccNEdkrL.s:489    .text:00000000000001f8 .L0 
     /tmp/ccNEdkrL.s:491    .text:00000000000001f8 .L0 
     /tmp/ccNEdkrL.s:492    .text:00000000000001f8 .L0 
     /tmp/ccNEdkrL.s:494    .text:00000000000001fc .L0 
     /tmp/ccNEdkrL.s:495    .text:0000000000000200 .L0 
     /tmp/ccNEdkrL.s:497    .text:0000000000000204 .L0 
     /tmp/ccNEdkrL.s:499    .text:0000000000000208 .L0 
     /tmp/ccNEdkrL.s:501    .text:0000000000000208 .L0 
     /tmp/ccNEdkrL.s:502    .text:0000000000000208 .L0 
     /tmp/ccNEdkrL.s:505    .text:000000000000020c .L0 
     /tmp/ccNEdkrL.s:506    .text:000000000000020c .L0 
   src/syscall_c.cpp:113    .text:000000000000020c .L0 
     /tmp/ccNEdkrL.s:512    .text:0000000000000210 .L0 
     /tmp/ccNEdkrL.s:514    .text:0000000000000210 .L0 
     /tmp/ccNEdkrL.s:520    .text:0000000000000218 .L0 
     /tmp/ccNEdkrL.s:522    .text:0000000000000218 .L0 
     /tmp/ccNEdkrL.s:529    .text:0000000000000220 .L0 
   src/syscall_c.cpp:116    .text:0000000000000220 .L0 
     /tmp/ccNEdkrL.s:534    .text:0000000000000224 .L0 
     /tmp/ccNEdkrL.s:536    .text:0000000000000224 .L0 
     /tmp/ccNEdkrL.s:539    .text:0000000000000228 .L0 
     /tmp/ccNEdkrL.s:540    .text:000000000000022c .L0 
     /tmp/ccNEdkrL.s:541    .text:000000000000022c .L0 
     /tmp/ccNEdkrL.s:543    .text:0000000000000230 .L0 
     /tmp/ccNEdkrL.s:548    .text:0000000000000234 .L0 
     /tmp/ccNEdkrL.s:551    .text:0000000000000238 .L0 
     /tmp/ccNEdkrL.s:552    .text:000000000000023c .L0 
     /tmp/ccNEdkrL.s:558    .text:000000000000023c _Z10time_sleepm
     /tmp/ccNEdkrL.s:561    .text:000000000000023c .L0 
     /tmp/ccNEdkrL.s:563    .text:000000000000023c .L0 
     /tmp/ccNEdkrL.s:564    .text:0000000000000240 .L0 
     /tmp/ccNEdkrL.s:566    .text:0000000000000244 .L0 
     /tmp/ccNEdkrL.s:568    .text:0000000000000248 .L0 
     /tmp/ccNEdkrL.s:570    .text:0000000000000248 .L0 
   src/syscall_c.cpp:121    .text:0000000000000248 .L0 
GAS LISTING /tmp/ccNEdkrL.s 			page 21


     /tmp/ccNEdkrL.s:576    .text:000000000000024c .L0 
     /tmp/ccNEdkrL.s:578    .text:000000000000024c .L0 
     /tmp/ccNEdkrL.s:584    .text:0000000000000254 .L0 
   src/syscall_c.cpp:123    .text:0000000000000254 .L0 
     /tmp/ccNEdkrL.s:589    .text:0000000000000258 .L0 
     /tmp/ccNEdkrL.s:591    .text:0000000000000258 .L0 
     /tmp/ccNEdkrL.s:594    .text:0000000000000260 .L0 
     /tmp/ccNEdkrL.s:595    .text:0000000000000260 .L0 
     /tmp/ccNEdkrL.s:597    .text:0000000000000264 .L0 
     /tmp/ccNEdkrL.s:599    .text:0000000000000268 .L0 
     /tmp/ccNEdkrL.s:605    .text:0000000000000268 _Z4getcv
     /tmp/ccNEdkrL.s:608    .text:0000000000000268 .L0 
     /tmp/ccNEdkrL.s:609    .text:0000000000000268 .L0 
     /tmp/ccNEdkrL.s:610    .text:000000000000026c .L0 
     /tmp/ccNEdkrL.s:612    .text:0000000000000270 .L0 
     /tmp/ccNEdkrL.s:614    .text:0000000000000274 .L0 
     /tmp/ccNEdkrL.s:616    .text:0000000000000274 .L0 
     /tmp/ccNEdkrL.s:617    .text:0000000000000274 .L0 
     /tmp/ccNEdkrL.s:623    .text:000000000000027c .L0 
     /tmp/ccNEdkrL.s:625    .text:000000000000027c .L0 
     /tmp/ccNEdkrL.s:629    .text:0000000000000284 .L0 
     /tmp/ccNEdkrL.s:630    .text:0000000000000284 .L0 
     /tmp/ccNEdkrL.s:631    .text:0000000000000284 .L0 
     /tmp/ccNEdkrL.s:638    .text:000000000000028c .L0 
   src/syscall_c.cpp:132    .text:000000000000028c .L0 
     /tmp/ccNEdkrL.s:643    .text:0000000000000290 .L0 
     /tmp/ccNEdkrL.s:644    .text:0000000000000290 .L0 
     /tmp/ccNEdkrL.s:646    .text:0000000000000290 .L0 
     /tmp/ccNEdkrL.s:648    .text:0000000000000298 .L0 
     /tmp/ccNEdkrL.s:649    .text:0000000000000298 .L0 
     /tmp/ccNEdkrL.s:651    .text:000000000000029c .L0 
     /tmp/ccNEdkrL.s:653    .text:00000000000002a0 .L0 
     /tmp/ccNEdkrL.s:659    .text:00000000000002a0 _Z4putcc
     /tmp/ccNEdkrL.s:662    .text:00000000000002a0 .L0 
     /tmp/ccNEdkrL.s:664    .text:00000000000002a0 .L0 
     /tmp/ccNEdkrL.s:665    .text:00000000000002a4 .L0 
     /tmp/ccNEdkrL.s:667    .text:00000000000002a8 .L0 
     /tmp/ccNEdkrL.s:669    .text:00000000000002ac .L0 
     /tmp/ccNEdkrL.s:671    .text:00000000000002ac .L0 
   src/syscall_c.cpp:142    .text:00000000000002ac .L0 
     /tmp/ccNEdkrL.s:677    .text:00000000000002b0 .L0 
     /tmp/ccNEdkrL.s:679    .text:00000000000002b0 .L0 
     /tmp/ccNEdkrL.s:685    .text:00000000000002b8 .L0 
   src/syscall_c.cpp:144    .text:00000000000002b8 .L0 
     /tmp/ccNEdkrL.s:691    .text:00000000000002bc .L0 
     /tmp/ccNEdkrL.s:692    .text:00000000000002c0 .L0 
     /tmp/ccNEdkrL.s:693    .text:00000000000002c0 .L0 
     /tmp/ccNEdkrL.s:695    .text:00000000000002c4 .L0 
     /tmp/ccNEdkrL.s:697    .text:00000000000002c8 .L0 
     /tmp/ccNEdkrL.s:707    .text:00000000000002c8 .L0 
     /tmp/ccNEdkrL.s:190    .text:00000000000000d8 .L0 
     /tmp/ccNEdkrL.s:229    .text:0000000000000108 .L9
     /tmp/ccNEdkrL.s:220    .text:00000000000000fc .L8
     /tmp/ccNEdkrL.s:402    .text:00000000000001ac .L17
     /tmp/ccNEdkrL.s:474    .text:00000000000001f0 .L24
     /tmp/ccNEdkrL.s:546    .text:0000000000000234 .L31
     /tmp/ccNEdkrL.s:2099   .debug_abbrev:0000000000000000 .Ldebug_abbrev0
GAS LISTING /tmp/ccNEdkrL.s 			page 22


     /tmp/ccNEdkrL.s:3692   .debug_str:00000000000006e5 .LASF142
     /tmp/ccNEdkrL.s:3582   .debug_str:00000000000003fc .LASF143
     /tmp/ccNEdkrL.s:3686   .debug_str:00000000000006a7 .LASF144
     /tmp/ccNEdkrL.s:5      .text:0000000000000000 .Ltext0
     /tmp/ccNEdkrL.s:700    .text:00000000000002c8 .Letext0
     /tmp/ccNEdkrL.s:3438   .debug_line:0000000000000000 .Ldebug_line0
     /tmp/ccNEdkrL.s:3544   .debug_str:000000000000030a .LASF0
     /tmp/ccNEdkrL.s:3564   .debug_str:0000000000000392 .LASF1
     /tmp/ccNEdkrL.s:3634   .debug_str:0000000000000567 .LASF2
     /tmp/ccNEdkrL.s:3642   .debug_str:000000000000059e .LASF4
     /tmp/ccNEdkrL.s:3552   .debug_str:0000000000000333 .LASF3
     /tmp/ccNEdkrL.s:3448   .debug_str:0000000000000056 .LASF5
     /tmp/ccNEdkrL.s:3616   .debug_str:00000000000004f6 .LASF6
     /tmp/ccNEdkrL.s:3612   .debug_str:00000000000004d3 .LASF7
     /tmp/ccNEdkrL.s:3556   .debug_str:0000000000000362 .LASF8
     /tmp/ccNEdkrL.s:3524   .debug_str:0000000000000286 .LASF9
     /tmp/ccNEdkrL.s:3528   .debug_str:00000000000002b3 .LASF10
     /tmp/ccNEdkrL.s:3474   .debug_str:0000000000000125 .LASF11
     /tmp/ccNEdkrL.s:3518   .debug_str:0000000000000269 .LASF12
     /tmp/ccNEdkrL.s:3482   .debug_str:000000000000015a .LASF13
     /tmp/ccNEdkrL.s:3472   .debug_str:0000000000000115 .LASF14
     /tmp/ccNEdkrL.s:3666   .debug_str:000000000000062a .LASF15
     /tmp/ccNEdkrL.s:3510   .debug_str:0000000000000210 .LASF16
     /tmp/ccNEdkrL.s:3654   .debug_str:00000000000005d8 .LASF17
     /tmp/ccNEdkrL.s:3722   .debug_str:000000000000087a .LASF18
     /tmp/ccNEdkrL.s:3674   .debug_str:000000000000064f .LASF145
     /tmp/ccNEdkrL.s:3452   .debug_str:0000000000000072 .LASF146
     /tmp/ccNEdkrL.s:3644   .debug_str:00000000000005a5 .LASF83
     /tmp/ccNEdkrL.s:3446   .debug_str:000000000000004a .LASF85
     /tmp/ccNEdkrL.s:3742   .debug_str:00000000000008f2 .LASF42
     /tmp/ccNEdkrL.s:3526   .debug_str:0000000000000296 .LASF147
     /tmp/ccNEdkrL.s:3676   .debug_str:0000000000000657 .LASF19
     /tmp/ccNEdkrL.s:3594   .debug_str:000000000000044a .LASF21
     /tmp/ccNEdkrL.s:3458   .debug_str:00000000000000a0 .LASF23
     /tmp/ccNEdkrL.s:3706   .debug_str:00000000000007f1 .LASF25
     /tmp/ccNEdkrL.s:3590   .debug_str:000000000000042f .LASF20
     /tmp/ccNEdkrL.s:3500   .debug_str:00000000000001e0 .LASF22
     /tmp/ccNEdkrL.s:3702   .debug_str:00000000000007dd .LASF24
     /tmp/ccNEdkrL.s:3600   .debug_str:000000000000046f .LASF26
     /tmp/ccNEdkrL.s:3636   .debug_str:0000000000000575 .LASF27
     /tmp/ccNEdkrL.s:3466   .debug_str:00000000000000cc .LASF28
     /tmp/ccNEdkrL.s:3680   .debug_str:0000000000000682 .LASF29
     /tmp/ccNEdkrL.s:3516   .debug_str:0000000000000253 .LASF30
     /tmp/ccNEdkrL.s:3440   .debug_str:0000000000000000 .LASF31
     /tmp/ccNEdkrL.s:3602   .debug_str:0000000000000486 .LASF32
     /tmp/ccNEdkrL.s:3732   .debug_str:00000000000008ce .LASF33
     /tmp/ccNEdkrL.s:3496   .debug_str:00000000000001b8 .LASF34
     /tmp/ccNEdkrL.s:3568   .debug_str:00000000000003ab .LASF35
     /tmp/ccNEdkrL.s:3716   .debug_str:0000000000000832 .LASF36
     /tmp/ccNEdkrL.s:3746   .debug_str:0000000000000911 .LASF37
     /tmp/ccNEdkrL.s:3726   .debug_str:000000000000088d .LASF38
     /tmp/ccNEdkrL.s:3664   .debug_str:000000000000061d .LASF39
     /tmp/ccNEdkrL.s:3718   .debug_str:000000000000084b .LASF40
     /tmp/ccNEdkrL.s:3608   .debug_str:00000000000004c2 .LASF148
     /tmp/ccNEdkrL.s:3566   .debug_str:00000000000003a5 .LASF149
     /tmp/ccNEdkrL.s:3694   .debug_str:00000000000007a9 .LASF150
     /tmp/ccNEdkrL.s:3690   .debug_str:00000000000006dd .LASF41
GAS LISTING /tmp/ccNEdkrL.s 			page 23


     /tmp/ccNEdkrL.s:3470   .debug_str:00000000000000fe .LASF151
     /tmp/ccNEdkrL.s:3502   .debug_str:00000000000001f7 .LASF43
     /tmp/ccNEdkrL.s:3750   .debug_str:000000000000091f .LASF44
     /tmp/ccNEdkrL.s:3704   .debug_str:00000000000007e9 .LASF45
     /tmp/ccNEdkrL.s:3696   .debug_str:00000000000007b9 .LASF46
     /tmp/ccNEdkrL.s:3652   .debug_str:00000000000005cf .LASF47
     /tmp/ccNEdkrL.s:3672   .debug_str:0000000000000646 .LASF48
     /tmp/ccNEdkrL.s:3604   .debug_str:0000000000000499 .LASF49
     /tmp/ccNEdkrL.s:3752   .debug_str:0000000000000925 .LASF50
     /tmp/ccNEdkrL.s:3462   .debug_str:00000000000000b1 .LASF51
     /tmp/ccNEdkrL.s:3570   .debug_str:00000000000003b8 .LASF53
     /tmp/ccNEdkrL.s:3492   .debug_str:00000000000001a0 .LASF152
     /tmp/ccNEdkrL.s:3444   .debug_str:0000000000000022 .LASF153
     /tmp/ccNEdkrL.s:3504   .debug_str:00000000000001fc .LASF52
     /tmp/ccNEdkrL.s:3478   .debug_str:000000000000013d .LASF54
     /tmp/ccNEdkrL.s:3646   .debug_str:00000000000005aa .LASF74
     /tmp/ccNEdkrL.s:3738   .debug_str:00000000000008e1 .LASF55
     /tmp/ccNEdkrL.s:3662   .debug_str:0000000000000618 .LASF56
     /tmp/ccNEdkrL.s:3464   .debug_str:00000000000000bf .LASF57
     /tmp/ccNEdkrL.s:3508   .debug_str:000000000000020a .LASF58
     /tmp/ccNEdkrL.s:3578   .debug_str:00000000000003ea .LASF59
     /tmp/ccNEdkrL.s:3506   .debug_str:0000000000000205 .LASF60
     /tmp/ccNEdkrL.s:3592   .debug_str:000000000000043a .LASF61
     /tmp/ccNEdkrL.s:3670   .debug_str:000000000000063f .LASF62
     /tmp/ccNEdkrL.s:3658   .debug_str:0000000000000601 .LASF63
     /tmp/ccNEdkrL.s:3486   .debug_str:0000000000000185 .LASF64
     /tmp/ccNEdkrL.s:3454   .debug_str:000000000000007c .LASF65
     /tmp/ccNEdkrL.s:3536   .debug_str:00000000000002e5 .LASF66
     /tmp/ccNEdkrL.s:3586   .debug_str:0000000000000418 .LASF67
     /tmp/ccNEdkrL.s:3632   .debug_str:0000000000000557 .LASF68
     /tmp/ccNEdkrL.s:3678   .debug_str:0000000000000662 .LASF69
     /tmp/ccNEdkrL.s:3542   .debug_str:0000000000000304 .LASF70
     /tmp/ccNEdkrL.s:3514   .debug_str:0000000000000242 .LASF71
     /tmp/ccNEdkrL.s:3748   .debug_str:0000000000000917 .LASF72
     /tmp/ccNEdkrL.s:3730   .debug_str:00000000000008bb .LASF73
     /tmp/ccNEdkrL.s:3710   .debug_str:0000000000000818 .LASF75
     /tmp/ccNEdkrL.s:3698   .debug_str:00000000000007c3 .LASF76
     /tmp/ccNEdkrL.s:3724   .debug_str:0000000000000883 .LASF77
     /tmp/ccNEdkrL.s:3712   .debug_str:000000000000081f .LASF154
     /tmp/ccNEdkrL.s:3660   .debug_str:0000000000000613 .LASF78
     /tmp/ccNEdkrL.s:3598   .debug_str:000000000000046a .LASF79
     /tmp/ccNEdkrL.s:3588   .debug_str:000000000000042a .LASF80
     /tmp/ccNEdkrL.s:3656   .debug_str:00000000000005ee .LASF81
     /tmp/ccNEdkrL.s:3498   .debug_str:00000000000001c9 .LASF82
     /tmp/ccNEdkrL.s:3494   .debug_str:00000000000001ae .LASF84
     /tmp/ccNEdkrL.s:3628   .debug_str:0000000000000535 .LASF86
     /tmp/ccNEdkrL.s:3558   .debug_str:0000000000000375 .LASF87
     /tmp/ccNEdkrL.s:3468   .debug_str:00000000000000e1 .LASF88
     /tmp/ccNEdkrL.s:3572   .debug_str:00000000000003d1 .LASF89
     /tmp/ccNEdkrL.s:3512   .debug_str:0000000000000226 .LASF90
     /tmp/ccNEdkrL.s:3610   .debug_str:00000000000004c7 .LASF91
     /tmp/ccNEdkrL.s:3728   .debug_str:000000000000089d .LASF92
     /tmp/ccNEdkrL.s:3760   .debug_str:0000000000000952 .LASF93
     /tmp/ccNEdkrL.s:3484   .debug_str:000000000000016a .LASF94
     /tmp/ccNEdkrL.s:3648   .debug_str:00000000000005bb .LASF95
     /tmp/ccNEdkrL.s:3554   .debug_str:0000000000000345 .LASF96
     /tmp/ccNEdkrL.s:3622   .debug_str:0000000000000513 .LASF97
GAS LISTING /tmp/ccNEdkrL.s 			page 24


     /tmp/ccNEdkrL.s:3442   .debug_str:0000000000000008 .LASF98
     /tmp/ccNEdkrL.s:3682   .debug_str:000000000000068d .LASF99
     /tmp/ccNEdkrL.s:3758   .debug_str:0000000000000948 .LASF100
     /tmp/ccNEdkrL.s:3522   .debug_str:000000000000027d .LASF101
     /tmp/ccNEdkrL.s:3688   .debug_str:00000000000006cf .LASF102
     /tmp/ccNEdkrL.s:3618   .debug_str:00000000000004fd .LASF103
     /tmp/ccNEdkrL.s:3708   .debug_str:0000000000000808 .LASF104
     /tmp/ccNEdkrL.s:3476   .debug_str:0000000000000134 .LASF105
     /tmp/ccNEdkrL.s:3480   .debug_str:0000000000000150 .LASF106
     /tmp/ccNEdkrL.s:3596   .debug_str:0000000000000461 .LASF107
     /tmp/ccNEdkrL.s:3640   .debug_str:0000000000000593 .LASF108
     /tmp/ccNEdkrL.s:3740   .debug_str:00000000000008e7 .LASF109
     /tmp/ccNEdkrL.s:3734   .debug_str:00000000000008d4 .LASF110
     /tmp/ccNEdkrL.s:3700   .debug_str:00000000000007d7 .LASF111
     /tmp/ccNEdkrL.s:3574   .debug_str:00000000000003d9 .LASF112
     /tmp/ccNEdkrL.s:3540   .debug_str:00000000000002f4 .LASF155
     /tmp/ccNEdkrL.s:3580   .debug_str:00000000000003f7 .LASF113
     /tmp/ccNEdkrL.s:3668   .debug_str:0000000000000636 .LASF114
     /tmp/ccNEdkrL.s:660    .text:00000000000002a0 .LFB71
     /tmp/ccNEdkrL.s:698    .text:00000000000002c8 .LFE71
     /tmp/ccNEdkrL.s:3546   .debug_str:0000000000000317 .LASF115
     /tmp/ccNEdkrL.s:3720   .debug_str:0000000000000871 .LASF116
     /tmp/ccNEdkrL.s:606    .text:0000000000000268 .LFB70
     /tmp/ccNEdkrL.s:654    .text:00000000000002a0 .LFE70
     /tmp/ccNEdkrL.s:3148   .debug_loc:0000000000000000 .LLST17
     /tmp/ccNEdkrL.s:3630   .debug_str:000000000000054c .LASF117
     /tmp/ccNEdkrL.s:3614   .debug_str:00000000000004e6 .LASF118
     /tmp/ccNEdkrL.s:559    .text:000000000000023c .LFB69
     /tmp/ccNEdkrL.s:600    .text:0000000000000268 .LFE69
     /tmp/ccNEdkrL.s:3562   .debug_str:000000000000038c .LASF119
     /tmp/ccNEdkrL.s:3161   .debug_loc:0000000000000038 .LLST16
     /tmp/ccNEdkrL.s:3534   .debug_str:00000000000002da .LASF120
     /tmp/ccNEdkrL.s:3684   .debug_str:0000000000000692 .LASF121
     /tmp/ccNEdkrL.s:487    .text:00000000000001f8 .LFB68
     /tmp/ccNEdkrL.s:553    .text:000000000000023c .LFE68
     /tmp/ccNEdkrL.s:3175   .debug_loc:0000000000000071 .LLST14
     /tmp/ccNEdkrL.s:3200   .debug_loc:00000000000000d3 .LLST15
     /tmp/ccNEdkrL.s:3650   .debug_str:00000000000005c6 .LASF122
     /tmp/ccNEdkrL.s:3756   .debug_str:0000000000000936 .LASF123
     /tmp/ccNEdkrL.s:415    .text:00000000000001b4 .LFB67
     /tmp/ccNEdkrL.s:481    .text:00000000000001f8 .LFE67
     /tmp/ccNEdkrL.s:3213   .debug_loc:000000000000010b .LLST12
     /tmp/ccNEdkrL.s:3238   .debug_loc:000000000000016d .LLST13
     /tmp/ccNEdkrL.s:3620   .debug_str:0000000000000509 .LASF124
     /tmp/ccNEdkrL.s:3456   .debug_str:000000000000008d .LASF125
     /tmp/ccNEdkrL.s:343    .text:0000000000000170 .LFB66
     /tmp/ccNEdkrL.s:409    .text:00000000000001b4 .LFE66
     /tmp/ccNEdkrL.s:3736   .debug_str:00000000000008da .LASF126
     /tmp/ccNEdkrL.s:3251   .debug_loc:00000000000001a5 .LLST10
     /tmp/ccNEdkrL.s:3276   .debug_loc:0000000000000207 .LLST11
     /tmp/ccNEdkrL.s:3626   .debug_str:000000000000052c .LASF127
     /tmp/ccNEdkrL.s:3638   .debug_str:000000000000057f .LASF128
     /tmp/ccNEdkrL.s:277    .text:0000000000000134 .LFB65
     /tmp/ccNEdkrL.s:337    .text:0000000000000170 .LFE65
     /tmp/ccNEdkrL.s:3289   .debug_loc:000000000000023f .LLST8
     /tmp/ccNEdkrL.s:3460   .debug_str:00000000000000ac .LASF129
     /tmp/ccNEdkrL.s:3303   .debug_loc:0000000000000278 .LLST9
GAS LISTING /tmp/ccNEdkrL.s 			page 25


     /tmp/ccNEdkrL.s:3624   .debug_str:000000000000051c .LASF156
     /tmp/ccNEdkrL.s:3450   .debug_str:000000000000005d .LASF157
     /tmp/ccNEdkrL.s:241    .text:0000000000000110 .LFB64
     /tmp/ccNEdkrL.s:271    .text:0000000000000134 .LFE64
     /tmp/ccNEdkrL.s:3576   .debug_str:00000000000003de .LASF130
     /tmp/ccNEdkrL.s:3548   .debug_str:000000000000031c .LASF131
     /tmp/ccNEdkrL.s:179    .text:00000000000000cc .LFB63
     /tmp/ccNEdkrL.s:235    .text:0000000000000110 .LFE63
     /tmp/ccNEdkrL.s:193    .text:00000000000000e4 .LBB4
     /tmp/ccNEdkrL.s:201    .text:00000000000000e8 .LBE4
     /tmp/ccNEdkrL.s:3316   .debug_loc:00000000000002b0 .LLST7
     /tmp/ccNEdkrL.s:3714   .debug_str:0000000000000824 .LASF132
     /tmp/ccNEdkrL.s:3606   .debug_str:00000000000004a1 .LASF133
     /tmp/ccNEdkrL.s:75     .text:0000000000000050 .LFB62
     /tmp/ccNEdkrL.s:173    .text:00000000000000cc .LFE62
     /tmp/ccNEdkrL.s:3323   .debug_loc:00000000000002d3 .LLST2
     /tmp/ccNEdkrL.s:3560   .debug_str:000000000000037e .LASF134
     /tmp/ccNEdkrL.s:3341   .debug_loc:000000000000031f .LLST3
     /tmp/ccNEdkrL.s:3359   .debug_loc:000000000000036b .LLST4
     /tmp/ccNEdkrL.s:3377   .debug_loc:00000000000003b7 .LLST5
     /tmp/ccNEdkrL.s:3390   .debug_loc:00000000000003ef .LLST6
     /tmp/ccNEdkrL.s:106    .text:0000000000000088 .LVL7
     /tmp/ccNEdkrL.s:3538   .debug_str:00000000000002eb .LASF135
     /tmp/ccNEdkrL.s:3744   .debug_str:0000000000000903 .LASF136
     /tmp/ccNEdkrL.s:43     .text:0000000000000028 .LFB61
     /tmp/ccNEdkrL.s:69     .text:0000000000000050 .LFE61
     /tmp/ccNEdkrL.s:3397   .debug_loc:0000000000000412 .LLST1
     /tmp/ccNEdkrL.s:58     .text:0000000000000040 .LVL3
     /tmp/ccNEdkrL.s:3584   .debug_str:000000000000040e .LASF137
     /tmp/ccNEdkrL.s:3532   .debug_str:00000000000002cc .LASF138
     /tmp/ccNEdkrL.s:10     .text:0000000000000000 .LFB60
     /tmp/ccNEdkrL.s:37     .text:0000000000000028 .LFE60
     /tmp/ccNEdkrL.s:3490   .debug_str:000000000000019b .LASF139
     /tmp/ccNEdkrL.s:3411   .debug_loc:000000000000044b .LLST0
     /tmp/ccNEdkrL.s:26     .text:0000000000000018 .LVL1
     /tmp/ccNEdkrL.s:3520   .debug_str:0000000000000278 .LASF158
     /tmp/ccNEdkrL.s:3550   .debug_str:000000000000032d .LASF159
     /tmp/ccNEdkrL.s:3488   .debug_str:000000000000018b .LASF160
     /tmp/ccNEdkrL.s:3530   .debug_str:00000000000002c1 .LASF140
     /tmp/ccNEdkrL.s:3754   .debug_str:000000000000092a .LASF141
     /tmp/ccNEdkrL.s:628    .text:0000000000000284 .LVL39
     /tmp/ccNEdkrL.s:632    .text:0000000000000288 .LVL40
     /tmp/ccNEdkrL.s:562    .text:000000000000023c .LVL37
     /tmp/ccNEdkrL.s:592    .text:000000000000025c .LVL38
     /tmp/ccNEdkrL.s:490    .text:00000000000001f8 .LVL31
     /tmp/ccNEdkrL.s:537    .text:0000000000000228 .LVL34
     /tmp/ccNEdkrL.s:545    .text:0000000000000234 .LVL35
     /tmp/ccNEdkrL.s:549    .text:0000000000000238 .LVL36
     /tmp/ccNEdkrL.s:504    .text:000000000000020c .LVL32
     /tmp/ccNEdkrL.s:523    .text:000000000000021c .LVL33
     /tmp/ccNEdkrL.s:418    .text:00000000000001b4 .LVL25
     /tmp/ccNEdkrL.s:465    .text:00000000000001e4 .LVL28
     /tmp/ccNEdkrL.s:473    .text:00000000000001f0 .LVL29
     /tmp/ccNEdkrL.s:477    .text:00000000000001f4 .LVL30
     /tmp/ccNEdkrL.s:432    .text:00000000000001c8 .LVL26
     /tmp/ccNEdkrL.s:451    .text:00000000000001d8 .LVL27
     /tmp/ccNEdkrL.s:346    .text:0000000000000170 .LVL19
GAS LISTING /tmp/ccNEdkrL.s 			page 26


     /tmp/ccNEdkrL.s:393    .text:00000000000001a0 .LVL22
     /tmp/ccNEdkrL.s:401    .text:00000000000001ac .LVL23
     /tmp/ccNEdkrL.s:405    .text:00000000000001b0 .LVL24
     /tmp/ccNEdkrL.s:360    .text:0000000000000184 .LVL20
     /tmp/ccNEdkrL.s:379    .text:0000000000000194 .LVL21
     /tmp/ccNEdkrL.s:280    .text:0000000000000134 .LVL15
     /tmp/ccNEdkrL.s:329    .text:0000000000000164 .LVL18
     /tmp/ccNEdkrL.s:291    .text:0000000000000144 .LVL16
     /tmp/ccNEdkrL.s:315    .text:0000000000000158 .LVL17
     /tmp/ccNEdkrL.s:192    .text:00000000000000e4 .LVL13
     /tmp/ccNEdkrL.s:199    .text:00000000000000e8 .LVL14
     /tmp/ccNEdkrL.s:78     .text:0000000000000050 .LVL4
     /tmp/ccNEdkrL.s:104    .text:0000000000000080 .LVL6
     /tmp/ccNEdkrL.s:162    .text:00000000000000bc .LVL10
     /tmp/ccNEdkrL.s:165    .text:00000000000000c0 .LVL11
     /tmp/ccNEdkrL.s:168    .text:00000000000000c4 .LVL12
     /tmp/ccNEdkrL.s:100    .text:000000000000007c .LVL5
     /tmp/ccNEdkrL.s:140    .text:00000000000000a4 .LVL8
     /tmp/ccNEdkrL.s:154    .text:00000000000000b0 .LVL9
     /tmp/ccNEdkrL.s:46     .text:0000000000000028 .LVL2
     /tmp/ccNEdkrL.s:14     .text:0000000000000000 .LVL0
     /tmp/ccNEdkrL.s:708    .debug_info:0000000000000000 .Ldebug_info0

UNDEFINED SYMBOLS
__mem_alloc
__mem_free
_Znam
_ZN3TCB7runningE
