GAS LISTING /tmp/ccX8Xjoq.s 			page 1


   1              		.file	"syscall_c.cpp"
   2              		.option pic
   3              		.option norelax
   4              		.text
   5              	.Ltext0:
   6              		.align	2
   7              		.globl	_Z9mem_allocm
   9              	_Z9mem_allocm:
  10              	.LFB20:
  11              		.file 1 "src/syscall_c.cpp"
   1:src/syscall_c.cpp **** #include "../h/syscall_c.h"
   2:src/syscall_c.cpp **** #include "../lib/mem.h"
   3:src/syscall_c.cpp **** #include "../h/tcb.hpp"
   4:src/syscall_c.cpp **** #include "../h/codes.h"
   5:src/syscall_c.cpp **** 
   6:src/syscall_c.cpp **** 
   7:src/syscall_c.cpp **** 
   8:src/syscall_c.cpp **** void* mem_alloc (size_t size) {
  12              		.loc 1 8 31
  13              		.cfi_startproc
  14              	.LVL0:
  15 0000 130101FF 		addi	sp,sp,-16
  16              		.cfi_def_cfa_offset 16
  17 0004 23341100 		sd	ra,8(sp)
  18 0008 23308100 		sd	s0,0(sp)
  19              		.cfi_offset 1, -8
  20              		.cfi_offset 8, -16
  21 000c 13040101 		addi	s0,sp,16
  22              		.cfi_def_cfa 8, 0
   9:src/syscall_c.cpp ****     return __mem_alloc(size);
  23              		.loc 1 9 5
  24              		.loc 1 9 23 is_stmt 0
  25 0010 97000000 		call	__mem_alloc@plt
  25      E7800000 
  26              	.LVL1:
  10:src/syscall_c.cpp **** }
  27              		.loc 1 10 1
  28 0018 83308100 		ld	ra,8(sp)
  29              		.cfi_restore 1
  30 001c 03340100 		ld	s0,0(sp)
  31              		.cfi_restore 8
  32              		.cfi_def_cfa 2, 16
  33 0020 13010101 		addi	sp,sp,16
  34              		.cfi_def_cfa_offset 0
  35 0024 67800000 		jr	ra
  36              		.cfi_endproc
  37              	.LFE20:
  39              		.align	2
  40              		.globl	_Z8mem_freePv
  42              	_Z8mem_freePv:
  43              	.LFB21:
  11:src/syscall_c.cpp **** 
  12:src/syscall_c.cpp **** int mem_free (void* v) {
  44              		.loc 1 12 24 is_stmt 1
  45              		.cfi_startproc
  46              	.LVL2:
  47 0028 130101FF 		addi	sp,sp,-16
GAS LISTING /tmp/ccX8Xjoq.s 			page 2


  48              		.cfi_def_cfa_offset 16
  49 002c 23341100 		sd	ra,8(sp)
  50 0030 23308100 		sd	s0,0(sp)
  51              		.cfi_offset 1, -8
  52              		.cfi_offset 8, -16
  53 0034 13040101 		addi	s0,sp,16
  54              		.cfi_def_cfa 8, 0
  13:src/syscall_c.cpp ****     return __mem_free(v);
  55              		.loc 1 13 5
  56              		.loc 1 13 22 is_stmt 0
  57 0038 97000000 		call	__mem_free@plt
  57      E7800000 
  58              	.LVL3:
  14:src/syscall_c.cpp **** }
  59              		.loc 1 14 1
  60 0040 83308100 		ld	ra,8(sp)
  61              		.cfi_restore 1
  62 0044 03340100 		ld	s0,0(sp)
  63              		.cfi_restore 8
  64              		.cfi_def_cfa 2, 16
  65 0048 13010101 		addi	sp,sp,16
  66              		.cfi_def_cfa_offset 0
  67 004c 67800000 		jr	ra
  68              		.cfi_endproc
  69              	.LFE21:
  71              		.align	2
  72              		.globl	_Z13thread_createPP3TCBPFvPvES2_
  74              	_Z13thread_createPP3TCBPFvPvES2_:
  75              	.LFB22:
  15:src/syscall_c.cpp **** 
  16:src/syscall_c.cpp **** int thread_create (thread_t* handle, void(*start_routine)(void*), void* arg) {
  76              		.loc 1 16 78 is_stmt 1
  77              		.cfi_startproc
  78              	.LVL4:
  79 0050 130101FD 		addi	sp,sp,-48
  80              		.cfi_def_cfa_offset 48
  81 0054 23341102 		sd	ra,40(sp)
  82 0058 23308102 		sd	s0,32(sp)
  83 005c 233C9100 		sd	s1,24(sp)
  84 0060 23382101 		sd	s2,16(sp)
  85 0064 23343101 		sd	s3,8(sp)
  86              		.cfi_offset 1, -8
  87              		.cfi_offset 8, -16
  88              		.cfi_offset 9, -24
  89              		.cfi_offset 18, -32
  90              		.cfi_offset 19, -40
  91 0068 13040103 		addi	s0,sp,48
  92              		.cfi_def_cfa 8, 0
  93 006c 93090500 		mv	s3,a0
  94 0070 13890500 		mv	s2,a1
  95 0074 93040600 		mv	s1,a2
  17:src/syscall_c.cpp **** //Ovde moze nastati problem oko registara.
  18:src/syscall_c.cpp **** 
  19:src/syscall_c.cpp ****     auto *stack = (uint64*)(new uint64[DEFAULT_STACK_SIZE]);
  96              		.loc 1 19 5
  97              		.loc 1 19 58 is_stmt 0
  98 0078 37850000 		li	a0,32768
GAS LISTING /tmp/ccX8Xjoq.s 			page 3


  99              	.LVL5:
 100 007c 97000000 		call	_Znam@plt
 100      E7800000 
 101              	.LVL6:
  20:src/syscall_c.cpp ****     __asm__ volatile("mv a4, %0" : : "r" (stack));
 102              		.loc 1 20 5 is_stmt 1
 103              		.loc 1 20 50 is_stmt 0
 104              	#APP
 105              	# 20 "src/syscall_c.cpp" 1
  21              	    __asm__ volatile("mv a0, %0" : : "r" (ThreadCreate));
 106              		mv a4, a0
 107              	# 0 "" 2
 108              		.loc 1 21 5 is_stmt 1
 109              		.loc 1 21 57 is_stmt 0
 110              	#NO_APP
 111 0088 9307B000 		li	a5,11
 112              	#APP
 113              	# 21 "src/syscall_c.cpp" 1
  22              	    __asm__ volatile("mv a1, %0" : : "r" (handle));
 114              		mv a0, a5
 115              	# 0 "" 2
 116              		.loc 1 22 5 is_stmt 1
 117              		.loc 1 22 51 is_stmt 0
 118              	# 22 "src/syscall_c.cpp" 1
  23              	    __asm__ volatile("mv a2, %0" : : "r" (start_routine));
 119              		mv a1, s3
 120              	# 0 "" 2
 121              		.loc 1 23 5 is_stmt 1
 122              		.loc 1 23 58 is_stmt 0
 123              	# 23 "src/syscall_c.cpp" 1
  24              	    __asm__ volatile("mv a3, %0" : : "r" (arg));
 124              		mv a2, s2
 125              	# 0 "" 2
 126              		.loc 1 24 5 is_stmt 1
 127              		.loc 1 24 48 is_stmt 0
 128              	# 24 "src/syscall_c.cpp" 1
  25              	
  26:src/syscall_c.cpp **** //    __asm__ volatile("mv a2, %0" : : "r" (handle));
  27:src/syscall_c.cpp **** //    __asm__ volatile("mv a1, %0" : : "r" (start_routine));
  28:src/syscall_c.cpp **** //    __asm__ volatile("mv a5, %0" : : "r" (arg));
  29:src/syscall_c.cpp **** //    __asm__ volatile("mv a3, %0" : : "r" (ThreadCreate));
  30:src/syscall_c.cpp **** //    __asm__ volatile("mv a4, %0" : : "r" (stack));
  31:src/syscall_c.cpp ****     __asm__ volatile ("ecall");
 129              		mv a3, s1
 130              	# 0 "" 2
 131              		.loc 1 31 5 is_stmt 1
 132              		.loc 1 31 31 is_stmt 0
 133              	# 31 "src/syscall_c.cpp" 1
  32              	    return 0;
 134              		ecall
 135              	# 0 "" 2
 136              		.loc 1 32 5 is_stmt 1
  33:src/syscall_c.cpp **** 
  34:src/syscall_c.cpp **** }
 137              		.loc 1 34 1 is_stmt 0
 138              	#NO_APP
 139 00a0 13050000 		li	a0,0
GAS LISTING /tmp/ccX8Xjoq.s 			page 4


 140              	.LVL7:
 141 00a4 83308102 		ld	ra,40(sp)
 142              		.cfi_restore 1
 143 00a8 03340102 		ld	s0,32(sp)
 144              		.cfi_restore 8
 145              		.cfi_def_cfa 2, 48
 146 00ac 83348101 		ld	s1,24(sp)
 147              		.cfi_restore 9
 148              	.LVL8:
 149 00b0 03390101 		ld	s2,16(sp)
 150              		.cfi_restore 18
 151              	.LVL9:
 152 00b4 83398100 		ld	s3,8(sp)
 153              		.cfi_restore 19
 154              	.LVL10:
 155 00b8 13010103 		addi	sp,sp,48
 156              		.cfi_def_cfa_offset 0
 157 00bc 67800000 		jr	ra
 158              		.cfi_endproc
 159              	.LFE22:
 161              		.section	.rodata.str1.8,"aMS",@progbits,1
 162              		.align	3
 163              	.LC0:
 164 0000 47617369 		.string	"Gasimo nit: "
 164      6D6F206E 
 164      69743A20 
 164      00
 165 000d 000000   		.align	3
 166              	.LC1:
 167 0010 0A00     		.string	"\n"
 168              		.text
 169              		.align	2
 170              		.globl	_Z11thread_exitv
 172              	_Z11thread_exitv:
 173              	.LFB23:
  35:src/syscall_c.cpp **** 
  36:src/syscall_c.cpp **** int thread_exit () {
 174              		.loc 1 36 20 is_stmt 1
 175              		.cfi_startproc
 176 00c0 130101FF 		addi	sp,sp,-16
 177              		.cfi_def_cfa_offset 16
 178 00c4 23341100 		sd	ra,8(sp)
 179 00c8 23308100 		sd	s0,0(sp)
 180              		.cfi_offset 1, -8
 181              		.cfi_offset 8, -16
 182 00cc 13040101 		addi	s0,sp,16
 183              		.cfi_def_cfa 8, 0
  37:src/syscall_c.cpp ****     printString("Gasimo nit: ");
 184              		.loc 1 37 5
 185              		.loc 1 37 16 is_stmt 0
 186 00d0 17050000 		lla	a0,.LC0
 186      13050500 
 187 00d8 97000000 		call	_Z11printStringPKc@plt
 187      E7800000 
 188              	.LVL11:
  38:src/syscall_c.cpp ****     printInteger(TCB::running->getId());
 189              		.loc 1 38 5 is_stmt 1
GAS LISTING /tmp/ccX8Xjoq.s 			page 5


 190              		.loc 1 38 37 is_stmt 0
 191 00e0 97070000 		la	a5,_ZN3TCB7runningE
 191      83B70700 
 192 00e8 83B70700 		ld	a5,0(a5)
 193              	.LVL12:
 194              	.LBB6:
 195              	.LBB7:
 196              		.file 2 "src/../h/tcb.hpp"
   1:src/../h/tcb.hpp **** //
   2:src/../h/tcb.hpp **** // Created by marko on 20.4.22..
   3:src/../h/tcb.hpp **** //
   4:src/../h/tcb.hpp **** 
   5:src/../h/tcb.hpp **** #ifndef OS1_VEZBE07_RISCV_CONTEXT_SWITCH_2_INTERRUPT_TCB_HPP
   6:src/../h/tcb.hpp **** #define OS1_VEZBE07_RISCV_CONTEXT_SWITCH_2_INTERRUPT_TCB_HPP
   7:src/../h/tcb.hpp **** 
   8:src/../h/tcb.hpp **** #include "../lib/hw.h"
   9:src/../h/tcb.hpp **** #include "scheduler.hpp"
  10:src/../h/tcb.hpp **** #include "../h/print.hpp"
  11:src/../h/tcb.hpp **** 
  12:src/../h/tcb.hpp **** // Thread Control Block
  13:src/../h/tcb.hpp **** class TCB
  14:src/../h/tcb.hpp **** {
  15:src/../h/tcb.hpp **** public:
  16:src/../h/tcb.hpp ****     ~TCB() {
  17:src/../h/tcb.hpp ****         delete[] stack;
  18:src/../h/tcb.hpp ****     }
  19:src/../h/tcb.hpp **** 
  20:src/../h/tcb.hpp ****     bool isFinished() const { return finished; }
  21:src/../h/tcb.hpp ****     void setFinished(bool value) { finished = value; }
  22:src/../h/tcb.hpp ****     void setSleeping(bool value) { sleeping = value; }
  23:src/../h/tcb.hpp ****     bool isSleeping() const { return sleeping; }
  24:src/../h/tcb.hpp ****     uint64 getTimeSlice() const { return timeSlice; }
  25:src/../h/tcb.hpp **** 
  26:src/../h/tcb.hpp ****     using Body = void (*)();
  27:src/../h/tcb.hpp ****     static TCB *createThread(TCB** handle, Body body, void* arg, uint64* stack_space);
  28:src/../h/tcb.hpp ****     static void yield();
  29:src/../h/tcb.hpp ****     int getId() { return id; }
 197              		.loc 2 29 19 is_stmt 1
 198              	.LBE7:
 199              	.LBE6:
 200              		.loc 1 38 17 is_stmt 0
 201 00ec 03A50703 		lw	a0,48(a5)
 202 00f0 97000000 		call	_Z12printIntegerm@plt
 202      E7800000 
 203              	.LVL13:
  39:src/syscall_c.cpp ****     printString("\n");
 204              		.loc 1 39 5 is_stmt 1
 205              		.loc 1 39 16 is_stmt 0
 206 00f8 17050000 		lla	a0,.LC1
 206      13050500 
 207 0100 97000000 		call	_Z11printStringPKc@plt
 207      E7800000 
 208              	.LVL14:
  40:src/syscall_c.cpp ****     __asm__ volatile("mv a0, %0" : : "r" (ThreadExit));
 209              		.loc 1 40 5 is_stmt 1
 210              		.loc 1 40 55 is_stmt 0
 211 0108 9307C000 		li	a5,12
GAS LISTING /tmp/ccX8Xjoq.s 			page 6


 212              	#APP
 213              	# 40 "src/syscall_c.cpp" 1
  41              	    __asm__ volatile ("ecall");
 214              		mv a0, a5
 215              	# 0 "" 2
 216              		.loc 1 41 5 is_stmt 1
 217              		.loc 1 41 31 is_stmt 0
 218              	# 41 "src/syscall_c.cpp" 1
  42              	    return 0;
 219              		ecall
 220              	# 0 "" 2
 221              		.loc 1 42 5 is_stmt 1
  43:src/syscall_c.cpp **** }
 222              		.loc 1 43 1 is_stmt 0
 223              	#NO_APP
 224 0114 13050000 		li	a0,0
 225 0118 83308100 		ld	ra,8(sp)
 226              		.cfi_restore 1
 227 011c 03340100 		ld	s0,0(sp)
 228              		.cfi_restore 8
 229              		.cfi_def_cfa 2, 16
 230 0120 13010101 		addi	sp,sp,16
 231              		.cfi_def_cfa_offset 0
 232 0124 67800000 		jr	ra
 233              		.cfi_endproc
 234              	.LFE23:
 236              		.align	2
 237              		.globl	_Z15thread_dispatchv
 239              	_Z15thread_dispatchv:
 240              	.LFB24:
  44:src/syscall_c.cpp **** 
  45:src/syscall_c.cpp **** void thread_dispatch () {
 241              		.loc 1 45 25 is_stmt 1
 242              		.cfi_startproc
 243 0128 130101FF 		addi	sp,sp,-16
 244              		.cfi_def_cfa_offset 16
 245 012c 23348100 		sd	s0,8(sp)
 246              		.cfi_offset 8, -8
 247 0130 13040101 		addi	s0,sp,16
 248              		.cfi_def_cfa 8, 0
  46:src/syscall_c.cpp **** 
  47:src/syscall_c.cpp ****     __asm__ volatile("mv a0, %0" : : "r" (ThreadDispatch));
 249              		.loc 1 47 5
 250              		.loc 1 47 59 is_stmt 0
 251 0134 9307D000 		li	a5,13
 252              	#APP
 253              	# 47 "src/syscall_c.cpp" 1
  48              	    __asm__ volatile ("ecall");
 254              		mv a0, a5
 255              	# 0 "" 2
 256              		.loc 1 48 5 is_stmt 1
 257              		.loc 1 48 31 is_stmt 0
 258              	# 48 "src/syscall_c.cpp" 1
  49              	
  50:src/syscall_c.cpp **** }
 259              		ecall
 260              	# 0 "" 2
GAS LISTING /tmp/ccX8Xjoq.s 			page 7


 261              		.loc 1 50 1
 262              	#NO_APP
 263 0140 03348100 		ld	s0,8(sp)
 264              		.cfi_restore 8
 265              		.cfi_def_cfa 2, 16
 266 0144 13010101 		addi	sp,sp,16
 267              		.cfi_def_cfa_offset 0
 268 0148 67800000 		jr	ra
 269              		.cfi_endproc
 270              	.LFE24:
 272              		.section	.rodata.str1.8
 273 0012 00000000 		.align	3
 273      0000
 274              	.LC2:
 275 0018 4E697420 		.string	"Nit "
 275      00
 276 001d 000000   		.align	3
 277              	.LC3:
 278 0020 20757370 		.string	" uspavana na: "
 278      6176616E 
 278      61206E61 
 278      3A2000
 279 002f 00       		.align	3
 280              	.LC4:
 281 0030 2073656B 		.string	" sekundi\n"
 281      756E6469 
 281      0A00
 282              		.text
 283              		.align	2
 284              		.globl	_Z10time_sleepm
 286              	_Z10time_sleepm:
 287              	.LFB25:
  51:src/syscall_c.cpp **** //
  52:src/syscall_c.cpp **** //int sem_signal (sem_t id) {
  53:src/syscall_c.cpp **** //
  54:src/syscall_c.cpp **** //}
  55:src/syscall_c.cpp **** 
  56:src/syscall_c.cpp **** int time_sleep (time_t slice) {
 288              		.loc 1 56 31 is_stmt 1
 289              		.cfi_startproc
 290              	.LVL15:
 291 014c 130101FE 		addi	sp,sp,-32
 292              		.cfi_def_cfa_offset 32
 293 0150 233C1100 		sd	ra,24(sp)
 294 0154 23388100 		sd	s0,16(sp)
 295 0158 23349100 		sd	s1,8(sp)
 296              		.cfi_offset 1, -8
 297              		.cfi_offset 8, -16
 298              		.cfi_offset 9, -24
 299 015c 13040102 		addi	s0,sp,32
 300              		.cfi_def_cfa 8, 0
 301 0160 93040500 		mv	s1,a0
  57:src/syscall_c.cpp **** 
  58:src/syscall_c.cpp ****     printString("Nit ");
 302              		.loc 1 58 5
 303              		.loc 1 58 16 is_stmt 0
 304 0164 17050000 		lla	a0,.LC2
GAS LISTING /tmp/ccX8Xjoq.s 			page 8


 304      13050500 
 305              	.LVL16:
 306 016c 97000000 		call	_Z11printStringPKc@plt
 306      E7800000 
 307              	.LVL17:
  59:src/syscall_c.cpp ****     printInteger(TCB::running->getId());
 308              		.loc 1 59 5 is_stmt 1
 309              		.loc 1 59 37 is_stmt 0
 310 0174 97070000 		la	a5,_ZN3TCB7runningE
 310      83B70700 
 311 017c 83B70700 		ld	a5,0(a5)
 312              	.LVL18:
 313              	.LBB8:
 314              	.LBB9:
 315              		.loc 2 29 19 is_stmt 1
 316              	.LBE9:
 317              	.LBE8:
 318              		.loc 1 59 17 is_stmt 0
 319 0180 03A50703 		lw	a0,48(a5)
 320 0184 97000000 		call	_Z12printIntegerm@plt
 320      E7800000 
 321              	.LVL19:
  60:src/syscall_c.cpp ****     printString(" uspavana na: ");
 322              		.loc 1 60 5 is_stmt 1
 323              		.loc 1 60 16 is_stmt 0
 324 018c 17050000 		lla	a0,.LC3
 324      13050500 
 325 0194 97000000 		call	_Z11printStringPKc@plt
 325      E7800000 
 326              	.LVL20:
  61:src/syscall_c.cpp ****     printInteger(slice / 10);
 327              		.loc 1 61 5 is_stmt 1
 328              		.loc 1 61 17 is_stmt 0
 329 019c 1305A000 		li	a0,10
 330 01a0 33D5A402 		divu	a0,s1,a0
 331 01a4 97000000 		call	_Z12printIntegerm@plt
 331      E7800000 
 332              	.LVL21:
  62:src/syscall_c.cpp ****     printString(" sekundi\n");
 333              		.loc 1 62 5 is_stmt 1
 334              		.loc 1 62 16 is_stmt 0
 335 01ac 17050000 		lla	a0,.LC4
 335      13050500 
 336 01b4 97000000 		call	_Z11printStringPKc@plt
 336      E7800000 
 337              	.LVL22:
  63:src/syscall_c.cpp **** 
  64:src/syscall_c.cpp ****     __asm__ volatile("mv a0, %0" : : "r" (TimeSleep));
 338              		.loc 1 64 5 is_stmt 1
 339              		.loc 1 64 54 is_stmt 0
 340 01bc 9307F001 		li	a5,31
 341              	#APP
 342              	# 64 "src/syscall_c.cpp" 1
  65              	    __asm__ volatile("mv a1, %0" : : "r" (slice));
 343              		mv a0, a5
 344              	# 0 "" 2
 345              		.loc 1 65 5 is_stmt 1
GAS LISTING /tmp/ccX8Xjoq.s 			page 9


 346              		.loc 1 65 50 is_stmt 0
 347              	# 65 "src/syscall_c.cpp" 1
  66              	    __asm__ volatile ("ecall");
 348              		mv a1, s1
 349              	# 0 "" 2
 350              		.loc 1 66 5 is_stmt 1
 351              		.loc 1 66 31 is_stmt 0
 352              	# 66 "src/syscall_c.cpp" 1
  67              	    return 0;
 353              		ecall
 354              	# 0 "" 2
 355              		.loc 1 67 5 is_stmt 1
  68:src/syscall_c.cpp **** }
 356              		.loc 1 68 1 is_stmt 0
 357              	#NO_APP
 358 01cc 13050000 		li	a0,0
 359 01d0 83308101 		ld	ra,24(sp)
 360              		.cfi_restore 1
 361 01d4 03340101 		ld	s0,16(sp)
 362              		.cfi_restore 8
 363              		.cfi_def_cfa 2, 32
 364 01d8 83348100 		ld	s1,8(sp)
 365              		.cfi_restore 9
 366              	.LVL23:
 367 01dc 13010102 		addi	sp,sp,32
 368              		.cfi_def_cfa_offset 0
 369 01e0 67800000 		jr	ra
 370              		.cfi_endproc
 371              	.LFE25:
 373              	.Letext0:
 374              		.file 3 "src/../h/../lib/hw.h"
 375              		.file 4 "src/../h/syscall_c.h"
 376              		.file 5 "src/../h/codes.h"
 377              		.file 6 "src/../h/../h/print.hpp"
 378              		.file 7 "src/../lib/mem.h"
GAS LISTING /tmp/ccX8Xjoq.s 			page 10


DEFINED SYMBOLS
                            *ABS*:0000000000000000 syscall_c.cpp
     /tmp/ccX8Xjoq.s:9      .text:0000000000000000 _Z9mem_allocm
     /tmp/ccX8Xjoq.s:13     .text:0000000000000000 .L0 
     /tmp/ccX8Xjoq.s:15     .text:0000000000000000 .L0 
     /tmp/ccX8Xjoq.s:16     .text:0000000000000004 .L0 
     /tmp/ccX8Xjoq.s:19     .text:000000000000000c .L0 
     /tmp/ccX8Xjoq.s:20     .text:000000000000000c .L0 
     /tmp/ccX8Xjoq.s:22     .text:0000000000000010 .L0 
     /tmp/ccX8Xjoq.s:24     .text:0000000000000010 .L0 
     /tmp/ccX8Xjoq.s:25     .text:0000000000000010 .L0 
     /tmp/ccX8Xjoq.s:28     .text:0000000000000018 .L0 
     /tmp/ccX8Xjoq.s:29     .text:000000000000001c .L0 
     /tmp/ccX8Xjoq.s:31     .text:0000000000000020 .L0 
     /tmp/ccX8Xjoq.s:32     .text:0000000000000020 .L0 
     /tmp/ccX8Xjoq.s:34     .text:0000000000000024 .L0 
     /tmp/ccX8Xjoq.s:36     .text:0000000000000028 .L0 
     /tmp/ccX8Xjoq.s:42     .text:0000000000000028 _Z8mem_freePv
     /tmp/ccX8Xjoq.s:45     .text:0000000000000028 .L0 
     /tmp/ccX8Xjoq.s:47     .text:0000000000000028 .L0 
     /tmp/ccX8Xjoq.s:48     .text:000000000000002c .L0 
     /tmp/ccX8Xjoq.s:51     .text:0000000000000034 .L0 
     /tmp/ccX8Xjoq.s:52     .text:0000000000000034 .L0 
     /tmp/ccX8Xjoq.s:54     .text:0000000000000038 .L0 
     /tmp/ccX8Xjoq.s:56     .text:0000000000000038 .L0 
     /tmp/ccX8Xjoq.s:57     .text:0000000000000038 .L0 
     /tmp/ccX8Xjoq.s:60     .text:0000000000000040 .L0 
     /tmp/ccX8Xjoq.s:61     .text:0000000000000044 .L0 
     /tmp/ccX8Xjoq.s:63     .text:0000000000000048 .L0 
     /tmp/ccX8Xjoq.s:64     .text:0000000000000048 .L0 
     /tmp/ccX8Xjoq.s:66     .text:000000000000004c .L0 
     /tmp/ccX8Xjoq.s:68     .text:0000000000000050 .L0 
     /tmp/ccX8Xjoq.s:74     .text:0000000000000050 _Z13thread_createPP3TCBPFvPvES2_
     /tmp/ccX8Xjoq.s:77     .text:0000000000000050 .L0 
     /tmp/ccX8Xjoq.s:79     .text:0000000000000050 .L0 
     /tmp/ccX8Xjoq.s:80     .text:0000000000000054 .L0 
     /tmp/ccX8Xjoq.s:86     .text:0000000000000068 .L0 
     /tmp/ccX8Xjoq.s:87     .text:0000000000000068 .L0 
     /tmp/ccX8Xjoq.s:88     .text:0000000000000068 .L0 
     /tmp/ccX8Xjoq.s:89     .text:0000000000000068 .L0 
     /tmp/ccX8Xjoq.s:90     .text:0000000000000068 .L0 
     /tmp/ccX8Xjoq.s:92     .text:000000000000006c .L0 
     /tmp/ccX8Xjoq.s:97     .text:0000000000000078 .L0 
     /tmp/ccX8Xjoq.s:98     .text:0000000000000078 .L0 
     /tmp/ccX8Xjoq.s:103    .text:0000000000000084 .L0 
   src/syscall_c.cpp:20     .text:0000000000000084 .L0 
     /tmp/ccX8Xjoq.s:109    .text:0000000000000088 .L0 
     /tmp/ccX8Xjoq.s:111    .text:0000000000000088 .L0 
     /tmp/ccX8Xjoq.s:117    .text:0000000000000090 .L0 
   src/syscall_c.cpp:22     .text:0000000000000090 .L0 
     /tmp/ccX8Xjoq.s:122    .text:0000000000000094 .L0 
   src/syscall_c.cpp:23     .text:0000000000000094 .L0 
     /tmp/ccX8Xjoq.s:127    .text:0000000000000098 .L0 
   src/syscall_c.cpp:24     .text:0000000000000098 .L0 
     /tmp/ccX8Xjoq.s:132    .text:000000000000009c .L0 
   src/syscall_c.cpp:31     .text:000000000000009c .L0 
     /tmp/ccX8Xjoq.s:137    .text:00000000000000a0 .L0 
GAS LISTING /tmp/ccX8Xjoq.s 			page 11


     /tmp/ccX8Xjoq.s:139    .text:00000000000000a0 .L0 
     /tmp/ccX8Xjoq.s:142    .text:00000000000000a8 .L0 
     /tmp/ccX8Xjoq.s:144    .text:00000000000000ac .L0 
     /tmp/ccX8Xjoq.s:145    .text:00000000000000ac .L0 
     /tmp/ccX8Xjoq.s:147    .text:00000000000000b0 .L0 
     /tmp/ccX8Xjoq.s:150    .text:00000000000000b4 .L0 
     /tmp/ccX8Xjoq.s:153    .text:00000000000000b8 .L0 
     /tmp/ccX8Xjoq.s:156    .text:00000000000000bc .L0 
     /tmp/ccX8Xjoq.s:158    .text:00000000000000c0 .L0 
     /tmp/ccX8Xjoq.s:172    .text:00000000000000c0 _Z11thread_exitv
     /tmp/ccX8Xjoq.s:175    .text:00000000000000c0 .L0 
     /tmp/ccX8Xjoq.s:176    .text:00000000000000c0 .L0 
     /tmp/ccX8Xjoq.s:177    .text:00000000000000c4 .L0 
     /tmp/ccX8Xjoq.s:180    .text:00000000000000cc .L0 
     /tmp/ccX8Xjoq.s:181    .text:00000000000000cc .L0 
     /tmp/ccX8Xjoq.s:183    .text:00000000000000d0 .L0 
     /tmp/ccX8Xjoq.s:185    .text:00000000000000d0 .L0 
     /tmp/ccX8Xjoq.s:186    .text:00000000000000d0 .L0 
     /tmp/ccX8Xjoq.s:190    .text:00000000000000e0 .L0 
     /tmp/ccX8Xjoq.s:191    .text:00000000000000e0 .L0 
     /tmp/ccX8Xjoq.s:200    .text:00000000000000ec .L0 
     /tmp/ccX8Xjoq.s:201    .text:00000000000000ec .L0 
     /tmp/ccX8Xjoq.s:205    .text:00000000000000f8 .L0 
     /tmp/ccX8Xjoq.s:206    .text:00000000000000f8 .L0 
     /tmp/ccX8Xjoq.s:210    .text:0000000000000108 .L0 
     /tmp/ccX8Xjoq.s:211    .text:0000000000000108 .L0 
     /tmp/ccX8Xjoq.s:217    .text:0000000000000110 .L0 
   src/syscall_c.cpp:41     .text:0000000000000110 .L0 
     /tmp/ccX8Xjoq.s:222    .text:0000000000000114 .L0 
     /tmp/ccX8Xjoq.s:224    .text:0000000000000114 .L0 
     /tmp/ccX8Xjoq.s:226    .text:000000000000011c .L0 
     /tmp/ccX8Xjoq.s:228    .text:0000000000000120 .L0 
     /tmp/ccX8Xjoq.s:229    .text:0000000000000120 .L0 
     /tmp/ccX8Xjoq.s:231    .text:0000000000000124 .L0 
     /tmp/ccX8Xjoq.s:233    .text:0000000000000128 .L0 
     /tmp/ccX8Xjoq.s:239    .text:0000000000000128 _Z15thread_dispatchv
     /tmp/ccX8Xjoq.s:242    .text:0000000000000128 .L0 
     /tmp/ccX8Xjoq.s:243    .text:0000000000000128 .L0 
     /tmp/ccX8Xjoq.s:244    .text:000000000000012c .L0 
     /tmp/ccX8Xjoq.s:246    .text:0000000000000130 .L0 
     /tmp/ccX8Xjoq.s:248    .text:0000000000000134 .L0 
     /tmp/ccX8Xjoq.s:250    .text:0000000000000134 .L0 
     /tmp/ccX8Xjoq.s:251    .text:0000000000000134 .L0 
     /tmp/ccX8Xjoq.s:257    .text:000000000000013c .L0 
   src/syscall_c.cpp:48     .text:000000000000013c .L0 
     /tmp/ccX8Xjoq.s:263    .text:0000000000000140 .L0 
     /tmp/ccX8Xjoq.s:264    .text:0000000000000144 .L0 
     /tmp/ccX8Xjoq.s:265    .text:0000000000000144 .L0 
     /tmp/ccX8Xjoq.s:267    .text:0000000000000148 .L0 
     /tmp/ccX8Xjoq.s:269    .text:000000000000014c .L0 
     /tmp/ccX8Xjoq.s:286    .text:000000000000014c _Z10time_sleepm
     /tmp/ccX8Xjoq.s:289    .text:000000000000014c .L0 
     /tmp/ccX8Xjoq.s:291    .text:000000000000014c .L0 
     /tmp/ccX8Xjoq.s:292    .text:0000000000000150 .L0 
     /tmp/ccX8Xjoq.s:296    .text:000000000000015c .L0 
     /tmp/ccX8Xjoq.s:297    .text:000000000000015c .L0 
     /tmp/ccX8Xjoq.s:298    .text:000000000000015c .L0 
GAS LISTING /tmp/ccX8Xjoq.s 			page 12


     /tmp/ccX8Xjoq.s:300    .text:0000000000000160 .L0 
     /tmp/ccX8Xjoq.s:303    .text:0000000000000164 .L0 
     /tmp/ccX8Xjoq.s:304    .text:0000000000000164 .L0 
     /tmp/ccX8Xjoq.s:309    .text:0000000000000174 .L0 
     /tmp/ccX8Xjoq.s:310    .text:0000000000000174 .L0 
     /tmp/ccX8Xjoq.s:318    .text:0000000000000180 .L0 
     /tmp/ccX8Xjoq.s:319    .text:0000000000000180 .L0 
     /tmp/ccX8Xjoq.s:323    .text:000000000000018c .L0 
     /tmp/ccX8Xjoq.s:324    .text:000000000000018c .L0 
     /tmp/ccX8Xjoq.s:328    .text:000000000000019c .L0 
     /tmp/ccX8Xjoq.s:329    .text:000000000000019c .L0 
     /tmp/ccX8Xjoq.s:334    .text:00000000000001ac .L0 
     /tmp/ccX8Xjoq.s:335    .text:00000000000001ac .L0 
     /tmp/ccX8Xjoq.s:339    .text:00000000000001bc .L0 
     /tmp/ccX8Xjoq.s:340    .text:00000000000001bc .L0 
     /tmp/ccX8Xjoq.s:346    .text:00000000000001c4 .L0 
   src/syscall_c.cpp:65     .text:00000000000001c4 .L0 
     /tmp/ccX8Xjoq.s:351    .text:00000000000001c8 .L0 
   src/syscall_c.cpp:66     .text:00000000000001c8 .L0 
     /tmp/ccX8Xjoq.s:356    .text:00000000000001cc .L0 
     /tmp/ccX8Xjoq.s:358    .text:00000000000001cc .L0 
     /tmp/ccX8Xjoq.s:360    .text:00000000000001d4 .L0 
     /tmp/ccX8Xjoq.s:362    .text:00000000000001d8 .L0 
     /tmp/ccX8Xjoq.s:363    .text:00000000000001d8 .L0 
     /tmp/ccX8Xjoq.s:365    .text:00000000000001dc .L0 
     /tmp/ccX8Xjoq.s:368    .text:00000000000001e0 .L0 
     /tmp/ccX8Xjoq.s:370    .text:00000000000001e4 .L0 
     /tmp/ccX8Xjoq.s:379    .text:00000000000001e4 .L0 
     /tmp/ccX8Xjoq.s:163    .rodata.str1.8:0000000000000000 .LC0
     /tmp/ccX8Xjoq.s:186    .text:00000000000000d0 .L0 
     /tmp/ccX8Xjoq.s:191    .text:00000000000000e0 .L0 
     /tmp/ccX8Xjoq.s:166    .rodata.str1.8:0000000000000010 .LC1
     /tmp/ccX8Xjoq.s:206    .text:00000000000000f8 .L0 
     /tmp/ccX8Xjoq.s:274    .rodata.str1.8:0000000000000018 .LC2
     /tmp/ccX8Xjoq.s:304    .text:0000000000000164 .L0 
     /tmp/ccX8Xjoq.s:310    .text:0000000000000174 .L0 
     /tmp/ccX8Xjoq.s:277    .rodata.str1.8:0000000000000020 .LC3
     /tmp/ccX8Xjoq.s:324    .text:000000000000018c .L0 
     /tmp/ccX8Xjoq.s:280    .rodata.str1.8:0000000000000030 .LC4
     /tmp/ccX8Xjoq.s:335    .text:00000000000001ac .L0 
     /tmp/ccX8Xjoq.s:1227   .debug_abbrev:0000000000000000 .Ldebug_abbrev0
     /tmp/ccX8Xjoq.s:2289   .debug_str:00000000000004a4 .LASF81
     /tmp/ccX8Xjoq.s:2203   .debug_str:000000000000028b .LASF82
     /tmp/ccX8Xjoq.s:2153   .debug_str:00000000000000df .LASF83
     /tmp/ccX8Xjoq.s:5      .text:0000000000000000 .Ltext0
     /tmp/ccX8Xjoq.s:373    .text:00000000000001e4 .Letext0
     /tmp/ccX8Xjoq.s:2113   .debug_line:0000000000000000 .Ldebug_line0
     /tmp/ccX8Xjoq.s:2277   .debug_str:0000000000000465 .LASF0
     /tmp/ccX8Xjoq.s:2239   .debug_str:0000000000000365 .LASF1
     /tmp/ccX8Xjoq.s:2245   .debug_str:0000000000000385 .LASF2
     /tmp/ccX8Xjoq.s:2223   .debug_str:0000000000000303 .LASF3
     /tmp/ccX8Xjoq.s:2201   .debug_str:0000000000000284 .LASF4
     /tmp/ccX8Xjoq.s:2133   .debug_str:000000000000006e .LASF5
     /tmp/ccX8Xjoq.s:2159   .debug_str:0000000000000126 .LASF6
     /tmp/ccX8Xjoq.s:2249   .debug_str:000000000000039d .LASF7
     /tmp/ccX8Xjoq.s:2237   .debug_str:0000000000000352 .LASF8
     /tmp/ccX8Xjoq.s:2295   .debug_str:0000000000000589 .LASF9
GAS LISTING /tmp/ccX8Xjoq.s 			page 13


     /tmp/ccX8Xjoq.s:2187   .debug_str:00000000000001f8 .LASF10
     /tmp/ccX8Xjoq.s:2257   .debug_str:00000000000003ec .LASF11
     /tmp/ccX8Xjoq.s:2291   .debug_str:0000000000000568 .LASF12
     /tmp/ccX8Xjoq.s:2135   .debug_str:0000000000000075 .LASF13
     /tmp/ccX8Xjoq.s:2117   .debug_str:0000000000000009 .LASF14
     /tmp/ccX8Xjoq.s:2143   .debug_str:00000000000000a7 .LASF15
     /tmp/ccX8Xjoq.s:2271   .debug_str:0000000000000438 .LASF16
     /tmp/ccX8Xjoq.s:2155   .debug_str:0000000000000102 .LASF17
     /tmp/ccX8Xjoq.s:2115   .debug_str:0000000000000000 .LASF18
     /tmp/ccX8Xjoq.s:2123   .debug_str:000000000000002b .LASF84
     /tmp/ccX8Xjoq.s:2163   .debug_str:0000000000000144 .LASF19
     /tmp/ccX8Xjoq.s:2265   .debug_str:000000000000041d .LASF21
     /tmp/ccX8Xjoq.s:2251   .debug_str:00000000000003b0 .LASF25
     /tmp/ccX8Xjoq.s:2185   .debug_str:00000000000001e1 .LASF27
     /tmp/ccX8Xjoq.s:2225   .debug_str:0000000000000311 .LASF20
     /tmp/ccX8Xjoq.s:2197   .debug_str:0000000000000245 .LASF22
     /tmp/ccX8Xjoq.s:2165   .debug_str:0000000000000149 .LASF23
     /tmp/ccX8Xjoq.s:2173   .debug_str:000000000000018d .LASF24
     /tmp/ccX8Xjoq.s:2233   .debug_str:000000000000033f .LASF26
     /tmp/ccX8Xjoq.s:2161   .debug_str:000000000000012d .LASF28
     /tmp/ccX8Xjoq.s:2215   .debug_str:00000000000002d0 .LASF29
     /tmp/ccX8Xjoq.s:2131   .debug_str:0000000000000055 .LASF30
     /tmp/ccX8Xjoq.s:2209   .debug_str:00000000000002aa .LASF31
     /tmp/ccX8Xjoq.s:2171   .debug_str:0000000000000169 .LASF32
     /tmp/ccX8Xjoq.s:2267   .debug_str:0000000000000429 .LASF85
     /tmp/ccX8Xjoq.s:2273   .debug_str:000000000000044e .LASF86
     /tmp/ccX8Xjoq.s:2231   .debug_str:000000000000032f .LASF87
     /tmp/ccX8Xjoq.s:2287   .debug_str:000000000000049e .LASF33
     /tmp/ccX8Xjoq.s:2253   .debug_str:00000000000003bb .LASF34
     /tmp/ccX8Xjoq.s:2167   .debug_str:0000000000000155 .LASF35
     /tmp/ccX8Xjoq.s:2191   .debug_str:000000000000020c .LASF88
     /tmp/ccX8Xjoq.s:2205   .debug_str:000000000000029d .LASF36
     /tmp/ccX8Xjoq.s:2145   .debug_str:00000000000000b3 .LASF37
     /tmp/ccX8Xjoq.s:2207   .debug_str:00000000000002a2 .LASF38
     /tmp/ccX8Xjoq.s:2243   .debug_str:000000000000037b .LASF39
     /tmp/ccX8Xjoq.s:2219   .debug_str:00000000000002f0 .LASF40
     /tmp/ccX8Xjoq.s:2259   .debug_str:00000000000003fb .LASF41
     /tmp/ccX8Xjoq.s:2213   .debug_str:00000000000002c2 .LASF42
     /tmp/ccX8Xjoq.s:2193   .debug_str:0000000000000221 .LASF44
     /tmp/ccX8Xjoq.s:2297   .debug_str:0000000000000599 .LASF89
     /tmp/ccX8Xjoq.s:2199   .debug_str:000000000000025c .LASF90
     /tmp/ccX8Xjoq.s:2241   .debug_str:0000000000000372 .LASF43
     /tmp/ccX8Xjoq.s:2217   .debug_str:00000000000002dd .LASF45
     /tmp/ccX8Xjoq.s:2279   .debug_str:0000000000000477 .LASF91
     /tmp/ccX8Xjoq.s:2211   .debug_str:00000000000002b7 .LASF46
     /tmp/ccX8Xjoq.s:2195   .debug_str:000000000000023a .LASF47
     /tmp/ccX8Xjoq.s:2175   .debug_str:00000000000001a4 .LASF48
     /tmp/ccX8Xjoq.s:2229   .debug_str:0000000000000326 .LASF49
     /tmp/ccX8Xjoq.s:2139   .debug_str:0000000000000094 .LASF50
     /tmp/ccX8Xjoq.s:2307   .debug_str:00000000000005da .LASF51
     /tmp/ccX8Xjoq.s:2129   .debug_str:000000000000004a .LASF52
     /tmp/ccX8Xjoq.s:2137   .debug_str:0000000000000085 .LASF53
     /tmp/ccX8Xjoq.s:2235   .debug_str:000000000000034a .LASF54
     /tmp/ccX8Xjoq.s:2227   .debug_str:000000000000031d .LASF55
     /tmp/ccX8Xjoq.s:2149   .debug_str:00000000000000c9 .LASF56
     /tmp/ccX8Xjoq.s:2269   .debug_str:000000000000042e .LASF57
     /tmp/ccX8Xjoq.s:2221   .debug_str:00000000000002f9 .LASF58
GAS LISTING /tmp/ccX8Xjoq.s 			page 14


     /tmp/ccX8Xjoq.s:2247   .debug_str:0000000000000398 .LASF59
     /tmp/ccX8Xjoq.s:2183   .debug_str:00000000000001dc .LASF60
     /tmp/ccX8Xjoq.s:2127   .debug_str:000000000000003f .LASF61
     /tmp/ccX8Xjoq.s:2263   .debug_str:000000000000040d .LASF63
     /tmp/ccX8Xjoq.s:287    .text:000000000000014c .LFB25
     /tmp/ccX8Xjoq.s:371    .text:00000000000001e4 .LFE25
     /tmp/ccX8Xjoq.s:2189   .debug_str:0000000000000206 .LASF67
     /tmp/ccX8Xjoq.s:1993   .debug_loc:0000000000000000 .LLST6
     /tmp/ccX8Xjoq.s:313    .text:0000000000000180 .LBB8
     /tmp/ccX8Xjoq.s:317    .text:0000000000000180 .LBE8
     /tmp/ccX8Xjoq.s:307    .text:0000000000000174 .LVL17
     /tmp/ccX8Xjoq.s:321    .text:000000000000018c .LVL19
     /tmp/ccX8Xjoq.s:326    .text:000000000000019c .LVL20
     /tmp/ccX8Xjoq.s:332    .text:00000000000001ac .LVL21
     /tmp/ccX8Xjoq.s:337    .text:00000000000001bc .LVL22
     /tmp/ccX8Xjoq.s:2147   .debug_str:00000000000000b9 .LASF92
     /tmp/ccX8Xjoq.s:2177   .debug_str:00000000000001a9 .LASF93
     /tmp/ccX8Xjoq.s:240    .text:0000000000000128 .LFB24
     /tmp/ccX8Xjoq.s:270    .text:000000000000014c .LFE24
     /tmp/ccX8Xjoq.s:2125   .debug_str:0000000000000033 .LASF62
     /tmp/ccX8Xjoq.s:2275   .debug_str:0000000000000454 .LASF64
     /tmp/ccX8Xjoq.s:173    .text:00000000000000c0 .LFB23
     /tmp/ccX8Xjoq.s:234    .text:0000000000000128 .LFE23
     /tmp/ccX8Xjoq.s:194    .text:00000000000000ec .LBB6
     /tmp/ccX8Xjoq.s:199    .text:00000000000000ec .LBE6
     /tmp/ccX8Xjoq.s:188    .text:00000000000000e0 .LVL11
     /tmp/ccX8Xjoq.s:203    .text:00000000000000f8 .LVL13
     /tmp/ccX8Xjoq.s:208    .text:0000000000000108 .LVL14
     /tmp/ccX8Xjoq.s:2157   .debug_str:0000000000000118 .LASF65
     /tmp/ccX8Xjoq.s:2255   .debug_str:00000000000003cb .LASF66
     /tmp/ccX8Xjoq.s:75     .text:0000000000000050 .LFB22
     /tmp/ccX8Xjoq.s:159    .text:00000000000000c0 .LFE22
     /tmp/ccX8Xjoq.s:2283   .debug_str:0000000000000492 .LASF68
     /tmp/ccX8Xjoq.s:2011   .debug_loc:000000000000004c .LLST2
     /tmp/ccX8Xjoq.s:2179   .debug_str:00000000000001be .LASF69
     /tmp/ccX8Xjoq.s:2029   .debug_loc:0000000000000098 .LLST3
     /tmp/ccX8Xjoq.s:2047   .debug_loc:00000000000000e4 .LLST4
     /tmp/ccX8Xjoq.s:2065   .debug_loc:0000000000000130 .LLST5
     /tmp/ccX8Xjoq.s:101    .text:0000000000000084 .LVL6
     /tmp/ccX8Xjoq.s:2261   .debug_str:0000000000000404 .LASF70
     /tmp/ccX8Xjoq.s:2303   .debug_str:00000000000005b9 .LASF71
     /tmp/ccX8Xjoq.s:43     .text:0000000000000028 .LFB21
     /tmp/ccX8Xjoq.s:69     .text:0000000000000050 .LFE21
     /tmp/ccX8Xjoq.s:2072   .debug_loc:0000000000000153 .LLST1
     /tmp/ccX8Xjoq.s:58     .text:0000000000000040 .LVL3
     /tmp/ccX8Xjoq.s:2281   .debug_str:0000000000000488 .LASF72
     /tmp/ccX8Xjoq.s:2151   .debug_str:00000000000000d1 .LASF73
     /tmp/ccX8Xjoq.s:10     .text:0000000000000000 .LFB20
     /tmp/ccX8Xjoq.s:37     .text:0000000000000028 .LFE20
     /tmp/ccX8Xjoq.s:2285   .debug_str:0000000000000499 .LASF74
     /tmp/ccX8Xjoq.s:2086   .debug_loc:000000000000018c .LLST0
     /tmp/ccX8Xjoq.s:26     .text:0000000000000018 .LVL1
     /tmp/ccX8Xjoq.s:2301   .debug_str:00000000000005b4 .LASF94
     /tmp/ccX8Xjoq.s:2305   .debug_str:00000000000005c7 .LASF75
     /tmp/ccX8Xjoq.s:2121   .debug_str:000000000000001f .LASF77
     /tmp/ccX8Xjoq.s:2293   .debug_str:0000000000000577 .LASF76
     /tmp/ccX8Xjoq.s:2299   .debug_str:00000000000005a7 .LASF78
GAS LISTING /tmp/ccX8Xjoq.s 			page 15


     /tmp/ccX8Xjoq.s:2119   .debug_str:0000000000000019 .LASF95
     /tmp/ccX8Xjoq.s:2181   .debug_str:00000000000001cc .LASF96
     /tmp/ccX8Xjoq.s:2141   .debug_str:000000000000009c .LASF79
     /tmp/ccX8Xjoq.s:2169   .debug_str:000000000000015d .LASF80
     /tmp/ccX8Xjoq.s:290    .text:000000000000014c .LVL15
     /tmp/ccX8Xjoq.s:305    .text:000000000000016c .LVL16
     /tmp/ccX8Xjoq.s:366    .text:00000000000001dc .LVL23
     /tmp/ccX8Xjoq.s:78     .text:0000000000000050 .LVL4
     /tmp/ccX8Xjoq.s:99     .text:000000000000007c .LVL5
     /tmp/ccX8Xjoq.s:154    .text:00000000000000b8 .LVL10
     /tmp/ccX8Xjoq.s:151    .text:00000000000000b4 .LVL9
     /tmp/ccX8Xjoq.s:148    .text:00000000000000b0 .LVL8
     /tmp/ccX8Xjoq.s:140    .text:00000000000000a4 .LVL7
     /tmp/ccX8Xjoq.s:46     .text:0000000000000028 .LVL2
     /tmp/ccX8Xjoq.s:14     .text:0000000000000000 .LVL0
     /tmp/ccX8Xjoq.s:380    .debug_info:0000000000000000 .Ldebug_info0

UNDEFINED SYMBOLS
__mem_alloc
__mem_free
_Znam
_Z11printStringPKc
_ZN3TCB7runningE
_Z12printIntegerm
