GAS LISTING /tmp/ccm7TKJb.s 			page 1


   1              		.file	"syscall_cpp.cpp"
   2              		.option pic
   3              		.option norelax
   4              		.text
   5              	.Ltext0:
   6              		.section	.text._ZN6Thread3runEv,"axG",@progbits,_ZN6Thread3runEv,comdat
   7              		.align	2
   8              		.weak	_ZN6Thread3runEv
  10              	_ZN6Thread3runEv:
  11              	.LFB0:
  12              		.file 1 "src/../h/syscall_cpp.hpp"
   1:src/../h/syscall_cpp.hpp **** //
   2:src/../h/syscall_cpp.hpp **** // Created by os on 9/14/22.
   3:src/../h/syscall_cpp.hpp **** //
   4:src/../h/syscall_cpp.hpp **** 
   5:src/../h/syscall_cpp.hpp **** #ifndef PROJECT_BASE_V1_1_SYSCALL_CPP_HPP
   6:src/../h/syscall_cpp.hpp **** #define PROJECT_BASE_V1_1_SYSCALL_CPP_HPP
   7:src/../h/syscall_cpp.hpp **** 
   8:src/../h/syscall_cpp.hpp **** #ifndef _syscall_cpp
   9:src/../h/syscall_cpp.hpp **** #define _syscall_cpp
  10:src/../h/syscall_cpp.hpp **** #include "syscall_c.h"
  11:src/../h/syscall_cpp.hpp **** //void* ::operator new (size_t);
  12:src/../h/syscall_cpp.hpp **** //void ::operator delete (void*);
  13:src/../h/syscall_cpp.hpp **** 
  14:src/../h/syscall_cpp.hpp **** class Thread {
  15:src/../h/syscall_cpp.hpp **** public:
  16:src/../h/syscall_cpp.hpp ****     Thread (void (*body)(void*), void* arg);
  17:src/../h/syscall_cpp.hpp ****     virtual ~Thread ();
  18:src/../h/syscall_cpp.hpp ****     int start ();
  19:src/../h/syscall_cpp.hpp ****     static void dispatch ();
  20:src/../h/syscall_cpp.hpp ****     static int sleep (time_t);
  21:src/../h/syscall_cpp.hpp ****     static void threadWrapper(void *);
  22:src/../h/syscall_cpp.hpp **** protected:
  23:src/../h/syscall_cpp.hpp ****     Thread ();
  24:src/../h/syscall_cpp.hpp ****     virtual void run () {}
  13              		.loc 1 24 18
  14              		.cfi_startproc
  15              	.LVL0:
  16 0000 130101FF 		addi	sp,sp,-16
  17              		.cfi_def_cfa_offset 16
  18 0004 23348100 		sd	s0,8(sp)
  19              		.cfi_offset 8, -8
  20 0008 13040101 		addi	s0,sp,16
  21              		.cfi_def_cfa 8, 0
  22              		.loc 1 24 26 is_stmt 0
  23 000c 03348100 		ld	s0,8(sp)
  24              		.cfi_restore 8
  25              		.cfi_def_cfa 2, 16
  26 0010 13010101 		addi	sp,sp,16
  27              		.cfi_def_cfa_offset 0
  28 0014 67800000 		jr	ra
  29              		.cfi_endproc
  30              	.LFE0:
  32              		.section	.text._ZN14PeriodicThread18periodicActivationEv,"axG",@progbits,_ZN14PeriodicThread18peri
  33              		.align	2
  34              		.weak	_ZN14PeriodicThread18periodicActivationEv
  36              	_ZN14PeriodicThread18periodicActivationEv:
GAS LISTING /tmp/ccm7TKJb.s 			page 2


  37              	.LFB1:
  25:src/../h/syscall_cpp.hpp **** private:
  26:src/../h/syscall_cpp.hpp ****     thread_t myHandle;
  27:src/../h/syscall_cpp.hpp **** };
  28:src/../h/syscall_cpp.hpp **** 
  29:src/../h/syscall_cpp.hpp **** class Semaphore {
  30:src/../h/syscall_cpp.hpp **** public:
  31:src/../h/syscall_cpp.hpp ****     explicit Semaphore (unsigned init = 1);
  32:src/../h/syscall_cpp.hpp ****     virtual ~Semaphore ();
  33:src/../h/syscall_cpp.hpp ****     int wait ();
  34:src/../h/syscall_cpp.hpp ****     int signal ();
  35:src/../h/syscall_cpp.hpp **** private:
  36:src/../h/syscall_cpp.hpp ****     sem_t myHandle;
  37:src/../h/syscall_cpp.hpp **** };
  38:src/../h/syscall_cpp.hpp **** 
  39:src/../h/syscall_cpp.hpp **** class PeriodicThread : public Thread {
  40:src/../h/syscall_cpp.hpp **** protected:
  41:src/../h/syscall_cpp.hpp ****     explicit PeriodicThread (time_t period);
  42:src/../h/syscall_cpp.hpp ****     virtual void periodicActivation () {}
  38              		.loc 1 42 18 is_stmt 1
  39              		.cfi_startproc
  40              	.LVL1:
  41 0000 130101FF 		addi	sp,sp,-16
  42              		.cfi_def_cfa_offset 16
  43 0004 23348100 		sd	s0,8(sp)
  44              		.cfi_offset 8, -8
  45 0008 13040101 		addi	s0,sp,16
  46              		.cfi_def_cfa 8, 0
  47              		.loc 1 42 41 is_stmt 0
  48 000c 03348100 		ld	s0,8(sp)
  49              		.cfi_restore 8
  50              		.cfi_def_cfa 2, 16
  51 0010 13010101 		addi	sp,sp,16
  52              		.cfi_def_cfa_offset 0
  53 0014 67800000 		jr	ra
  54              		.cfi_endproc
  55              	.LFE1:
  57              		.text
  58              		.align	2
  59              		.globl	_ZN6ThreadD2Ev
  61              	_ZN6ThreadD2Ev:
  62              	.LFB64:
  63              		.file 2 "src/syscall_cpp.cpp"
   1:src/syscall_cpp.cpp **** #include "../h/syscall_cpp.hpp"
   2:src/syscall_cpp.cpp **** #include "../h/riscv.hpp"
   3:src/syscall_cpp.cpp **** 
   4:src/syscall_cpp.cpp **** //void* operator new (size_t size) {
   5:src/syscall_cpp.cpp **** //    return mem_alloc(size);
   6:src/syscall_cpp.cpp **** //}
   7:src/syscall_cpp.cpp **** //void operator delete (void* adr) {
   8:src/syscall_cpp.cpp **** //    mem_free(adr);
   9:src/syscall_cpp.cpp **** //}
  10:src/syscall_cpp.cpp **** 
  11:src/syscall_cpp.cpp **** Thread::Thread(void (*body)(void *), void *arg) {
  12:src/syscall_cpp.cpp ****     myHandle = nullptr;
  13:src/syscall_cpp.cpp ****     thread_create(&myHandle, body, arg);
  14:src/syscall_cpp.cpp **** }
GAS LISTING /tmp/ccm7TKJb.s 			page 3


  15:src/syscall_cpp.cpp **** 
  16:src/syscall_cpp.cpp **** Thread::~Thread() {
  64              		.loc 2 16 1 is_stmt 1
  65              		.cfi_startproc
  66              	.LVL2:
  67              	.LBB10:
  68              		.loc 2 16 17 is_stmt 0
  69 0000 97070000 		lla	a5,_ZTV6Thread+16
  69      93870700 
  70 0008 2330F500 		sd	a5,0(a0)
  17:src/syscall_cpp.cpp ****     myHandle->setFinished(true);
  71              		.loc 2 17 5 is_stmt 1
  72 000c 83378500 		ld	a5,8(a0)
  73              	.LVL3:
  74              	.LBB11:
  75              	.LBB12:
  76              		.file 3 "src/../h/tcb.hpp"
   1:src/../h/tcb.hpp **** #ifndef OS1_VEZBE07_RISCV_CONTEXT_SWITCH_2_INTERRUPT_TCB_HPP
   2:src/../h/tcb.hpp **** #define OS1_VEZBE07_RISCV_CONTEXT_SWITCH_2_INTERRUPT_TCB_HPP
   3:src/../h/tcb.hpp **** 
   4:src/../h/tcb.hpp **** #include "../lib/hw.h"
   5:src/../h/tcb.hpp **** #include "scheduler.hpp"
   6:src/../h/tcb.hpp **** #include "../h/syscall_cpp.hpp"
   7:src/../h/tcb.hpp **** #include "../h/print.hpp"
   8:src/../h/tcb.hpp **** 
   9:src/../h/tcb.hpp **** // Thread Control Block
  10:src/../h/tcb.hpp **** class TCB
  11:src/../h/tcb.hpp **** {
  12:src/../h/tcb.hpp **** public:
  13:src/../h/tcb.hpp ****     virtual ~TCB() {
  14:src/../h/tcb.hpp ****         delete[] stack;
  15:src/../h/tcb.hpp ****     }
  16:src/../h/tcb.hpp **** 
  17:src/../h/tcb.hpp ****     static void outputThreadBody(void*);
  18:src/../h/tcb.hpp **** 
  19:src/../h/tcb.hpp ****     bool isFinished() const { return finished; }
  20:src/../h/tcb.hpp ****     void setFinished(bool value) { finished = value; }
  77              		.loc 3 20 36
  78              		.loc 3 20 45 is_stmt 0
  79 0010 13071000 		li	a4,1
  80 0014 238EE702 		sb	a4,60(a5)
  81              	.LVL4:
  82              	.LBE12:
  83              	.LBE11:
  18:src/syscall_cpp.cpp ****     delete myHandle;
  84              		.loc 2 18 5 is_stmt 1
  85              		.loc 2 18 12 is_stmt 0
  86 0018 03358500 		ld	a0,8(a0)
  87              	.LVL5:
  88              		.loc 2 18 20
  89 001c 63080502 		beqz	a0,.L8
  90              	.LBE10:
  16:src/syscall_cpp.cpp ****     myHandle->setFinished(true);
  91              		.loc 2 16 1 discriminator 1
  92 0020 130101FF 		addi	sp,sp,-16
  93              		.cfi_def_cfa_offset 16
  94 0024 23341100 		sd	ra,8(sp)
GAS LISTING /tmp/ccm7TKJb.s 			page 4


  95 0028 23308100 		sd	s0,0(sp)
  96              		.cfi_offset 1, -8
  97              		.cfi_offset 8, -16
  98 002c 13040101 		addi	s0,sp,16
  99              		.cfi_def_cfa 8, 0
 100              	.LBB13:
 101              		.loc 2 18 12 discriminator 1
 102 0030 83370500 		ld	a5,0(a0)
 103 0034 83B78700 		ld	a5,8(a5)
 104 0038 E7800700 		jalr	a5
 105              	.LVL6:
 106              	.LBE13:
  19:src/syscall_cpp.cpp **** }
 107              		.loc 2 19 1 discriminator 1
 108 003c 83308100 		ld	ra,8(sp)
 109              		.cfi_restore 1
 110 0040 03340100 		ld	s0,0(sp)
 111              		.cfi_restore 8
 112              		.cfi_def_cfa 2, 16
 113 0044 13010101 		addi	sp,sp,16
 114              		.cfi_def_cfa_offset 0
 115 0048 67800000 		jr	ra
 116              	.L8:
 117 004c 67800000 		ret
 118              		.cfi_endproc
 119              	.LFE64:
 121              		.globl	_ZN6ThreadD1Ev
 122              		.set	_ZN6ThreadD1Ev,_ZN6ThreadD2Ev
 123              		.align	2
 124              		.globl	_ZN6Thread13threadWrapperEPv
 126              	_ZN6Thread13threadWrapperEPv:
 127              	.LFB73:
  20:src/syscall_cpp.cpp **** 
  21:src/syscall_cpp.cpp **** int Thread::start() {
  22:src/syscall_cpp.cpp ****     myHandle->start();
  23:src/syscall_cpp.cpp ****     return 0;
  24:src/syscall_cpp.cpp **** }
  25:src/syscall_cpp.cpp **** 
  26:src/syscall_cpp.cpp **** void Thread::dispatch() {
  27:src/syscall_cpp.cpp ****     thread_dispatch();
  28:src/syscall_cpp.cpp **** }
  29:src/syscall_cpp.cpp **** 
  30:src/syscall_cpp.cpp **** int Thread::sleep(time_t time) {
  31:src/syscall_cpp.cpp ****     time_sleep(time);
  32:src/syscall_cpp.cpp ****     return 0;
  33:src/syscall_cpp.cpp **** }
  34:src/syscall_cpp.cpp **** 
  35:src/syscall_cpp.cpp **** Thread::Thread() {
  36:src/syscall_cpp.cpp ****     myHandle = nullptr;
  37:src/syscall_cpp.cpp ****     thread_create(&myHandle, Thread::threadWrapper, (void*)this);
  38:src/syscall_cpp.cpp **** }
  39:src/syscall_cpp.cpp **** 
  40:src/syscall_cpp.cpp **** void Thread::threadWrapper(void *thread) {
 128              		.loc 2 40 42 is_stmt 1
 129              		.cfi_startproc
 130              	.LVL7:
 131 0050 130101FF 		addi	sp,sp,-16
GAS LISTING /tmp/ccm7TKJb.s 			page 5


 132              		.cfi_def_cfa_offset 16
 133 0054 23341100 		sd	ra,8(sp)
 134 0058 23308100 		sd	s0,0(sp)
 135              		.cfi_offset 1, -8
 136              		.cfi_offset 8, -16
 137 005c 13040101 		addi	s0,sp,16
 138              		.cfi_def_cfa 8, 0
  41:src/syscall_cpp.cpp ****     ((Thread*)thread)->run();
 139              		.loc 2 41 5
 140              		.loc 2 41 28 is_stmt 0
 141 0060 83370500 		ld	a5,0(a0)
 142 0064 83B70701 		ld	a5,16(a5)
 143              		.loc 2 41 27
 144 0068 E7800700 		jalr	a5
 145              	.LVL8:
  42:src/syscall_cpp.cpp **** }
 146              		.loc 2 42 1
 147 006c 83308100 		ld	ra,8(sp)
 148              		.cfi_restore 1
 149 0070 03340100 		ld	s0,0(sp)
 150              		.cfi_restore 8
 151              		.cfi_def_cfa 2, 16
 152 0074 13010101 		addi	sp,sp,16
 153              		.cfi_def_cfa_offset 0
 154 0078 67800000 		jr	ra
 155              		.cfi_endproc
 156              	.LFE73:
 158              		.section	.text._ZN14PeriodicThreadD2Ev,"axG",@progbits,_ZN14PeriodicThreadD5Ev,comdat
 159              		.align	2
 160              		.weak	_ZN14PeriodicThreadD2Ev
 162              	_ZN14PeriodicThreadD2Ev:
 163              	.LFB92:
  39:src/../h/syscall_cpp.hpp **** protected:
 164              		.loc 1 39 7 is_stmt 1
 165              		.cfi_startproc
 166              	.LVL9:
 167 0000 130101FF 		addi	sp,sp,-16
 168              		.cfi_def_cfa_offset 16
 169 0004 23341100 		sd	ra,8(sp)
 170 0008 23308100 		sd	s0,0(sp)
 171              		.cfi_offset 1, -8
 172              		.cfi_offset 8, -16
 173 000c 13040101 		addi	s0,sp,16
 174              		.cfi_def_cfa 8, 0
 175              	.LBB14:
  39:src/../h/syscall_cpp.hpp **** protected:
 176              		.loc 1 39 7 is_stmt 0
 177 0010 97070000 		lla	a5,_ZTV14PeriodicThread+16
 177      93870700 
 178 0018 2330F500 		sd	a5,0(a0)
 179 001c 97000000 		call	_ZN6ThreadD2Ev
 179      E7800000 
 180              	.LVL10:
 181              	.LBE14:
 182 0024 83308100 		ld	ra,8(sp)
 183              		.cfi_restore 1
 184 0028 03340100 		ld	s0,0(sp)
GAS LISTING /tmp/ccm7TKJb.s 			page 6


 185              		.cfi_restore 8
 186              		.cfi_def_cfa 2, 16
 187 002c 13010101 		addi	sp,sp,16
 188              		.cfi_def_cfa_offset 0
 189 0030 67800000 		jr	ra
 190              		.cfi_endproc
 191              	.LFE92:
 193              		.weak	_ZN14PeriodicThreadD1Ev
 194              		.set	_ZN14PeriodicThreadD1Ev,_ZN14PeriodicThreadD2Ev
 195              		.text
 196              		.align	2
 197              		.globl	_ZN6ThreadD0Ev
 199              	_ZN6ThreadD0Ev:
 200              	.LFB66:
  16:src/syscall_cpp.cpp ****     myHandle->setFinished(true);
 201              		.loc 2 16 1 is_stmt 1
 202              		.cfi_startproc
 203              	.LVL11:
 204 007c 130101FE 		addi	sp,sp,-32
 205              		.cfi_def_cfa_offset 32
 206 0080 233C1100 		sd	ra,24(sp)
 207 0084 23388100 		sd	s0,16(sp)
 208 0088 23349100 		sd	s1,8(sp)
 209              		.cfi_offset 1, -8
 210              		.cfi_offset 8, -16
 211              		.cfi_offset 9, -24
 212 008c 13040102 		addi	s0,sp,32
 213              		.cfi_def_cfa 8, 0
 214 0090 93040500 		mv	s1,a0
  19:src/syscall_cpp.cpp **** 
 215              		.loc 2 19 1 is_stmt 0
 216 0094 97000000 		call	_ZN6ThreadD1Ev
 216      E7800000 
 217              	.LVL12:
 218 009c 13850400 		mv	a0,s1
 219 00a0 97000000 		call	_ZdlPv@plt
 219      E7800000 
 220              	.LVL13:
 221 00a8 83308101 		ld	ra,24(sp)
 222              		.cfi_restore 1
 223 00ac 03340101 		ld	s0,16(sp)
 224              		.cfi_restore 8
 225              		.cfi_def_cfa 2, 32
 226 00b0 83348100 		ld	s1,8(sp)
 227              		.cfi_restore 9
 228              	.LVL14:
 229 00b4 13010102 		addi	sp,sp,32
 230              		.cfi_def_cfa_offset 0
 231 00b8 67800000 		jr	ra
 232              		.cfi_endproc
 233              	.LFE66:
 235              		.section	.text._ZN14PeriodicThreadD0Ev,"axG",@progbits,_ZN14PeriodicThreadD5Ev,comdat
 236              		.align	2
 237              		.weak	_ZN14PeriodicThreadD0Ev
 239              	_ZN14PeriodicThreadD0Ev:
 240              	.LFB94:
  39:src/../h/syscall_cpp.hpp **** protected:
GAS LISTING /tmp/ccm7TKJb.s 			page 7


 241              		.loc 1 39 7 is_stmt 1
 242              		.cfi_startproc
 243              	.LVL15:
 244 0000 130101FE 		addi	sp,sp,-32
 245              		.cfi_def_cfa_offset 32
 246 0004 233C1100 		sd	ra,24(sp)
 247 0008 23388100 		sd	s0,16(sp)
 248 000c 23349100 		sd	s1,8(sp)
 249              		.cfi_offset 1, -8
 250              		.cfi_offset 8, -16
 251              		.cfi_offset 9, -24
 252 0010 13040102 		addi	s0,sp,32
 253              		.cfi_def_cfa 8, 0
 254 0014 93040500 		mv	s1,a0
 255              	.LVL16:
 256              	.LBB15:
 257              	.LBB16:
  39:src/../h/syscall_cpp.hpp **** protected:
 258              		.loc 1 39 7 is_stmt 0
 259 0018 97070000 		lla	a5,_ZTV14PeriodicThread+16
 259      93870700 
 260 0020 2330F500 		sd	a5,0(a0)
 261 0024 97000000 		call	_ZN6ThreadD2Ev
 261      E7800000 
 262              	.LVL17:
 263              	.LBE16:
 264              	.LBE15:
 265 002c 13850400 		mv	a0,s1
 266 0030 97000000 		call	_ZdlPv@plt
 266      E7800000 
 267              	.LVL18:
 268 0038 83308101 		ld	ra,24(sp)
 269              		.cfi_restore 1
 270 003c 03340101 		ld	s0,16(sp)
 271              		.cfi_restore 8
 272              		.cfi_def_cfa 2, 32
 273 0040 83348100 		ld	s1,8(sp)
 274              		.cfi_restore 9
 275              	.LVL19:
 276 0044 13010102 		addi	sp,sp,32
 277              		.cfi_def_cfa_offset 0
 278 0048 67800000 		jr	ra
 279              		.cfi_endproc
 280              	.LFE94:
 282              		.section	.text._ZN14PeriodicThread3runEv,"axG",@progbits,_ZN14PeriodicThread3runEv,comdat
 283              		.align	2
 284              		.weak	_ZN14PeriodicThread3runEv
 286              	_ZN14PeriodicThread3runEv:
 287              	.LFB2:
  43:src/../h/syscall_cpp.hpp ****     void run() override {
 288              		.loc 1 43 10 is_stmt 1
 289              		.cfi_startproc
 290              	.LVL20:
 291 0000 130101FE 		addi	sp,sp,-32
 292              		.cfi_def_cfa_offset 32
 293 0004 233C1100 		sd	ra,24(sp)
 294 0008 23388100 		sd	s0,16(sp)
GAS LISTING /tmp/ccm7TKJb.s 			page 8


 295 000c 23349100 		sd	s1,8(sp)
 296              		.cfi_offset 1, -8
 297              		.cfi_offset 8, -16
 298              		.cfi_offset 9, -24
 299 0010 13040102 		addi	s0,sp,32
 300              		.cfi_def_cfa 8, 0
 301 0014 93040500 		mv	s1,a0
 302              	.LVL21:
 303              	.L20:
  44:src/../h/syscall_cpp.hpp ****         while(true){
 304              		.loc 1 44 9 discriminator 1
  45:src/../h/syscall_cpp.hpp ****             periodicActivation();
 305              		.loc 1 45 13 discriminator 1
 306              		.loc 1 45 32 is_stmt 0 discriminator 1
 307 0018 83B70400 		ld	a5,0(s1)
 308 001c 83B78701 		ld	a5,24(a5)
 309              		.loc 1 45 31 discriminator 1
 310 0020 13850400 		mv	a0,s1
 311 0024 E7800700 		jalr	a5
 312              	.LVL22:
  46:src/../h/syscall_cpp.hpp ****             time_sleep(period);
 313              		.loc 1 46 13 is_stmt 1 discriminator 1
 314              		.loc 1 46 23 is_stmt 0 discriminator 1
 315 0028 03B50401 		ld	a0,16(s1)
 316 002c 97000000 		call	_Z10time_sleepm@plt
 316      E7800000 
 317              	.LVL23:
  44:src/../h/syscall_cpp.hpp ****         while(true){
 318              		.loc 1 44 9 is_stmt 1 discriminator 1
 319 0034 6FF05FFE 		j	.L20
 320              		.cfi_endproc
 321              	.LFE2:
 323              		.text
 324              		.align	2
 325              		.globl	_ZN9SemaphoreD2Ev
 327              	_ZN9SemaphoreD2Ev:
 328              	.LFB80:
  43:src/syscall_cpp.cpp **** 
  44:src/syscall_cpp.cpp **** char Console::getc() {
  45:src/syscall_cpp.cpp ****     return ::getc();
  46:src/syscall_cpp.cpp **** }
  47:src/syscall_cpp.cpp **** 
  48:src/syscall_cpp.cpp **** void Console::putc(char c) {
  49:src/syscall_cpp.cpp ****     ::putc(c);
  50:src/syscall_cpp.cpp **** }
  51:src/syscall_cpp.cpp **** 
  52:src/syscall_cpp.cpp **** Semaphore::Semaphore(unsigned int init) {
  53:src/syscall_cpp.cpp ****     myHandle = nullptr;
  54:src/syscall_cpp.cpp ****     sem_open(&myHandle, init);
  55:src/syscall_cpp.cpp **** }
  56:src/syscall_cpp.cpp **** 
  57:src/syscall_cpp.cpp **** Semaphore::~Semaphore() {
 329              		.loc 2 57 1
 330              		.cfi_startproc
 331              		.cfi_personality 0x9b,DW.ref.__gxx_personality_v0
 332              		.cfi_lsda 0x1b,.LLSDA80
 333              	.LVL24:
GAS LISTING /tmp/ccm7TKJb.s 			page 9


 334 00bc 130101FF 		addi	sp,sp,-16
 335              		.cfi_def_cfa_offset 16
 336 00c0 23341100 		sd	ra,8(sp)
 337 00c4 23308100 		sd	s0,0(sp)
 338              		.cfi_offset 1, -8
 339              		.cfi_offset 8, -16
 340 00c8 13040101 		addi	s0,sp,16
 341              		.cfi_def_cfa 8, 0
 342              	.LBB17:
 343              		.loc 2 57 23 is_stmt 0
 344 00cc 97070000 		lla	a5,_ZTV9Semaphore+16
 344      93870700 
 345 00d4 2330F500 		sd	a5,0(a0)
  58:src/syscall_cpp.cpp ****     sem_close(myHandle);
 346              		.loc 2 58 5 is_stmt 1
 347              		.loc 2 58 14 is_stmt 0
 348 00d8 03358500 		ld	a0,8(a0)
 349              	.LVL25:
 350 00dc 97000000 		call	_Z9sem_closeP4_sem@plt
 350      E7800000 
 351              	.LVL26:
 352              	.LBE17:
  59:src/syscall_cpp.cpp **** }
 353              		.loc 2 59 1
 354 00e4 83308100 		ld	ra,8(sp)
 355              		.cfi_restore 1
 356 00e8 03340100 		ld	s0,0(sp)
 357              		.cfi_restore 8
 358              		.cfi_def_cfa 2, 16
 359 00ec 13010101 		addi	sp,sp,16
 360              		.cfi_def_cfa_offset 0
 361 00f0 67800000 		jr	ra
 362              		.cfi_endproc
 363              	.LFE80:
 364              		.globl	__gxx_personality_v0
 365              		.section	.gcc_except_table,"a",@progbits
 366              	.LLSDA80:
 367 0000 FF       		.byte	0xff
 368 0001 FF       		.byte	0xff
 369 0002 03       		.byte	0x3
 370 0003 00       		.byte	0
 371              		.text
 373              		.globl	_ZN9SemaphoreD1Ev
 374              		.set	_ZN9SemaphoreD1Ev,_ZN9SemaphoreD2Ev
 375              		.align	2
 376              		.globl	_ZN9SemaphoreD0Ev
 378              	_ZN9SemaphoreD0Ev:
 379              	.LFB82:
  57:src/syscall_cpp.cpp ****     sem_close(myHandle);
 380              		.loc 2 57 1 is_stmt 1
 381              		.cfi_startproc
 382              	.LVL27:
 383 00f4 130101FE 		addi	sp,sp,-32
 384              		.cfi_def_cfa_offset 32
 385 00f8 233C1100 		sd	ra,24(sp)
 386 00fc 23388100 		sd	s0,16(sp)
 387 0100 23349100 		sd	s1,8(sp)
GAS LISTING /tmp/ccm7TKJb.s 			page 10


 388              		.cfi_offset 1, -8
 389              		.cfi_offset 8, -16
 390              		.cfi_offset 9, -24
 391 0104 13040102 		addi	s0,sp,32
 392              		.cfi_def_cfa 8, 0
 393 0108 93040500 		mv	s1,a0
 394              		.loc 2 59 1 is_stmt 0
 395 010c 97000000 		call	_ZN9SemaphoreD1Ev
 395      E7800000 
 396              	.LVL28:
 397 0114 13850400 		mv	a0,s1
 398 0118 97000000 		call	_ZdlPv@plt
 398      E7800000 
 399              	.LVL29:
 400 0120 83308101 		ld	ra,24(sp)
 401              		.cfi_restore 1
 402 0124 03340101 		ld	s0,16(sp)
 403              		.cfi_restore 8
 404              		.cfi_def_cfa 2, 32
 405 0128 83348100 		ld	s1,8(sp)
 406              		.cfi_restore 9
 407              	.LVL30:
 408 012c 13010102 		addi	sp,sp,32
 409              		.cfi_def_cfa_offset 0
 410 0130 67800000 		jr	ra
 411              		.cfi_endproc
 412              	.LFE82:
 414              		.align	2
 415              		.globl	_ZN6ThreadC2EPFvPvES0_
 417              	_ZN6ThreadC2EPFvPvES0_:
 418              	.LFB61:
  11:src/syscall_cpp.cpp ****     myHandle = nullptr;
 419              		.loc 2 11 1 is_stmt 1
 420              		.cfi_startproc
 421              	.LVL31:
 422 0134 130101FF 		addi	sp,sp,-16
 423              		.cfi_def_cfa_offset 16
 424 0138 23341100 		sd	ra,8(sp)
 425 013c 23308100 		sd	s0,0(sp)
 426              		.cfi_offset 1, -8
 427              		.cfi_offset 8, -16
 428 0140 13040101 		addi	s0,sp,16
 429              		.cfi_def_cfa 8, 0
 430              	.LBB18:
  11:src/syscall_cpp.cpp ****     myHandle = nullptr;
 431              		.loc 2 11 47 is_stmt 0
 432 0144 97070000 		lla	a5,_ZTV6Thread+16
 432      93870700 
 433 014c 2330F500 		sd	a5,0(a0)
  12:src/syscall_cpp.cpp ****     thread_create(&myHandle, body, arg);
 434              		.loc 2 12 5 is_stmt 1
  12:src/syscall_cpp.cpp ****     thread_create(&myHandle, body, arg);
 435              		.loc 2 12 14 is_stmt 0
 436 0150 23340500 		sd	zero,8(a0)
  13:src/syscall_cpp.cpp **** }
 437              		.loc 2 13 5 is_stmt 1
  13:src/syscall_cpp.cpp **** }
GAS LISTING /tmp/ccm7TKJb.s 			page 11


 438              		.loc 2 13 18 is_stmt 0
 439 0154 13058500 		addi	a0,a0,8
 440              	.LVL32:
 441 0158 97000000 		call	_Z13thread_createPP3TCBPFvPvES2_@plt
 441      E7800000 
 442              	.LVL33:
 443              	.LBE18:
  14:src/syscall_cpp.cpp **** 
 444              		.loc 2 14 1
 445 0160 83308100 		ld	ra,8(sp)
 446              		.cfi_restore 1
 447 0164 03340100 		ld	s0,0(sp)
 448              		.cfi_restore 8
 449              		.cfi_def_cfa 2, 16
 450 0168 13010101 		addi	sp,sp,16
 451              		.cfi_def_cfa_offset 0
 452 016c 67800000 		jr	ra
 453              		.cfi_endproc
 454              	.LFE61:
 456              		.globl	_ZN6ThreadC1EPFvPvES0_
 457              		.set	_ZN6ThreadC1EPFvPvES0_,_ZN6ThreadC2EPFvPvES0_
 458              		.align	2
 459              		.globl	_ZN6Thread5startEv
 461              	_ZN6Thread5startEv:
 462              	.LFB67:
  21:src/syscall_cpp.cpp ****     myHandle->start();
 463              		.loc 2 21 21 is_stmt 1
 464              		.cfi_startproc
 465              	.LVL34:
 466 0170 130101FF 		addi	sp,sp,-16
 467              		.cfi_def_cfa_offset 16
 468 0174 23341100 		sd	ra,8(sp)
 469 0178 23308100 		sd	s0,0(sp)
 470              		.cfi_offset 1, -8
 471              		.cfi_offset 8, -16
 472 017c 13040101 		addi	s0,sp,16
 473              		.cfi_def_cfa 8, 0
  22:src/syscall_cpp.cpp ****     return 0;
 474              		.loc 2 22 5
 475              	.LVL35:
 476              	.LBB19:
 477              	.LBB20:
  21:src/../h/tcb.hpp **** 
  22:src/../h/tcb.hpp ****     bool isSleeping() const { return sleeping; }
  23:src/../h/tcb.hpp ****     void setSleeping(bool value) { sleeping = value; }
  24:src/../h/tcb.hpp **** 
  25:src/../h/tcb.hpp ****     bool isBlocked() const { return blocked; }
  26:src/../h/tcb.hpp ****     void setBlocked(bool value) { blocked = value; }
  27:src/../h/tcb.hpp **** 
  28:src/../h/tcb.hpp ****     bool getMain() const { return main; }
  29:src/../h/tcb.hpp **** 
  30:src/../h/tcb.hpp ****     int getId() const { return id; }
  31:src/../h/tcb.hpp **** 
  32:src/../h/tcb.hpp ****     uint64 getTimeSlice() const { return timeSlice; }
  33:src/../h/tcb.hpp **** 
  34:src/../h/tcb.hpp ****     void start() {
  35:src/../h/tcb.hpp ****         Scheduler::put(this);
GAS LISTING /tmp/ccm7TKJb.s 			page 12


 478              		.loc 3 35 9
 479              		.loc 3 35 23 is_stmt 0
 480 0180 03358500 		ld	a0,8(a0)
 481              	.LVL36:
 482 0184 97000000 		call	_ZN9Scheduler3putEP3TCB@plt
 482      E7800000 
 483              	.LVL37:
 484              	.LBE20:
 485              	.LBE19:
  23:src/syscall_cpp.cpp **** }
 486              		.loc 2 23 5 is_stmt 1
  24:src/syscall_cpp.cpp **** 
 487              		.loc 2 24 1 is_stmt 0
 488 018c 13050000 		li	a0,0
 489 0190 83308100 		ld	ra,8(sp)
 490              		.cfi_restore 1
 491 0194 03340100 		ld	s0,0(sp)
 492              		.cfi_restore 8
 493              		.cfi_def_cfa 2, 16
 494 0198 13010101 		addi	sp,sp,16
 495              		.cfi_def_cfa_offset 0
 496 019c 67800000 		jr	ra
 497              		.cfi_endproc
 498              	.LFE67:
 500              		.align	2
 501              		.globl	_ZN6Thread8dispatchEv
 503              	_ZN6Thread8dispatchEv:
 504              	.LFB68:
  26:src/syscall_cpp.cpp ****     thread_dispatch();
 505              		.loc 2 26 25 is_stmt 1
 506              		.cfi_startproc
 507 01a0 130101FF 		addi	sp,sp,-16
 508              		.cfi_def_cfa_offset 16
 509 01a4 23341100 		sd	ra,8(sp)
 510 01a8 23308100 		sd	s0,0(sp)
 511              		.cfi_offset 1, -8
 512              		.cfi_offset 8, -16
 513 01ac 13040101 		addi	s0,sp,16
 514              		.cfi_def_cfa 8, 0
  27:src/syscall_cpp.cpp **** }
 515              		.loc 2 27 5
  27:src/syscall_cpp.cpp **** }
 516              		.loc 2 27 20 is_stmt 0
 517 01b0 97000000 		call	_Z15thread_dispatchv@plt
 517      E7800000 
 518              	.LVL38:
  28:src/syscall_cpp.cpp **** 
 519              		.loc 2 28 1
 520 01b8 83308100 		ld	ra,8(sp)
 521              		.cfi_restore 1
 522 01bc 03340100 		ld	s0,0(sp)
 523              		.cfi_restore 8
 524              		.cfi_def_cfa 2, 16
 525 01c0 13010101 		addi	sp,sp,16
 526              		.cfi_def_cfa_offset 0
 527 01c4 67800000 		jr	ra
 528              		.cfi_endproc
GAS LISTING /tmp/ccm7TKJb.s 			page 13


 529              	.LFE68:
 531              		.align	2
 532              		.globl	_ZN6Thread5sleepEm
 534              	_ZN6Thread5sleepEm:
 535              	.LFB69:
  30:src/syscall_cpp.cpp ****     time_sleep(time);
 536              		.loc 2 30 32 is_stmt 1
 537              		.cfi_startproc
 538              	.LVL39:
 539 01c8 130101FF 		addi	sp,sp,-16
 540              		.cfi_def_cfa_offset 16
 541 01cc 23341100 		sd	ra,8(sp)
 542 01d0 23308100 		sd	s0,0(sp)
 543              		.cfi_offset 1, -8
 544              		.cfi_offset 8, -16
 545 01d4 13040101 		addi	s0,sp,16
 546              		.cfi_def_cfa 8, 0
  31:src/syscall_cpp.cpp ****     return 0;
 547              		.loc 2 31 5
  31:src/syscall_cpp.cpp ****     return 0;
 548              		.loc 2 31 15 is_stmt 0
 549 01d8 97000000 		call	_Z10time_sleepm@plt
 549      E7800000 
 550              	.LVL40:
  32:src/syscall_cpp.cpp **** }
 551              		.loc 2 32 5 is_stmt 1
  33:src/syscall_cpp.cpp **** 
 552              		.loc 2 33 1 is_stmt 0
 553 01e0 13050000 		li	a0,0
 554 01e4 83308100 		ld	ra,8(sp)
 555              		.cfi_restore 1
 556 01e8 03340100 		ld	s0,0(sp)
 557              		.cfi_restore 8
 558              		.cfi_def_cfa 2, 16
 559 01ec 13010101 		addi	sp,sp,16
 560              		.cfi_def_cfa_offset 0
 561 01f0 67800000 		jr	ra
 562              		.cfi_endproc
 563              	.LFE69:
 565              		.align	2
 566              		.globl	_ZN6ThreadC2Ev
 568              	_ZN6ThreadC2Ev:
 569              	.LFB71:
  35:src/syscall_cpp.cpp ****     myHandle = nullptr;
 570              		.loc 2 35 1 is_stmt 1
 571              		.cfi_startproc
 572              	.LVL41:
 573 01f4 130101FF 		addi	sp,sp,-16
 574              		.cfi_def_cfa_offset 16
 575 01f8 23341100 		sd	ra,8(sp)
 576 01fc 23308100 		sd	s0,0(sp)
 577              		.cfi_offset 1, -8
 578              		.cfi_offset 8, -16
 579 0200 13040101 		addi	s0,sp,16
 580              		.cfi_def_cfa 8, 0
 581              	.LBB21:
  35:src/syscall_cpp.cpp ****     myHandle = nullptr;
GAS LISTING /tmp/ccm7TKJb.s 			page 14


 582              		.loc 2 35 16 is_stmt 0
 583 0204 97070000 		lla	a5,_ZTV6Thread+16
 583      93870700 
 584 020c 2330F500 		sd	a5,0(a0)
  36:src/syscall_cpp.cpp ****     thread_create(&myHandle, Thread::threadWrapper, (void*)this);
 585              		.loc 2 36 5 is_stmt 1
  36:src/syscall_cpp.cpp ****     thread_create(&myHandle, Thread::threadWrapper, (void*)this);
 586              		.loc 2 36 14 is_stmt 0
 587 0210 23340500 		sd	zero,8(a0)
  37:src/syscall_cpp.cpp **** }
 588              		.loc 2 37 5 is_stmt 1
  37:src/syscall_cpp.cpp **** }
 589              		.loc 2 37 18 is_stmt 0
 590 0214 13060500 		mv	a2,a0
 591 0218 97050000 		lla	a1,_ZN6Thread13threadWrapperEPv
 591      93850500 
 592 0220 13058500 		addi	a0,a0,8
 593              	.LVL42:
 594 0224 97000000 		call	_Z13thread_createPP3TCBPFvPvES2_@plt
 594      E7800000 
 595              	.LVL43:
 596              	.LBE21:
  38:src/syscall_cpp.cpp **** 
 597              		.loc 2 38 1
 598 022c 83308100 		ld	ra,8(sp)
 599              		.cfi_restore 1
 600 0230 03340100 		ld	s0,0(sp)
 601              		.cfi_restore 8
 602              		.cfi_def_cfa 2, 16
 603 0234 13010101 		addi	sp,sp,16
 604              		.cfi_def_cfa_offset 0
 605 0238 67800000 		jr	ra
 606              		.cfi_endproc
 607              	.LFE71:
 609              		.globl	_ZN6ThreadC1Ev
 610              		.set	_ZN6ThreadC1Ev,_ZN6ThreadC2Ev
 611              		.align	2
 612              		.globl	_ZN7Console4getcEv
 614              	_ZN7Console4getcEv:
 615              	.LFB74:
  44:src/syscall_cpp.cpp ****     return ::getc();
 616              		.loc 2 44 22 is_stmt 1
 617              		.cfi_startproc
 618 023c 130101FF 		addi	sp,sp,-16
 619              		.cfi_def_cfa_offset 16
 620 0240 23341100 		sd	ra,8(sp)
 621 0244 23308100 		sd	s0,0(sp)
 622              		.cfi_offset 1, -8
 623              		.cfi_offset 8, -16
 624 0248 13040101 		addi	s0,sp,16
 625              		.cfi_def_cfa 8, 0
  45:src/syscall_cpp.cpp **** }
 626              		.loc 2 45 5
  45:src/syscall_cpp.cpp **** }
 627              		.loc 2 45 18 is_stmt 0
 628 024c 97000000 		call	_Z4getcv@plt
 628      E7800000 
GAS LISTING /tmp/ccm7TKJb.s 			page 15


 629              	.LVL44:
  46:src/syscall_cpp.cpp **** 
 630              		.loc 2 46 1
 631 0254 83308100 		ld	ra,8(sp)
 632              		.cfi_restore 1
 633 0258 03340100 		ld	s0,0(sp)
 634              		.cfi_restore 8
 635              		.cfi_def_cfa 2, 16
 636 025c 13010101 		addi	sp,sp,16
 637              		.cfi_def_cfa_offset 0
 638 0260 67800000 		jr	ra
 639              		.cfi_endproc
 640              	.LFE74:
 642              		.align	2
 643              		.globl	_ZN7Console4putcEc
 645              	_ZN7Console4putcEc:
 646              	.LFB75:
  48:src/syscall_cpp.cpp ****     ::putc(c);
 647              		.loc 2 48 28 is_stmt 1
 648              		.cfi_startproc
 649              	.LVL45:
 650 0264 130101FF 		addi	sp,sp,-16
 651              		.cfi_def_cfa_offset 16
 652 0268 23341100 		sd	ra,8(sp)
 653 026c 23308100 		sd	s0,0(sp)
 654              		.cfi_offset 1, -8
 655              		.cfi_offset 8, -16
 656 0270 13040101 		addi	s0,sp,16
 657              		.cfi_def_cfa 8, 0
  49:src/syscall_cpp.cpp **** }
 658              		.loc 2 49 5
  49:src/syscall_cpp.cpp **** }
 659              		.loc 2 49 11 is_stmt 0
 660 0274 97000000 		call	_Z4putcc@plt
 660      E7800000 
 661              	.LVL46:
  50:src/syscall_cpp.cpp **** 
 662              		.loc 2 50 1
 663 027c 83308100 		ld	ra,8(sp)
 664              		.cfi_restore 1
 665 0280 03340100 		ld	s0,0(sp)
 666              		.cfi_restore 8
 667              		.cfi_def_cfa 2, 16
 668 0284 13010101 		addi	sp,sp,16
 669              		.cfi_def_cfa_offset 0
 670 0288 67800000 		jr	ra
 671              		.cfi_endproc
 672              	.LFE75:
 674              		.align	2
 675              		.globl	_ZN9SemaphoreC2Ej
 677              	_ZN9SemaphoreC2Ej:
 678              	.LFB77:
  52:src/syscall_cpp.cpp ****     myHandle = nullptr;
 679              		.loc 2 52 1 is_stmt 1
 680              		.cfi_startproc
 681              	.LVL47:
 682 028c 130101FF 		addi	sp,sp,-16
GAS LISTING /tmp/ccm7TKJb.s 			page 16


 683              		.cfi_def_cfa_offset 16
 684 0290 23341100 		sd	ra,8(sp)
 685 0294 23308100 		sd	s0,0(sp)
 686              		.cfi_offset 1, -8
 687              		.cfi_offset 8, -16
 688 0298 13040101 		addi	s0,sp,16
 689              		.cfi_def_cfa 8, 0
 690              	.LBB22:
  52:src/syscall_cpp.cpp ****     myHandle = nullptr;
 691              		.loc 2 52 39 is_stmt 0
 692 029c 97070000 		lla	a5,_ZTV9Semaphore+16
 692      93870700 
 693 02a4 2330F500 		sd	a5,0(a0)
  53:src/syscall_cpp.cpp ****     sem_open(&myHandle, init);
 694              		.loc 2 53 5 is_stmt 1
  53:src/syscall_cpp.cpp ****     sem_open(&myHandle, init);
 695              		.loc 2 53 14 is_stmt 0
 696 02a8 23340500 		sd	zero,8(a0)
  54:src/syscall_cpp.cpp **** }
 697              		.loc 2 54 5 is_stmt 1
  54:src/syscall_cpp.cpp **** }
 698              		.loc 2 54 13 is_stmt 0
 699 02ac 13058500 		addi	a0,a0,8
 700              	.LVL48:
 701 02b0 97000000 		call	_Z8sem_openPP4_semj@plt
 701      E7800000 
 702              	.LVL49:
 703              	.LBE22:
  55:src/syscall_cpp.cpp **** 
 704              		.loc 2 55 1
 705 02b8 83308100 		ld	ra,8(sp)
 706              		.cfi_restore 1
 707 02bc 03340100 		ld	s0,0(sp)
 708              		.cfi_restore 8
 709              		.cfi_def_cfa 2, 16
 710 02c0 13010101 		addi	sp,sp,16
 711              		.cfi_def_cfa_offset 0
 712 02c4 67800000 		jr	ra
 713              		.cfi_endproc
 714              	.LFE77:
 716              		.globl	_ZN9SemaphoreC1Ej
 717              		.set	_ZN9SemaphoreC1Ej,_ZN9SemaphoreC2Ej
 718              		.align	2
 719              		.globl	_ZN9Semaphore4waitEv
 721              	_ZN9Semaphore4waitEv:
 722              	.LFB83:
  60:src/syscall_cpp.cpp **** 
  61:src/syscall_cpp.cpp **** int Semaphore::wait() {
 723              		.loc 2 61 23 is_stmt 1
 724              		.cfi_startproc
 725              	.LVL50:
 726 02c8 130101FF 		addi	sp,sp,-16
 727              		.cfi_def_cfa_offset 16
 728 02cc 23341100 		sd	ra,8(sp)
 729 02d0 23308100 		sd	s0,0(sp)
 730              		.cfi_offset 1, -8
 731              		.cfi_offset 8, -16
GAS LISTING /tmp/ccm7TKJb.s 			page 17


 732 02d4 13040101 		addi	s0,sp,16
 733              		.cfi_def_cfa 8, 0
  62:src/syscall_cpp.cpp ****     sem_wait(myHandle);
 734              		.loc 2 62 5
 735              		.loc 2 62 13 is_stmt 0
 736 02d8 03358500 		ld	a0,8(a0)
 737              	.LVL51:
 738 02dc 97000000 		call	_Z8sem_waitP4_sem@plt
 738      E7800000 
 739              	.LVL52:
  63:src/syscall_cpp.cpp ****     return 0;
 740              		.loc 2 63 5 is_stmt 1
  64:src/syscall_cpp.cpp **** }
 741              		.loc 2 64 1 is_stmt 0
 742 02e4 13050000 		li	a0,0
 743 02e8 83308100 		ld	ra,8(sp)
 744              		.cfi_restore 1
 745 02ec 03340100 		ld	s0,0(sp)
 746              		.cfi_restore 8
 747              		.cfi_def_cfa 2, 16
 748 02f0 13010101 		addi	sp,sp,16
 749              		.cfi_def_cfa_offset 0
 750 02f4 67800000 		jr	ra
 751              		.cfi_endproc
 752              	.LFE83:
 754              		.align	2
 755              		.globl	_ZN9Semaphore6signalEv
 757              	_ZN9Semaphore6signalEv:
 758              	.LFB84:
  65:src/syscall_cpp.cpp **** 
  66:src/syscall_cpp.cpp **** int Semaphore::signal() {
 759              		.loc 2 66 25 is_stmt 1
 760              		.cfi_startproc
 761              	.LVL53:
 762 02f8 130101FF 		addi	sp,sp,-16
 763              		.cfi_def_cfa_offset 16
 764 02fc 23341100 		sd	ra,8(sp)
 765 0300 23308100 		sd	s0,0(sp)
 766              		.cfi_offset 1, -8
 767              		.cfi_offset 8, -16
 768 0304 13040101 		addi	s0,sp,16
 769              		.cfi_def_cfa 8, 0
  67:src/syscall_cpp.cpp ****     sem_signal(myHandle);
 770              		.loc 2 67 5
 771              		.loc 2 67 15 is_stmt 0
 772 0308 03358500 		ld	a0,8(a0)
 773              	.LVL54:
 774 030c 97000000 		call	_Z10sem_signalP4_sem@plt
 774      E7800000 
 775              	.LVL55:
  68:src/syscall_cpp.cpp ****     return 0;
 776              		.loc 2 68 5 is_stmt 1
  69:src/syscall_cpp.cpp **** }
 777              		.loc 2 69 1 is_stmt 0
 778 0314 13050000 		li	a0,0
 779 0318 83308100 		ld	ra,8(sp)
 780              		.cfi_restore 1
GAS LISTING /tmp/ccm7TKJb.s 			page 18


 781 031c 03340100 		ld	s0,0(sp)
 782              		.cfi_restore 8
 783              		.cfi_def_cfa 2, 16
 784 0320 13010101 		addi	sp,sp,16
 785              		.cfi_def_cfa_offset 0
 786 0324 67800000 		jr	ra
 787              		.cfi_endproc
 788              	.LFE84:
 790              		.align	2
 791              		.globl	_ZN14PeriodicThreadC2Em
 793              	_ZN14PeriodicThreadC2Em:
 794              	.LFB86:
  70:src/syscall_cpp.cpp **** 
  71:src/syscall_cpp.cpp **** PeriodicThread::PeriodicThread(time_t period) : Thread(), period(period){}
 795              		.loc 2 71 1 is_stmt 1
 796              		.cfi_startproc
 797              	.LVL56:
 798 0328 130101FE 		addi	sp,sp,-32
 799              		.cfi_def_cfa_offset 32
 800 032c 233C1100 		sd	ra,24(sp)
 801 0330 23388100 		sd	s0,16(sp)
 802 0334 23349100 		sd	s1,8(sp)
 803 0338 23302101 		sd	s2,0(sp)
 804              		.cfi_offset 1, -8
 805              		.cfi_offset 8, -16
 806              		.cfi_offset 9, -24
 807              		.cfi_offset 18, -32
 808 033c 13040102 		addi	s0,sp,32
 809              		.cfi_def_cfa 8, 0
 810 0340 93040500 		mv	s1,a0
 811 0344 13890500 		mv	s2,a1
 812              	.LBB23:
 813              		.loc 2 71 72 is_stmt 0
 814 0348 97000000 		call	_ZN6ThreadC2Ev
 814      E7800000 
 815              	.LVL57:
 816 0350 97070000 		lla	a5,_ZTV14PeriodicThread+16
 816      93870700 
 817 0358 23B0F400 		sd	a5,0(s1)
 818 035c 23B82401 		sd	s2,16(s1)
 819              	.LBE23:
 820              		.loc 2 71 74
 821 0360 83308101 		ld	ra,24(sp)
 822              		.cfi_restore 1
 823 0364 03340101 		ld	s0,16(sp)
 824              		.cfi_restore 8
 825              		.cfi_def_cfa 2, 32
 826 0368 83348100 		ld	s1,8(sp)
 827              		.cfi_restore 9
 828              	.LVL58:
 829 036c 03390100 		ld	s2,0(sp)
 830              		.cfi_restore 18
 831              	.LVL59:
 832 0370 13010102 		addi	sp,sp,32
 833              		.cfi_def_cfa_offset 0
 834 0374 67800000 		jr	ra
 835              		.cfi_endproc
GAS LISTING /tmp/ccm7TKJb.s 			page 19


 836              	.LFE86:
 838              		.globl	_ZN14PeriodicThreadC1Em
 839              		.set	_ZN14PeriodicThreadC1Em,_ZN14PeriodicThreadC2Em
 840              		.weak	_ZTV14PeriodicThread
 841              		.section	.data.rel.ro.local._ZTV14PeriodicThread,"awG",@progbits,_ZTV14PeriodicThread,comdat
 842              		.align	3
 845              	_ZTV14PeriodicThread:
 846 0000 00000000 		.dword	0
 846      00000000 
 847 0008 00000000 		.dword	0
 847      00000000 
 848 0010 00000000 		.dword	_ZN14PeriodicThreadD1Ev
 848      00000000 
 849 0018 00000000 		.dword	_ZN14PeriodicThreadD0Ev
 849      00000000 
 850 0020 00000000 		.dword	_ZN14PeriodicThread3runEv
 850      00000000 
 851 0028 00000000 		.dword	_ZN14PeriodicThread18periodicActivationEv
 851      00000000 
 852              		.weak	_ZTV6Thread
 853              		.section	.data.rel.ro.local._ZTV6Thread,"awG",@progbits,_ZTV6Thread,comdat
 854              		.align	3
 857              	_ZTV6Thread:
 858 0000 00000000 		.dword	0
 858      00000000 
 859 0008 00000000 		.dword	0
 859      00000000 
 860 0010 00000000 		.dword	_ZN6ThreadD1Ev
 860      00000000 
 861 0018 00000000 		.dword	_ZN6ThreadD0Ev
 861      00000000 
 862 0020 00000000 		.dword	_ZN6Thread3runEv
 862      00000000 
 863              		.weak	_ZTV9Semaphore
 864              		.section	.data.rel.ro.local._ZTV9Semaphore,"awG",@progbits,_ZTV9Semaphore,comdat
 865              		.align	3
 868              	_ZTV9Semaphore:
 869 0000 00000000 		.dword	0
 869      00000000 
 870 0008 00000000 		.dword	0
 870      00000000 
 871 0010 00000000 		.dword	_ZN9SemaphoreD1Ev
 871      00000000 
 872 0018 00000000 		.dword	_ZN9SemaphoreD0Ev
 872      00000000 
 873              		.text
 874              	.Letext0:
 875              		.file 4 "src/../h/../lib/hw.h"
 876              		.file 5 "src/../h/syscall_c.h"
 877              		.file 6 "src/../h/../h/_sem.hpp"
 878              		.file 7 "src/../h/scheduler.hpp"
 879              		.file 8 "src/../h/list.hpp"
 4997              		.align	3
 5000              	DW.ref.__gxx_personality_v0:
 5001 0000 00000000 		.dword	__gxx_personality_v0
 5001      00000000 
 5002              		.ident	"GCC: (Ubuntu 9.4.0-1ubuntu1~20.04) 9.4.0"
GAS LISTING /tmp/ccm7TKJb.s 			page 20


 5003              		.section	.note.GNU-stack,"",@progbits
GAS LISTING /tmp/ccm7TKJb.s 			page 21

