GAS LISTING /tmp/ccsrMTgX.s 			page 1


   1              		.file	"syscall_c.cpp"
   2              		.option pic
   3              		.option norelax
   4              		.text
   5              	.Ltext0:
   6              		.align	2
   7              		.globl	_Z9mem_allocm
   9              	_Z9mem_allocm:
  10              	.LFB22:
  11              		.file 1 "src/syscall_c.cpp"
   1:src/syscall_c.cpp **** #include "../h/syscall_c.h"
   2:src/syscall_c.cpp **** #include "../lib/mem.h"
   3:src/syscall_c.cpp **** #include "../h/tcb.hpp"
   4:src/syscall_c.cpp **** #include "../h/codes.h"
   5:src/syscall_c.cpp **** 
   6:src/syscall_c.cpp **** 
   7:src/syscall_c.cpp **** void* mem_alloc (size_t size) {
  12              		.loc 1 7 31
  13              		.cfi_startproc
  14              	.LVL0:
  15 0000 130101FF 		addi	sp,sp,-16
  16              		.cfi_def_cfa_offset 16
  17 0004 23341100 		sd	ra,8(sp)
  18 0008 23308100 		sd	s0,0(sp)
  19              		.cfi_offset 1, -8
  20              		.cfi_offset 8, -16
  21 000c 13040101 		addi	s0,sp,16
  22              		.cfi_def_cfa 8, 0
   8:src/syscall_c.cpp ****     return __mem_alloc(size);
  23              		.loc 1 8 5
  24              		.loc 1 8 23 is_stmt 0
  25 0010 97000000 		call	__mem_alloc@plt
  25      E7800000 
  26              	.LVL1:
   9:src/syscall_c.cpp **** }
  27              		.loc 1 9 1
  28 0018 83308100 		ld	ra,8(sp)
  29              		.cfi_restore 1
  30 001c 03340100 		ld	s0,0(sp)
  31              		.cfi_restore 8
  32              		.cfi_def_cfa 2, 16
  33 0020 13010101 		addi	sp,sp,16
  34              		.cfi_def_cfa_offset 0
  35 0024 67800000 		jr	ra
  36              		.cfi_endproc
  37              	.LFE22:
  39              		.align	2
  40              		.globl	_Z8mem_freePv
  42              	_Z8mem_freePv:
  43              	.LFB23:
  10:src/syscall_c.cpp **** 
  11:src/syscall_c.cpp **** int mem_free (void* v) {
  44              		.loc 1 11 24 is_stmt 1
  45              		.cfi_startproc
  46              	.LVL2:
  47 0028 130101FF 		addi	sp,sp,-16
  48              		.cfi_def_cfa_offset 16
GAS LISTING /tmp/ccsrMTgX.s 			page 2


  49 002c 23341100 		sd	ra,8(sp)
  50 0030 23308100 		sd	s0,0(sp)
  51              		.cfi_offset 1, -8
  52              		.cfi_offset 8, -16
  53 0034 13040101 		addi	s0,sp,16
  54              		.cfi_def_cfa 8, 0
  12:src/syscall_c.cpp ****     return __mem_free(v);
  55              		.loc 1 12 5
  56              		.loc 1 12 22 is_stmt 0
  57 0038 97000000 		call	__mem_free@plt
  57      E7800000 
  58              	.LVL3:
  13:src/syscall_c.cpp **** }
  59              		.loc 1 13 1
  60 0040 83308100 		ld	ra,8(sp)
  61              		.cfi_restore 1
  62 0044 03340100 		ld	s0,0(sp)
  63              		.cfi_restore 8
  64              		.cfi_def_cfa 2, 16
  65 0048 13010101 		addi	sp,sp,16
  66              		.cfi_def_cfa_offset 0
  67 004c 67800000 		jr	ra
  68              		.cfi_endproc
  69              	.LFE23:
  71              		.align	2
  72              		.globl	_Z13thread_createPP3TCBPFvPvES2_
  74              	_Z13thread_createPP3TCBPFvPvES2_:
  75              	.LFB24:
  14:src/syscall_c.cpp **** 
  15:src/syscall_c.cpp **** int thread_create (thread_t* handle, void(*start_routine)(void*), void* arg) {
  76              		.loc 1 15 78 is_stmt 1
  77              		.cfi_startproc
  78              	.LVL4:
  79 0050 130101FD 		addi	sp,sp,-48
  80              		.cfi_def_cfa_offset 48
  81 0054 23341102 		sd	ra,40(sp)
  82 0058 23308102 		sd	s0,32(sp)
  83 005c 233C9100 		sd	s1,24(sp)
  84 0060 23382101 		sd	s2,16(sp)
  85 0064 23343101 		sd	s3,8(sp)
  86              		.cfi_offset 1, -8
  87              		.cfi_offset 8, -16
  88              		.cfi_offset 9, -24
  89              		.cfi_offset 18, -32
  90              		.cfi_offset 19, -40
  91 0068 13040103 		addi	s0,sp,48
  92              		.cfi_def_cfa 8, 0
  93 006c 93040500 		mv	s1,a0
  94 0070 13890500 		mv	s2,a1
  95 0074 93090600 		mv	s3,a2
  16:src/syscall_c.cpp **** //Ovde moze nastati problem oko registara.
  17:src/syscall_c.cpp **** 
  18:src/syscall_c.cpp ****     auto *stack = (uint64*)(new uint64[DEFAULT_STACK_SIZE]);
  96              		.loc 1 18 5
  97              		.loc 1 18 58 is_stmt 0
  98 0078 37850000 		li	a0,32768
  99              	.LVL5:
GAS LISTING /tmp/ccsrMTgX.s 			page 3


 100 007c 97000000 		call	_Znam@plt
 100      E7800000 
 101              	.LVL6:
  19:src/syscall_c.cpp ****     __asm__ volatile("mv a4, %0" : : "r" (stack));
 102              		.loc 1 19 5 is_stmt 1
 103              		.loc 1 19 50 is_stmt 0
 104              	#APP
 105              	# 19 "src/syscall_c.cpp" 1
  20              	    __asm__ volatile("mv a3, %0" : : "r" (arg));
 106              		mv a4, a0
 107              	# 0 "" 2
 108              		.loc 1 20 5 is_stmt 1
 109              		.loc 1 20 48 is_stmt 0
 110              	# 20 "src/syscall_c.cpp" 1
  21              	    __asm__ volatile("mv a2, %0" : : "r" (start_routine));
 111              		mv a3, s3
 112              	# 0 "" 2
 113              		.loc 1 21 5 is_stmt 1
 114              		.loc 1 21 58 is_stmt 0
 115              	# 21 "src/syscall_c.cpp" 1
  22              	    __asm__ volatile("mv a1, %0" : : "r" (handle));
 116              		mv a2, s2
 117              	# 0 "" 2
 118              		.loc 1 22 5 is_stmt 1
 119              		.loc 1 22 51 is_stmt 0
 120              	# 22 "src/syscall_c.cpp" 1
  23              	    __asm__ volatile("mv a0, %0" : : "r" (THREAD_CREATE));
 121              		mv a1, s1
 122              	# 0 "" 2
 123              		.loc 1 23 5 is_stmt 1
 124              		.loc 1 23 58 is_stmt 0
 125              	#NO_APP
 126 0094 9307B000 		li	a5,11
 127              	#APP
 128              	# 23 "src/syscall_c.cpp" 1
  24              	    __asm__ volatile ("ecall");
 129              		mv a0, a5
 130              	# 0 "" 2
 131              		.loc 1 24 5 is_stmt 1
 132              		.loc 1 24 31 is_stmt 0
 133              	# 24 "src/syscall_c.cpp" 1
  25              	    return 0;
 134              		ecall
 135              	# 0 "" 2
 136              		.loc 1 25 5 is_stmt 1
  26:src/syscall_c.cpp **** 
  27:src/syscall_c.cpp **** }
 137              		.loc 1 27 1 is_stmt 0
 138              	#NO_APP
 139 00a0 13050000 		li	a0,0
 140              	.LVL7:
 141 00a4 83308102 		ld	ra,40(sp)
 142              		.cfi_restore 1
 143 00a8 03340102 		ld	s0,32(sp)
 144              		.cfi_restore 8
 145              		.cfi_def_cfa 2, 48
 146 00ac 83348101 		ld	s1,24(sp)
GAS LISTING /tmp/ccsrMTgX.s 			page 4


 147              		.cfi_restore 9
 148              	.LVL8:
 149 00b0 03390101 		ld	s2,16(sp)
 150              		.cfi_restore 18
 151              	.LVL9:
 152 00b4 83398100 		ld	s3,8(sp)
 153              		.cfi_restore 19
 154              	.LVL10:
 155 00b8 13010103 		addi	sp,sp,48
 156              		.cfi_def_cfa_offset 0
 157 00bc 67800000 		jr	ra
 158              		.cfi_endproc
 159              	.LFE24:
 161              		.section	.rodata.str1.8,"aMS",@progbits,1
 162              		.align	3
 163              	.LC0:
 164 0000 47617369 		.string	"Gasimo nit: "
 164      6D6F206E 
 164      69743A20 
 164      00
 165 000d 000000   		.align	3
 166              	.LC1:
 167 0010 0A00     		.string	"\n"
 168              		.text
 169              		.align	2
 170              		.globl	_Z11thread_exitv
 172              	_Z11thread_exitv:
 173              	.LFB25:
  28:src/syscall_c.cpp **** 
  29:src/syscall_c.cpp **** int thread_exit () {
 174              		.loc 1 29 20 is_stmt 1
 175              		.cfi_startproc
 176 00c0 130101FF 		addi	sp,sp,-16
 177              		.cfi_def_cfa_offset 16
 178 00c4 23341100 		sd	ra,8(sp)
 179 00c8 23308100 		sd	s0,0(sp)
 180              		.cfi_offset 1, -8
 181              		.cfi_offset 8, -16
 182 00cc 13040101 		addi	s0,sp,16
 183              		.cfi_def_cfa 8, 0
  30:src/syscall_c.cpp ****     printString("Gasimo nit: ");
 184              		.loc 1 30 5
 185              		.loc 1 30 16 is_stmt 0
 186 00d0 17050000 		lla	a0,.LC0
 186      13050500 
 187 00d8 97000000 		call	_Z11printStringPKc@plt
 187      E7800000 
 188              	.LVL11:
  31:src/syscall_c.cpp ****     printInteger(TCB::running->getId());
 189              		.loc 1 31 5 is_stmt 1
 190              		.loc 1 31 37 is_stmt 0
 191 00e0 97070000 		la	a5,_ZN3TCB7runningE
 191      83B70700 
 192 00e8 83B70700 		ld	a5,0(a5)
 193              	.LVL12:
 194              	.LBB6:
 195              	.LBB7:
GAS LISTING /tmp/ccsrMTgX.s 			page 5


 196              		.file 2 "src/../h/tcb.hpp"
   1:src/../h/tcb.hpp **** //
   2:src/../h/tcb.hpp **** // Created by marko on 20.4.22..
   3:src/../h/tcb.hpp **** //
   4:src/../h/tcb.hpp **** 
   5:src/../h/tcb.hpp **** #ifndef OS1_VEZBE07_RISCV_CONTEXT_SWITCH_2_INTERRUPT_TCB_HPP
   6:src/../h/tcb.hpp **** #define OS1_VEZBE07_RISCV_CONTEXT_SWITCH_2_INTERRUPT_TCB_HPP
   7:src/../h/tcb.hpp **** 
   8:src/../h/tcb.hpp **** #include "../lib/hw.h"
   9:src/../h/tcb.hpp **** #include "scheduler.hpp"
  10:src/../h/tcb.hpp **** #include "../h/print.hpp"
  11:src/../h/tcb.hpp **** 
  12:src/../h/tcb.hpp **** // Thread Control Block
  13:src/../h/tcb.hpp **** class TCB
  14:src/../h/tcb.hpp **** {
  15:src/../h/tcb.hpp **** public:
  16:src/../h/tcb.hpp ****     ~TCB() {
  17:src/../h/tcb.hpp ****         delete[] stack;
  18:src/../h/tcb.hpp ****     }
  19:src/../h/tcb.hpp **** 
  20:src/../h/tcb.hpp ****     static void outputThreadBody(void*);
  21:src/../h/tcb.hpp **** 
  22:src/../h/tcb.hpp ****     bool isFinished() const { return finished; }
  23:src/../h/tcb.hpp ****     void setFinished(bool value) { finished = value; }
  24:src/../h/tcb.hpp **** 
  25:src/../h/tcb.hpp ****     bool isSleeping() const { return sleeping; }
  26:src/../h/tcb.hpp ****     void setSleeping(bool value) { sleeping = value; }
  27:src/../h/tcb.hpp **** 
  28:src/../h/tcb.hpp ****     bool isBlocked() const { return blocked; }
  29:src/../h/tcb.hpp ****     void setBlocked(bool value) { blocked = value; }
  30:src/../h/tcb.hpp **** 
  31:src/../h/tcb.hpp ****     uint64 getTimeSlice() const { return timeSlice; }
  32:src/../h/tcb.hpp **** 
  33:src/../h/tcb.hpp ****     using Body = void (*)(void*);
  34:src/../h/tcb.hpp ****     static TCB *createThread(TCB** handle, Body body, void* arg, uint64* stack_space);
  35:src/../h/tcb.hpp ****     static void yield();
  36:src/../h/tcb.hpp ****     int getId() { return id; }
 197              		.loc 2 36 19 is_stmt 1
 198              	.LBE7:
 199              	.LBE6:
 200              		.loc 1 31 17 is_stmt 0
 201 00ec 03A50703 		lw	a0,48(a5)
 202 00f0 97000000 		call	_Z12printIntegerm@plt
 202      E7800000 
 203              	.LVL13:
  32:src/syscall_c.cpp ****     printString("\n");
 204              		.loc 1 32 5 is_stmt 1
 205              		.loc 1 32 16 is_stmt 0
 206 00f8 17050000 		lla	a0,.LC1
 206      13050500 
 207 0100 97000000 		call	_Z11printStringPKc@plt
 207      E7800000 
 208              	.LVL14:
  33:src/syscall_c.cpp ****     __asm__ volatile("mv a0, %0" : : "r" (THREAD_EXIT));
 209              		.loc 1 33 5 is_stmt 1
 210              		.loc 1 33 56 is_stmt 0
 211 0108 9307C000 		li	a5,12
GAS LISTING /tmp/ccsrMTgX.s 			page 6


 212              	#APP
 213              	# 33 "src/syscall_c.cpp" 1
  34              	    __asm__ volatile ("ecall");
 214              		mv a0, a5
 215              	# 0 "" 2
 216              		.loc 1 34 5 is_stmt 1
 217              		.loc 1 34 31 is_stmt 0
 218              	# 34 "src/syscall_c.cpp" 1
  35              	    return 0;
 219              		ecall
 220              	# 0 "" 2
 221              		.loc 1 35 5 is_stmt 1
  36:src/syscall_c.cpp **** }
 222              		.loc 1 36 1 is_stmt 0
 223              	#NO_APP
 224 0114 13050000 		li	a0,0
 225 0118 83308100 		ld	ra,8(sp)
 226              		.cfi_restore 1
 227 011c 03340100 		ld	s0,0(sp)
 228              		.cfi_restore 8
 229              		.cfi_def_cfa 2, 16
 230 0120 13010101 		addi	sp,sp,16
 231              		.cfi_def_cfa_offset 0
 232 0124 67800000 		jr	ra
 233              		.cfi_endproc
 234              	.LFE25:
 236              		.align	2
 237              		.globl	_Z15thread_dispatchv
 239              	_Z15thread_dispatchv:
 240              	.LFB26:
  37:src/syscall_c.cpp **** 
  38:src/syscall_c.cpp **** void thread_dispatch () {
 241              		.loc 1 38 25 is_stmt 1
 242              		.cfi_startproc
 243 0128 130101FF 		addi	sp,sp,-16
 244              		.cfi_def_cfa_offset 16
 245 012c 23348100 		sd	s0,8(sp)
 246              		.cfi_offset 8, -8
 247 0130 13040101 		addi	s0,sp,16
 248              		.cfi_def_cfa 8, 0
  39:src/syscall_c.cpp **** 
  40:src/syscall_c.cpp ****     __asm__ volatile("mv a0, %0" : : "r" (THREAD_DISPATCH));
 249              		.loc 1 40 5
 250              		.loc 1 40 60 is_stmt 0
 251 0134 9307D000 		li	a5,13
 252              	#APP
 253              	# 40 "src/syscall_c.cpp" 1
  41              	    __asm__ volatile ("ecall");
 254              		mv a0, a5
 255              	# 0 "" 2
 256              		.loc 1 41 5 is_stmt 1
 257              		.loc 1 41 31 is_stmt 0
 258              	# 41 "src/syscall_c.cpp" 1
  42              	
  43:src/syscall_c.cpp **** }
 259              		ecall
 260              	# 0 "" 2
GAS LISTING /tmp/ccsrMTgX.s 			page 7


 261              		.loc 1 43 1
 262              	#NO_APP
 263 0140 03348100 		ld	s0,8(sp)
 264              		.cfi_restore 8
 265              		.cfi_def_cfa 2, 16
 266 0144 13010101 		addi	sp,sp,16
 267              		.cfi_def_cfa_offset 0
 268 0148 67800000 		jr	ra
 269              		.cfi_endproc
 270              	.LFE26:
 272              		.align	2
 273              		.globl	_Z8sem_openPP4_semj
 275              	_Z8sem_openPP4_semj:
 276              	.LFB27:
  44:src/syscall_c.cpp **** 
  45:src/syscall_c.cpp **** int sem_open (sem_t* handle, unsigned init) {
 277              		.loc 1 45 45 is_stmt 1
 278              		.cfi_startproc
 279              	.LVL15:
 280 014c 130101FF 		addi	sp,sp,-16
 281              		.cfi_def_cfa_offset 16
 282 0150 23348100 		sd	s0,8(sp)
 283              		.cfi_offset 8, -8
 284 0154 13040101 		addi	s0,sp,16
 285              		.cfi_def_cfa 8, 0
  46:src/syscall_c.cpp ****     __asm__ volatile("mv a1, %0" : : "r" (handle));
 286              		.loc 1 46 5
 287              		.loc 1 46 51 is_stmt 0
 288              	#APP
 289              	# 46 "src/syscall_c.cpp" 1
  47              	    __asm__ volatile("mv a0, %0" : : "r" (SEM_OPEN));
 290              		mv a1, a0
 291              	# 0 "" 2
 292              		.loc 1 47 5 is_stmt 1
 293              		.loc 1 47 53 is_stmt 0
 294              	#NO_APP
 295 015c 93075001 		li	a5,21
 296              	#APP
 297              	# 47 "src/syscall_c.cpp" 1
  48              	    __asm__ volatile("mv a2, %0" : : "r" (init));
 298              		mv a0, a5
 299              	# 0 "" 2
 300              		.loc 1 48 5 is_stmt 1
 301              		.loc 1 48 49 is_stmt 0
 302              	# 48 "src/syscall_c.cpp" 1
  49              	    __asm__ volatile ("ecall");
 303              		mv a2, a1
 304              	# 0 "" 2
 305              		.loc 1 49 5 is_stmt 1
 306              		.loc 1 49 31 is_stmt 0
 307              	# 49 "src/syscall_c.cpp" 1
  50              	    return 0;
 308              		ecall
 309              	# 0 "" 2
 310              		.loc 1 50 5 is_stmt 1
  51:src/syscall_c.cpp **** }
 311              		.loc 1 51 1 is_stmt 0
GAS LISTING /tmp/ccsrMTgX.s 			page 8


 312              	#NO_APP
 313 016c 13050000 		li	a0,0
 314              	.LVL16:
 315 0170 03348100 		ld	s0,8(sp)
 316              		.cfi_restore 8
 317              		.cfi_def_cfa 2, 16
 318 0174 13010101 		addi	sp,sp,16
 319              		.cfi_def_cfa_offset 0
 320 0178 67800000 		jr	ra
 321              		.cfi_endproc
 322              	.LFE27:
 324              		.align	2
 325              		.globl	_Z9sem_closeP4_sem
 327              	_Z9sem_closeP4_sem:
 328              	.LFB28:
  52:src/syscall_c.cpp **** 
  53:src/syscall_c.cpp **** int sem_close (sem_t handle) {
 329              		.loc 1 53 30 is_stmt 1
 330              		.cfi_startproc
 331              	.LVL17:
 332 017c 130101FF 		addi	sp,sp,-16
 333              		.cfi_def_cfa_offset 16
 334 0180 23348100 		sd	s0,8(sp)
 335              		.cfi_offset 8, -8
 336 0184 13040101 		addi	s0,sp,16
 337              		.cfi_def_cfa 8, 0
  54:src/syscall_c.cpp ****     __asm__ volatile("mv a1, %0" : : "r" (handle));
 338              		.loc 1 54 5
 339              		.loc 1 54 51 is_stmt 0
 340              	#APP
 341              	# 54 "src/syscall_c.cpp" 1
  55              	    __asm__ volatile("mv a0, %0" : : "r" (SEM_CLOSE));
 342              		mv a1, a0
 343              	# 0 "" 2
 344              		.loc 1 55 5 is_stmt 1
 345              		.loc 1 55 54 is_stmt 0
 346              	#NO_APP
 347 018c 93076001 		li	a5,22
 348              	#APP
 349              	# 55 "src/syscall_c.cpp" 1
  56              	    __asm__ volatile ("ecall");
 350              		mv a0, a5
 351              	# 0 "" 2
 352              		.loc 1 56 5 is_stmt 1
 353              		.loc 1 56 31 is_stmt 0
 354              	# 56 "src/syscall_c.cpp" 1
  57              	    return 0;
 355              		ecall
 356              	# 0 "" 2
 357              		.loc 1 57 5 is_stmt 1
  58:src/syscall_c.cpp **** }
 358              		.loc 1 58 1 is_stmt 0
 359              	#NO_APP
 360 0198 13050000 		li	a0,0
 361              	.LVL18:
 362 019c 03348100 		ld	s0,8(sp)
 363              		.cfi_restore 8
GAS LISTING /tmp/ccsrMTgX.s 			page 9


 364              		.cfi_def_cfa 2, 16
 365 01a0 13010101 		addi	sp,sp,16
 366              		.cfi_def_cfa_offset 0
 367 01a4 67800000 		jr	ra
 368              		.cfi_endproc
 369              	.LFE28:
 371              		.align	2
 372              		.globl	_Z8sem_waitP4_sem
 374              	_Z8sem_waitP4_sem:
 375              	.LFB29:
  59:src/syscall_c.cpp **** 
  60:src/syscall_c.cpp **** int sem_wait (sem_t id) {
 376              		.loc 1 60 25 is_stmt 1
 377              		.cfi_startproc
 378              	.LVL19:
 379 01a8 130101FF 		addi	sp,sp,-16
 380              		.cfi_def_cfa_offset 16
 381 01ac 23348100 		sd	s0,8(sp)
 382              		.cfi_offset 8, -8
 383 01b0 13040101 		addi	s0,sp,16
 384              		.cfi_def_cfa 8, 0
  61:src/syscall_c.cpp ****     __asm__ volatile("mv a1, %0" : : "r" (id));
 385              		.loc 1 61 5
 386              		.loc 1 61 47 is_stmt 0
 387              	#APP
 388              	# 61 "src/syscall_c.cpp" 1
  62              	    __asm__ volatile("mv a0, %0" : : "r" (SEM_WAIT));
 389              		mv a1, a0
 390              	# 0 "" 2
 391              		.loc 1 62 5 is_stmt 1
 392              		.loc 1 62 53 is_stmt 0
 393              	#NO_APP
 394 01b8 93077001 		li	a5,23
 395              	#APP
 396              	# 62 "src/syscall_c.cpp" 1
  63              	    __asm__ volatile ("ecall");
 397              		mv a0, a5
 398              	# 0 "" 2
 399              		.loc 1 63 5 is_stmt 1
 400              		.loc 1 63 31 is_stmt 0
 401              	# 63 "src/syscall_c.cpp" 1
  64              	    return 0;
 402              		ecall
 403              	# 0 "" 2
 404              		.loc 1 64 5 is_stmt 1
  65:src/syscall_c.cpp **** }
 405              		.loc 1 65 1 is_stmt 0
 406              	#NO_APP
 407 01c4 13050000 		li	a0,0
 408              	.LVL20:
 409 01c8 03348100 		ld	s0,8(sp)
 410              		.cfi_restore 8
 411              		.cfi_def_cfa 2, 16
 412 01cc 13010101 		addi	sp,sp,16
 413              		.cfi_def_cfa_offset 0
 414 01d0 67800000 		jr	ra
 415              		.cfi_endproc
GAS LISTING /tmp/ccsrMTgX.s 			page 10


 416              	.LFE29:
 418              		.align	2
 419              		.globl	_Z10sem_signalP4_sem
 421              	_Z10sem_signalP4_sem:
 422              	.LFB30:
  66:src/syscall_c.cpp **** 
  67:src/syscall_c.cpp **** int sem_signal (sem_t id) {
 423              		.loc 1 67 27 is_stmt 1
 424              		.cfi_startproc
 425              	.LVL21:
 426 01d4 130101FF 		addi	sp,sp,-16
 427              		.cfi_def_cfa_offset 16
 428 01d8 23348100 		sd	s0,8(sp)
 429              		.cfi_offset 8, -8
 430 01dc 13040101 		addi	s0,sp,16
 431              		.cfi_def_cfa 8, 0
  68:src/syscall_c.cpp ****     __asm__ volatile("mv a1, %0" : : "r" (id));
 432              		.loc 1 68 5
 433              		.loc 1 68 47 is_stmt 0
 434              	#APP
 435              	# 68 "src/syscall_c.cpp" 1
  69              	    __asm__ volatile("mv a0, %0" : : "r" (SEM_SIGNAL));
 436              		mv a1, a0
 437              	# 0 "" 2
 438              		.loc 1 69 5 is_stmt 1
 439              		.loc 1 69 55 is_stmt 0
 440              	#NO_APP
 441 01e4 93078001 		li	a5,24
 442              	#APP
 443              	# 69 "src/syscall_c.cpp" 1
  70              	    __asm__ volatile ("ecall");
 444              		mv a0, a5
 445              	# 0 "" 2
 446              		.loc 1 70 5 is_stmt 1
 447              		.loc 1 70 31 is_stmt 0
 448              	# 70 "src/syscall_c.cpp" 1
  71              	    return 0;
 449              		ecall
 450              	# 0 "" 2
 451              		.loc 1 71 5 is_stmt 1
  72:src/syscall_c.cpp **** }
 452              		.loc 1 72 1 is_stmt 0
 453              	#NO_APP
 454 01f0 13050000 		li	a0,0
 455              	.LVL22:
 456 01f4 03348100 		ld	s0,8(sp)
 457              		.cfi_restore 8
 458              		.cfi_def_cfa 2, 16
 459 01f8 13010101 		addi	sp,sp,16
 460              		.cfi_def_cfa_offset 0
 461 01fc 67800000 		jr	ra
 462              		.cfi_endproc
 463              	.LFE30:
 465              		.section	.rodata.str1.8
 466 0012 00000000 		.align	3
 466      0000
 467              	.LC2:
GAS LISTING /tmp/ccsrMTgX.s 			page 11


 468 0018 4E697420 		.string	"Nit "
 468      00
 469 001d 000000   		.align	3
 470              	.LC3:
 471 0020 20757370 		.string	" uspavana na: "
 471      6176616E 
 471      61206E61 
 471      3A2000
 472 002f 00       		.align	3
 473              	.LC4:
 474 0030 2073656B 		.string	" sekundi\n"
 474      756E6469 
 474      0A00
 475              		.text
 476              		.align	2
 477              		.globl	_Z10time_sleepm
 479              	_Z10time_sleepm:
 480              	.LFB31:
  73:src/syscall_c.cpp **** 
  74:src/syscall_c.cpp **** int time_sleep (time_t slice) {
 481              		.loc 1 74 31 is_stmt 1
 482              		.cfi_startproc
 483              	.LVL23:
 484 0200 130101FE 		addi	sp,sp,-32
 485              		.cfi_def_cfa_offset 32
 486 0204 233C1100 		sd	ra,24(sp)
 487 0208 23388100 		sd	s0,16(sp)
 488 020c 23349100 		sd	s1,8(sp)
 489              		.cfi_offset 1, -8
 490              		.cfi_offset 8, -16
 491              		.cfi_offset 9, -24
 492 0210 13040102 		addi	s0,sp,32
 493              		.cfi_def_cfa 8, 0
 494 0214 93040500 		mv	s1,a0
  75:src/syscall_c.cpp **** 
  76:src/syscall_c.cpp ****     printString("Nit ");
 495              		.loc 1 76 5
 496              		.loc 1 76 16 is_stmt 0
 497 0218 17050000 		lla	a0,.LC2
 497      13050500 
 498              	.LVL24:
 499 0220 97000000 		call	_Z11printStringPKc@plt
 499      E7800000 
 500              	.LVL25:
  77:src/syscall_c.cpp ****     printInteger(TCB::running->getId());
 501              		.loc 1 77 5 is_stmt 1
 502              		.loc 1 77 37 is_stmt 0
 503 0228 97070000 		la	a5,_ZN3TCB7runningE
 503      83B70700 
 504 0230 83B70700 		ld	a5,0(a5)
 505              	.LVL26:
 506              	.LBB8:
 507              	.LBB9:
 508              		.loc 2 36 19 is_stmt 1
 509              	.LBE9:
 510              	.LBE8:
 511              		.loc 1 77 17 is_stmt 0
GAS LISTING /tmp/ccsrMTgX.s 			page 12


 512 0234 03A50703 		lw	a0,48(a5)
 513 0238 97000000 		call	_Z12printIntegerm@plt
 513      E7800000 
 514              	.LVL27:
  78:src/syscall_c.cpp ****     printString(" uspavana na: ");
 515              		.loc 1 78 5 is_stmt 1
 516              		.loc 1 78 16 is_stmt 0
 517 0240 17050000 		lla	a0,.LC3
 517      13050500 
 518 0248 97000000 		call	_Z11printStringPKc@plt
 518      E7800000 
 519              	.LVL28:
  79:src/syscall_c.cpp ****     printInteger(slice / 10);
 520              		.loc 1 79 5 is_stmt 1
 521              		.loc 1 79 17 is_stmt 0
 522 0250 1305A000 		li	a0,10
 523 0254 33D5A402 		divu	a0,s1,a0
 524 0258 97000000 		call	_Z12printIntegerm@plt
 524      E7800000 
 525              	.LVL29:
  80:src/syscall_c.cpp ****     printString(" sekundi\n");
 526              		.loc 1 80 5 is_stmt 1
 527              		.loc 1 80 16 is_stmt 0
 528 0260 17050000 		lla	a0,.LC4
 528      13050500 
 529 0268 97000000 		call	_Z11printStringPKc@plt
 529      E7800000 
 530              	.LVL30:
  81:src/syscall_c.cpp **** 
  82:src/syscall_c.cpp ****     __asm__ volatile("mv a0, %0" : : "r" (TIME_SLEEP));
 531              		.loc 1 82 5 is_stmt 1
 532              		.loc 1 82 55 is_stmt 0
 533 0270 9307F001 		li	a5,31
 534              	#APP
 535              	# 82 "src/syscall_c.cpp" 1
  83              	    __asm__ volatile("mv a1, %0" : : "r" (slice));
 536              		mv a0, a5
 537              	# 0 "" 2
 538              		.loc 1 83 5 is_stmt 1
 539              		.loc 1 83 50 is_stmt 0
 540              	# 83 "src/syscall_c.cpp" 1
  84              	    __asm__ volatile ("ecall");
 541              		mv a1, s1
 542              	# 0 "" 2
 543              		.loc 1 84 5 is_stmt 1
 544              		.loc 1 84 31 is_stmt 0
 545              	# 84 "src/syscall_c.cpp" 1
  85              	    return 0;
 546              		ecall
 547              	# 0 "" 2
 548              		.loc 1 85 5 is_stmt 1
  86:src/syscall_c.cpp **** }
 549              		.loc 1 86 1 is_stmt 0
 550              	#NO_APP
 551 0280 13050000 		li	a0,0
 552 0284 83308101 		ld	ra,24(sp)
 553              		.cfi_restore 1
GAS LISTING /tmp/ccsrMTgX.s 			page 13


 554 0288 03340101 		ld	s0,16(sp)
 555              		.cfi_restore 8
 556              		.cfi_def_cfa 2, 32
 557 028c 83348100 		ld	s1,8(sp)
 558              		.cfi_restore 9
 559              	.LVL31:
 560 0290 13010102 		addi	sp,sp,32
 561              		.cfi_def_cfa_offset 0
 562 0294 67800000 		jr	ra
 563              		.cfi_endproc
 564              	.LFE31:
 566              		.align	2
 567              		.globl	_Z4getcv
 569              	_Z4getcv:
 570              	.LFB32:
  87:src/syscall_c.cpp **** 
  88:src/syscall_c.cpp **** char getc () {
 571              		.loc 1 88 14 is_stmt 1
 572              		.cfi_startproc
 573 0298 130101FE 		addi	sp,sp,-32
 574              		.cfi_def_cfa_offset 32
 575 029c 233C8100 		sd	s0,24(sp)
 576              		.cfi_offset 8, -8
 577 02a0 13040102 		addi	s0,sp,32
 578              		.cfi_def_cfa 8, 0
  89:src/syscall_c.cpp ****     __asm__ volatile("mv a0, %0" : : "r" (GET_C));
 579              		.loc 1 89 5
 580              		.loc 1 89 50 is_stmt 0
 581 02a4 93079002 		li	a5,41
 582              	#APP
 583              	# 89 "src/syscall_c.cpp" 1
  90              	    char c = 's';
 584              		mv a0, a5
 585              	# 0 "" 2
 586              		.loc 1 90 5 is_stmt 1
 587              		.loc 1 90 10 is_stmt 0
 588              	#NO_APP
 589 02ac 93073007 		li	a5,115
 590 02b0 A307F4FE 		sb	a5,-17(s0)
  91:src/syscall_c.cpp ****     char* ret = &c;
 591              		.loc 1 91 5 is_stmt 1
 592              	.LVL32:
  92:src/syscall_c.cpp ****     __asm__ volatile("mv a1, %0" : : "r" (ret));
 593              		.loc 1 92 5
 594              		.loc 1 92 48 is_stmt 0
 595 02b4 9307F4FE 		addi	a5,s0,-17
 596              	.LVL33:
 597              	#APP
 598              	# 92 "src/syscall_c.cpp" 1
  93              	    __asm__ volatile ("ecall");
 599              		mv a1, a5
 600              	# 0 "" 2
 601              		.loc 1 93 5 is_stmt 1
 602              		.loc 1 93 31 is_stmt 0
 603              	# 93 "src/syscall_c.cpp" 1
  94              	
  95:src/syscall_c.cpp ****     if (ret != nullptr)
GAS LISTING /tmp/ccsrMTgX.s 			page 14


 604              		ecall
 605              	# 0 "" 2
 606              		.loc 1 95 5 is_stmt 1
  96:src/syscall_c.cpp ****         return *ret;
 607              		.loc 1 96 9
  97:src/syscall_c.cpp ****     else {
  98:src/syscall_c.cpp ****         return '!';
  99:src/syscall_c.cpp ****     }
 100:src/syscall_c.cpp **** 
 101:src/syscall_c.cpp **** }
 608              		.loc 1 101 1 is_stmt 0
 609              	#NO_APP
 610 02c0 0345F4FE 		lbu	a0,-17(s0)
 611 02c4 03348101 		ld	s0,24(sp)
 612              		.cfi_restore 8
 613              		.cfi_def_cfa 2, 32
 614 02c8 13010102 		addi	sp,sp,32
 615              		.cfi_def_cfa_offset 0
 616 02cc 67800000 		jr	ra
 617              		.cfi_endproc
 618              	.LFE32:
 620              		.align	2
 621              		.globl	_Z4putcc
 623              	_Z4putcc:
 624              	.LFB33:
 102:src/syscall_c.cpp **** 
 103:src/syscall_c.cpp **** void putc (char c){
 625              		.loc 1 103 19 is_stmt 1
 626              		.cfi_startproc
 627              	.LVL34:
 628 02d0 130101FF 		addi	sp,sp,-16
 629              		.cfi_def_cfa_offset 16
 630 02d4 23348100 		sd	s0,8(sp)
 631              		.cfi_offset 8, -8
 632 02d8 13040101 		addi	s0,sp,16
 633              		.cfi_def_cfa 8, 0
 104:src/syscall_c.cpp ****     __asm__ volatile("mv a1, %0" : : "r" (c));
 634              		.loc 1 104 5
 635              		.loc 1 104 46 is_stmt 0
 636              	#APP
 637              	# 104 "src/syscall_c.cpp" 1
 105              	    __asm__ volatile("mv a0, %0" : : "r" (PUT_C));
 638              		mv a1, a0
 639              	# 0 "" 2
 640              		.loc 1 105 5 is_stmt 1
 641              		.loc 1 105 50 is_stmt 0
 642              	#NO_APP
 643 02e0 9307A002 		li	a5,42
 644              	#APP
 645              	# 105 "src/syscall_c.cpp" 1
 106              	    __asm__ volatile ("ecall");
 646              		mv a0, a5
 647              	# 0 "" 2
 648              		.loc 1 106 5 is_stmt 1
 649              		.loc 1 106 31 is_stmt 0
 650              	# 106 "src/syscall_c.cpp" 1
 107              	}...
GAS LISTING /tmp/ccsrMTgX.s 			page 15


 651              		ecall
 652              	# 0 "" 2
 653              		.loc 1 107 1
 654              	#NO_APP
 655 02ec 03348100 		ld	s0,8(sp)
 656              		.cfi_restore 8
 657              		.cfi_def_cfa 2, 16
 658 02f0 13010101 		addi	sp,sp,16
 659              		.cfi_def_cfa_offset 0
 660 02f4 67800000 		jr	ra
 661              		.cfi_endproc
 662              	.LFE33:
 664              	.Letext0:
 665              		.file 3 "src/../h/../lib/hw.h"
 666              		.file 4 "src/../h/syscall_c.h"
 667              		.file 5 "src/../h/codes.h"
 668              		.file 6 "src/../h/../h/print.hpp"
 669              		.file 7 "src/../lib/mem.h"
GAS LISTING /tmp/ccsrMTgX.s 			page 16


DEFINED SYMBOLS
                            *ABS*:0000000000000000 syscall_c.cpp
     /tmp/ccsrMTgX.s:9      .text:0000000000000000 _Z9mem_allocm
     /tmp/ccsrMTgX.s:13     .text:0000000000000000 .L0 
     /tmp/ccsrMTgX.s:15     .text:0000000000000000 .L0 
     /tmp/ccsrMTgX.s:16     .text:0000000000000004 .L0 
     /tmp/ccsrMTgX.s:19     .text:000000000000000c .L0 
     /tmp/ccsrMTgX.s:20     .text:000000000000000c .L0 
     /tmp/ccsrMTgX.s:22     .text:0000000000000010 .L0 
     /tmp/ccsrMTgX.s:24     .text:0000000000000010 .L0 
     /tmp/ccsrMTgX.s:25     .text:0000000000000010 .L0 
     /tmp/ccsrMTgX.s:28     .text:0000000000000018 .L0 
     /tmp/ccsrMTgX.s:29     .text:000000000000001c .L0 
     /tmp/ccsrMTgX.s:31     .text:0000000000000020 .L0 
     /tmp/ccsrMTgX.s:32     .text:0000000000000020 .L0 
     /tmp/ccsrMTgX.s:34     .text:0000000000000024 .L0 
     /tmp/ccsrMTgX.s:36     .text:0000000000000028 .L0 
     /tmp/ccsrMTgX.s:42     .text:0000000000000028 _Z8mem_freePv
     /tmp/ccsrMTgX.s:45     .text:0000000000000028 .L0 
     /tmp/ccsrMTgX.s:47     .text:0000000000000028 .L0 
     /tmp/ccsrMTgX.s:48     .text:000000000000002c .L0 
     /tmp/ccsrMTgX.s:51     .text:0000000000000034 .L0 
     /tmp/ccsrMTgX.s:52     .text:0000000000000034 .L0 
     /tmp/ccsrMTgX.s:54     .text:0000000000000038 .L0 
     /tmp/ccsrMTgX.s:56     .text:0000000000000038 .L0 
     /tmp/ccsrMTgX.s:57     .text:0000000000000038 .L0 
     /tmp/ccsrMTgX.s:60     .text:0000000000000040 .L0 
     /tmp/ccsrMTgX.s:61     .text:0000000000000044 .L0 
     /tmp/ccsrMTgX.s:63     .text:0000000000000048 .L0 
     /tmp/ccsrMTgX.s:64     .text:0000000000000048 .L0 
     /tmp/ccsrMTgX.s:66     .text:000000000000004c .L0 
     /tmp/ccsrMTgX.s:68     .text:0000000000000050 .L0 
     /tmp/ccsrMTgX.s:74     .text:0000000000000050 _Z13thread_createPP3TCBPFvPvES2_
     /tmp/ccsrMTgX.s:77     .text:0000000000000050 .L0 
     /tmp/ccsrMTgX.s:79     .text:0000000000000050 .L0 
     /tmp/ccsrMTgX.s:80     .text:0000000000000054 .L0 
     /tmp/ccsrMTgX.s:86     .text:0000000000000068 .L0 
     /tmp/ccsrMTgX.s:87     .text:0000000000000068 .L0 
     /tmp/ccsrMTgX.s:88     .text:0000000000000068 .L0 
     /tmp/ccsrMTgX.s:89     .text:0000000000000068 .L0 
     /tmp/ccsrMTgX.s:90     .text:0000000000000068 .L0 
     /tmp/ccsrMTgX.s:92     .text:000000000000006c .L0 
     /tmp/ccsrMTgX.s:97     .text:0000000000000078 .L0 
     /tmp/ccsrMTgX.s:98     .text:0000000000000078 .L0 
     /tmp/ccsrMTgX.s:103    .text:0000000000000084 .L0 
   src/syscall_c.cpp:19     .text:0000000000000084 .L0 
     /tmp/ccsrMTgX.s:109    .text:0000000000000088 .L0 
   src/syscall_c.cpp:20     .text:0000000000000088 .L0 
     /tmp/ccsrMTgX.s:114    .text:000000000000008c .L0 
   src/syscall_c.cpp:21     .text:000000000000008c .L0 
     /tmp/ccsrMTgX.s:119    .text:0000000000000090 .L0 
   src/syscall_c.cpp:22     .text:0000000000000090 .L0 
     /tmp/ccsrMTgX.s:124    .text:0000000000000094 .L0 
     /tmp/ccsrMTgX.s:126    .text:0000000000000094 .L0 
     /tmp/ccsrMTgX.s:132    .text:000000000000009c .L0 
   src/syscall_c.cpp:24     .text:000000000000009c .L0 
     /tmp/ccsrMTgX.s:137    .text:00000000000000a0 .L0 
GAS LISTING /tmp/ccsrMTgX.s 			page 17


     /tmp/ccsrMTgX.s:139    .text:00000000000000a0 .L0 
     /tmp/ccsrMTgX.s:142    .text:00000000000000a8 .L0 
     /tmp/ccsrMTgX.s:144    .text:00000000000000ac .L0 
     /tmp/ccsrMTgX.s:145    .text:00000000000000ac .L0 
     /tmp/ccsrMTgX.s:147    .text:00000000000000b0 .L0 
     /tmp/ccsrMTgX.s:150    .text:00000000000000b4 .L0 
     /tmp/ccsrMTgX.s:153    .text:00000000000000b8 .L0 
     /tmp/ccsrMTgX.s:156    .text:00000000000000bc .L0 
     /tmp/ccsrMTgX.s:158    .text:00000000000000c0 .L0 
     /tmp/ccsrMTgX.s:172    .text:00000000000000c0 _Z11thread_exitv
     /tmp/ccsrMTgX.s:175    .text:00000000000000c0 .L0 
     /tmp/ccsrMTgX.s:176    .text:00000000000000c0 .L0 
     /tmp/ccsrMTgX.s:177    .text:00000000000000c4 .L0 
     /tmp/ccsrMTgX.s:180    .text:00000000000000cc .L0 
     /tmp/ccsrMTgX.s:181    .text:00000000000000cc .L0 
     /tmp/ccsrMTgX.s:183    .text:00000000000000d0 .L0 
     /tmp/ccsrMTgX.s:185    .text:00000000000000d0 .L0 
     /tmp/ccsrMTgX.s:186    .text:00000000000000d0 .L0 
     /tmp/ccsrMTgX.s:190    .text:00000000000000e0 .L0 
     /tmp/ccsrMTgX.s:191    .text:00000000000000e0 .L0 
     /tmp/ccsrMTgX.s:200    .text:00000000000000ec .L0 
     /tmp/ccsrMTgX.s:201    .text:00000000000000ec .L0 
     /tmp/ccsrMTgX.s:205    .text:00000000000000f8 .L0 
     /tmp/ccsrMTgX.s:206    .text:00000000000000f8 .L0 
     /tmp/ccsrMTgX.s:210    .text:0000000000000108 .L0 
     /tmp/ccsrMTgX.s:211    .text:0000000000000108 .L0 
     /tmp/ccsrMTgX.s:217    .text:0000000000000110 .L0 
   src/syscall_c.cpp:34     .text:0000000000000110 .L0 
     /tmp/ccsrMTgX.s:222    .text:0000000000000114 .L0 
     /tmp/ccsrMTgX.s:224    .text:0000000000000114 .L0 
     /tmp/ccsrMTgX.s:226    .text:000000000000011c .L0 
     /tmp/ccsrMTgX.s:228    .text:0000000000000120 .L0 
     /tmp/ccsrMTgX.s:229    .text:0000000000000120 .L0 
     /tmp/ccsrMTgX.s:231    .text:0000000000000124 .L0 
     /tmp/ccsrMTgX.s:233    .text:0000000000000128 .L0 
     /tmp/ccsrMTgX.s:239    .text:0000000000000128 _Z15thread_dispatchv
     /tmp/ccsrMTgX.s:242    .text:0000000000000128 .L0 
     /tmp/ccsrMTgX.s:243    .text:0000000000000128 .L0 
     /tmp/ccsrMTgX.s:244    .text:000000000000012c .L0 
     /tmp/ccsrMTgX.s:246    .text:0000000000000130 .L0 
     /tmp/ccsrMTgX.s:248    .text:0000000000000134 .L0 
     /tmp/ccsrMTgX.s:250    .text:0000000000000134 .L0 
     /tmp/ccsrMTgX.s:251    .text:0000000000000134 .L0 
     /tmp/ccsrMTgX.s:257    .text:000000000000013c .L0 
   src/syscall_c.cpp:41     .text:000000000000013c .L0 
     /tmp/ccsrMTgX.s:263    .text:0000000000000140 .L0 
     /tmp/ccsrMTgX.s:264    .text:0000000000000144 .L0 
     /tmp/ccsrMTgX.s:265    .text:0000000000000144 .L0 
     /tmp/ccsrMTgX.s:267    .text:0000000000000148 .L0 
     /tmp/ccsrMTgX.s:269    .text:000000000000014c .L0 
     /tmp/ccsrMTgX.s:275    .text:000000000000014c _Z8sem_openPP4_semj
     /tmp/ccsrMTgX.s:278    .text:000000000000014c .L0 
     /tmp/ccsrMTgX.s:280    .text:000000000000014c .L0 
     /tmp/ccsrMTgX.s:281    .text:0000000000000150 .L0 
     /tmp/ccsrMTgX.s:283    .text:0000000000000154 .L0 
     /tmp/ccsrMTgX.s:285    .text:0000000000000158 .L0 
     /tmp/ccsrMTgX.s:287    .text:0000000000000158 .L0 
GAS LISTING /tmp/ccsrMTgX.s 			page 18


   src/syscall_c.cpp:46     .text:0000000000000158 .L0 
     /tmp/ccsrMTgX.s:293    .text:000000000000015c .L0 
     /tmp/ccsrMTgX.s:295    .text:000000000000015c .L0 
     /tmp/ccsrMTgX.s:301    .text:0000000000000164 .L0 
   src/syscall_c.cpp:48     .text:0000000000000164 .L0 
     /tmp/ccsrMTgX.s:306    .text:0000000000000168 .L0 
   src/syscall_c.cpp:49     .text:0000000000000168 .L0 
     /tmp/ccsrMTgX.s:311    .text:000000000000016c .L0 
     /tmp/ccsrMTgX.s:313    .text:000000000000016c .L0 
     /tmp/ccsrMTgX.s:316    .text:0000000000000174 .L0 
     /tmp/ccsrMTgX.s:317    .text:0000000000000174 .L0 
     /tmp/ccsrMTgX.s:319    .text:0000000000000178 .L0 
     /tmp/ccsrMTgX.s:321    .text:000000000000017c .L0 
     /tmp/ccsrMTgX.s:327    .text:000000000000017c _Z9sem_closeP4_sem
     /tmp/ccsrMTgX.s:330    .text:000000000000017c .L0 
     /tmp/ccsrMTgX.s:332    .text:000000000000017c .L0 
     /tmp/ccsrMTgX.s:333    .text:0000000000000180 .L0 
     /tmp/ccsrMTgX.s:335    .text:0000000000000184 .L0 
     /tmp/ccsrMTgX.s:337    .text:0000000000000188 .L0 
     /tmp/ccsrMTgX.s:339    .text:0000000000000188 .L0 
   src/syscall_c.cpp:54     .text:0000000000000188 .L0 
     /tmp/ccsrMTgX.s:345    .text:000000000000018c .L0 
     /tmp/ccsrMTgX.s:347    .text:000000000000018c .L0 
     /tmp/ccsrMTgX.s:353    .text:0000000000000194 .L0 
   src/syscall_c.cpp:56     .text:0000000000000194 .L0 
     /tmp/ccsrMTgX.s:358    .text:0000000000000198 .L0 
     /tmp/ccsrMTgX.s:360    .text:0000000000000198 .L0 
     /tmp/ccsrMTgX.s:363    .text:00000000000001a0 .L0 
     /tmp/ccsrMTgX.s:364    .text:00000000000001a0 .L0 
     /tmp/ccsrMTgX.s:366    .text:00000000000001a4 .L0 
     /tmp/ccsrMTgX.s:368    .text:00000000000001a8 .L0 
     /tmp/ccsrMTgX.s:374    .text:00000000000001a8 _Z8sem_waitP4_sem
     /tmp/ccsrMTgX.s:377    .text:00000000000001a8 .L0 
     /tmp/ccsrMTgX.s:379    .text:00000000000001a8 .L0 
     /tmp/ccsrMTgX.s:380    .text:00000000000001ac .L0 
     /tmp/ccsrMTgX.s:382    .text:00000000000001b0 .L0 
     /tmp/ccsrMTgX.s:384    .text:00000000000001b4 .L0 
     /tmp/ccsrMTgX.s:386    .text:00000000000001b4 .L0 
   src/syscall_c.cpp:61     .text:00000000000001b4 .L0 
     /tmp/ccsrMTgX.s:392    .text:00000000000001b8 .L0 
     /tmp/ccsrMTgX.s:394    .text:00000000000001b8 .L0 
     /tmp/ccsrMTgX.s:400    .text:00000000000001c0 .L0 
   src/syscall_c.cpp:63     .text:00000000000001c0 .L0 
     /tmp/ccsrMTgX.s:405    .text:00000000000001c4 .L0 
     /tmp/ccsrMTgX.s:407    .text:00000000000001c4 .L0 
     /tmp/ccsrMTgX.s:410    .text:00000000000001cc .L0 
     /tmp/ccsrMTgX.s:411    .text:00000000000001cc .L0 
     /tmp/ccsrMTgX.s:413    .text:00000000000001d0 .L0 
     /tmp/ccsrMTgX.s:415    .text:00000000000001d4 .L0 
     /tmp/ccsrMTgX.s:421    .text:00000000000001d4 _Z10sem_signalP4_sem
     /tmp/ccsrMTgX.s:424    .text:00000000000001d4 .L0 
     /tmp/ccsrMTgX.s:426    .text:00000000000001d4 .L0 
     /tmp/ccsrMTgX.s:427    .text:00000000000001d8 .L0 
     /tmp/ccsrMTgX.s:429    .text:00000000000001dc .L0 
     /tmp/ccsrMTgX.s:431    .text:00000000000001e0 .L0 
     /tmp/ccsrMTgX.s:433    .text:00000000000001e0 .L0 
   src/syscall_c.cpp:68     .text:00000000000001e0 .L0 
GAS LISTING /tmp/ccsrMTgX.s 			page 19


     /tmp/ccsrMTgX.s:439    .text:00000000000001e4 .L0 
     /tmp/ccsrMTgX.s:441    .text:00000000000001e4 .L0 
     /tmp/ccsrMTgX.s:447    .text:00000000000001ec .L0 
   src/syscall_c.cpp:70     .text:00000000000001ec .L0 
     /tmp/ccsrMTgX.s:452    .text:00000000000001f0 .L0 
     /tmp/ccsrMTgX.s:454    .text:00000000000001f0 .L0 
     /tmp/ccsrMTgX.s:457    .text:00000000000001f8 .L0 
     /tmp/ccsrMTgX.s:458    .text:00000000000001f8 .L0 
     /tmp/ccsrMTgX.s:460    .text:00000000000001fc .L0 
     /tmp/ccsrMTgX.s:462    .text:0000000000000200 .L0 
     /tmp/ccsrMTgX.s:479    .text:0000000000000200 _Z10time_sleepm
     /tmp/ccsrMTgX.s:482    .text:0000000000000200 .L0 
     /tmp/ccsrMTgX.s:484    .text:0000000000000200 .L0 
     /tmp/ccsrMTgX.s:485    .text:0000000000000204 .L0 
     /tmp/ccsrMTgX.s:489    .text:0000000000000210 .L0 
     /tmp/ccsrMTgX.s:490    .text:0000000000000210 .L0 
     /tmp/ccsrMTgX.s:491    .text:0000000000000210 .L0 
     /tmp/ccsrMTgX.s:493    .text:0000000000000214 .L0 
     /tmp/ccsrMTgX.s:496    .text:0000000000000218 .L0 
     /tmp/ccsrMTgX.s:497    .text:0000000000000218 .L0 
     /tmp/ccsrMTgX.s:502    .text:0000000000000228 .L0 
     /tmp/ccsrMTgX.s:503    .text:0000000000000228 .L0 
     /tmp/ccsrMTgX.s:511    .text:0000000000000234 .L0 
     /tmp/ccsrMTgX.s:512    .text:0000000000000234 .L0 
     /tmp/ccsrMTgX.s:516    .text:0000000000000240 .L0 
     /tmp/ccsrMTgX.s:517    .text:0000000000000240 .L0 
     /tmp/ccsrMTgX.s:521    .text:0000000000000250 .L0 
     /tmp/ccsrMTgX.s:522    .text:0000000000000250 .L0 
     /tmp/ccsrMTgX.s:527    .text:0000000000000260 .L0 
     /tmp/ccsrMTgX.s:528    .text:0000000000000260 .L0 
     /tmp/ccsrMTgX.s:532    .text:0000000000000270 .L0 
     /tmp/ccsrMTgX.s:533    .text:0000000000000270 .L0 
     /tmp/ccsrMTgX.s:539    .text:0000000000000278 .L0 
   src/syscall_c.cpp:83     .text:0000000000000278 .L0 
     /tmp/ccsrMTgX.s:544    .text:000000000000027c .L0 
   src/syscall_c.cpp:84     .text:000000000000027c .L0 
     /tmp/ccsrMTgX.s:549    .text:0000000000000280 .L0 
     /tmp/ccsrMTgX.s:551    .text:0000000000000280 .L0 
     /tmp/ccsrMTgX.s:553    .text:0000000000000288 .L0 
     /tmp/ccsrMTgX.s:555    .text:000000000000028c .L0 
     /tmp/ccsrMTgX.s:556    .text:000000000000028c .L0 
     /tmp/ccsrMTgX.s:558    .text:0000000000000290 .L0 
     /tmp/ccsrMTgX.s:561    .text:0000000000000294 .L0 
     /tmp/ccsrMTgX.s:563    .text:0000000000000298 .L0 
     /tmp/ccsrMTgX.s:569    .text:0000000000000298 _Z4getcv
     /tmp/ccsrMTgX.s:572    .text:0000000000000298 .L0 
     /tmp/ccsrMTgX.s:573    .text:0000000000000298 .L0 
     /tmp/ccsrMTgX.s:574    .text:000000000000029c .L0 
     /tmp/ccsrMTgX.s:576    .text:00000000000002a0 .L0 
     /tmp/ccsrMTgX.s:578    .text:00000000000002a4 .L0 
     /tmp/ccsrMTgX.s:580    .text:00000000000002a4 .L0 
     /tmp/ccsrMTgX.s:581    .text:00000000000002a4 .L0 
     /tmp/ccsrMTgX.s:587    .text:00000000000002ac .L0 
     /tmp/ccsrMTgX.s:589    .text:00000000000002ac .L0 
     /tmp/ccsrMTgX.s:593    .text:00000000000002b4 .L0 
     /tmp/ccsrMTgX.s:594    .text:00000000000002b4 .L0 
     /tmp/ccsrMTgX.s:595    .text:00000000000002b4 .L0 
GAS LISTING /tmp/ccsrMTgX.s 			page 20


     /tmp/ccsrMTgX.s:602    .text:00000000000002bc .L0 
   src/syscall_c.cpp:93     .text:00000000000002bc .L0 
     /tmp/ccsrMTgX.s:607    .text:00000000000002c0 .L0 
     /tmp/ccsrMTgX.s:608    .text:00000000000002c0 .L0 
     /tmp/ccsrMTgX.s:610    .text:00000000000002c0 .L0 
     /tmp/ccsrMTgX.s:612    .text:00000000000002c8 .L0 
     /tmp/ccsrMTgX.s:613    .text:00000000000002c8 .L0 
     /tmp/ccsrMTgX.s:615    .text:00000000000002cc .L0 
     /tmp/ccsrMTgX.s:617    .text:00000000000002d0 .L0 
     /tmp/ccsrMTgX.s:623    .text:00000000000002d0 _Z4putcc
     /tmp/ccsrMTgX.s:626    .text:00000000000002d0 .L0 
     /tmp/ccsrMTgX.s:628    .text:00000000000002d0 .L0 
     /tmp/ccsrMTgX.s:629    .text:00000000000002d4 .L0 
     /tmp/ccsrMTgX.s:631    .text:00000000000002d8 .L0 
     /tmp/ccsrMTgX.s:633    .text:00000000000002dc .L0 
     /tmp/ccsrMTgX.s:635    .text:00000000000002dc .L0 
   src/syscall_c.cpp:104    .text:00000000000002dc .L0 
     /tmp/ccsrMTgX.s:641    .text:00000000000002e0 .L0 
     /tmp/ccsrMTgX.s:643    .text:00000000000002e0 .L0 
     /tmp/ccsrMTgX.s:649    .text:00000000000002e8 .L0 
   src/syscall_c.cpp:106    .text:00000000000002e8 .L0 
     /tmp/ccsrMTgX.s:655    .text:00000000000002ec .L0 
     /tmp/ccsrMTgX.s:656    .text:00000000000002f0 .L0 
     /tmp/ccsrMTgX.s:657    .text:00000000000002f0 .L0 
     /tmp/ccsrMTgX.s:659    .text:00000000000002f4 .L0 
     /tmp/ccsrMTgX.s:661    .text:00000000000002f8 .L0 
     /tmp/ccsrMTgX.s:670    .text:00000000000002f8 .L0 
     /tmp/ccsrMTgX.s:163    .rodata.str1.8:0000000000000000 .LC0
     /tmp/ccsrMTgX.s:186    .text:00000000000000d0 .L0 
     /tmp/ccsrMTgX.s:191    .text:00000000000000e0 .L0 
     /tmp/ccsrMTgX.s:166    .rodata.str1.8:0000000000000010 .LC1
     /tmp/ccsrMTgX.s:206    .text:00000000000000f8 .L0 
     /tmp/ccsrMTgX.s:467    .rodata.str1.8:0000000000000018 .LC2
     /tmp/ccsrMTgX.s:497    .text:0000000000000218 .L0 
     /tmp/ccsrMTgX.s:503    .text:0000000000000228 .L0 
     /tmp/ccsrMTgX.s:470    .rodata.str1.8:0000000000000020 .LC3
     /tmp/ccsrMTgX.s:517    .text:0000000000000240 .L0 
     /tmp/ccsrMTgX.s:473    .rodata.str1.8:0000000000000030 .LC4
     /tmp/ccsrMTgX.s:528    .text:0000000000000260 .L0 
     /tmp/ccsrMTgX.s:1723   .debug_abbrev:0000000000000000 .Ldebug_abbrev0
     /tmp/ccsrMTgX.s:3037   .debug_str:00000000000005d0 .LASF102
     /tmp/ccsrMTgX.s:2929   .debug_str:00000000000002fc .LASF103
     /tmp/ccsrMTgX.s:2865   .debug_str:000000000000013c .LASF104
     /tmp/ccsrMTgX.s:5      .text:0000000000000000 .Ltext0
     /tmp/ccsrMTgX.s:664    .text:00000000000002f8 .Letext0
     /tmp/ccsrMTgX.s:2815   .debug_line:0000000000000000 .Ldebug_line0
     /tmp/ccsrMTgX.s:3019   .debug_str:0000000000000575 .LASF0
     /tmp/ccsrMTgX.s:2969   .debug_str:00000000000003f3 .LASF1
     /tmp/ccsrMTgX.s:2981   .debug_str:0000000000000448 .LASF2
     /tmp/ccsrMTgX.s:2953   .debug_str:0000000000000394 .LASF3
     /tmp/ccsrMTgX.s:2925   .debug_str:00000000000002ea .LASF4
     /tmp/ccsrMTgX.s:2845   .debug_str:00000000000000c0 .LASF5
     /tmp/ccsrMTgX.s:2871   .debug_str:0000000000000180 .LASF6
     /tmp/ccsrMTgX.s:2985   .debug_str:000000000000046c .LASF7
     /tmp/ccsrMTgX.s:2967   .debug_str:00000000000003e0 .LASF8
     /tmp/ccsrMTgX.s:3045   .debug_str:00000000000006c2 .LASF9
     /tmp/ccsrMTgX.s:2907   .debug_str:0000000000000263 .LASF10
GAS LISTING /tmp/ccsrMTgX.s 			page 21


     /tmp/ccsrMTgX.s:2997   .debug_str:00000000000004cf .LASF11
     /tmp/ccsrMTgX.s:3039   .debug_str:0000000000000694 .LASF12
     /tmp/ccsrMTgX.s:2847   .debug_str:00000000000000c7 .LASF13
     /tmp/ccsrMTgX.s:2823   .debug_str:0000000000000022 .LASF14
     /tmp/ccsrMTgX.s:2855   .debug_str:00000000000000ff .LASF15
     /tmp/ccsrMTgX.s:3013   .debug_str:0000000000000538 .LASF16
     /tmp/ccsrMTgX.s:2867   .debug_str:000000000000015f .LASF17
     /tmp/ccsrMTgX.s:2817   .debug_str:0000000000000000 .LASF18
     /tmp/ccsrMTgX.s:2831   .debug_str:000000000000004b .LASF105
     /tmp/ccsrMTgX.s:2877   .debug_str:00000000000001ac .LASF19
     /tmp/ccsrMTgX.s:3007   .debug_str:000000000000051e .LASF21
     /tmp/ccsrMTgX.s:2821   .debug_str:0000000000000011 .LASF40
     /tmp/ccsrMTgX.s:2987   .debug_str:000000000000047f .LASF106
     /tmp/ccsrMTgX.s:2989   .debug_str:000000000000049c .LASF23
     /tmp/ccsrMTgX.s:2905   .debug_str:000000000000024c .LASF25
     /tmp/ccsrMTgX.s:2955   .debug_str:00000000000003a2 .LASF20
     /tmp/ccsrMTgX.s:2919   .debug_str:00000000000002a6 .LASF22
     /tmp/ccsrMTgX.s:2965   .debug_str:00000000000003d5 .LASF24
     /tmp/ccsrMTgX.s:2873   .debug_str:0000000000000187 .LASF26
     /tmp/ccsrMTgX.s:2881   .debug_str:00000000000001bd .LASF27
     /tmp/ccsrMTgX.s:2891   .debug_str:00000000000001ec .LASF28
     /tmp/ccsrMTgX.s:2829   .debug_str:0000000000000041 .LASF29
     /tmp/ccsrMTgX.s:2937   .debug_str:0000000000000328 .LASF30
     /tmp/ccsrMTgX.s:2927   .debug_str:00000000000002f1 .LASF31
     /tmp/ccsrMTgX.s:3041   .debug_str:00000000000006a3 .LASF32
     /tmp/ccsrMTgX.s:2945   .debug_str:0000000000000366 .LASF33
     /tmp/ccsrMTgX.s:2843   .debug_str:00000000000000a7 .LASF34
     /tmp/ccsrMTgX.s:2935   .debug_str:000000000000031b .LASF35
     /tmp/ccsrMTgX.s:2833   .debug_str:0000000000000053 .LASF36
     /tmp/ccsrMTgX.s:3009   .debug_str:000000000000052a .LASF107
     /tmp/ccsrMTgX.s:3015   .debug_str:000000000000054e .LASF108
     /tmp/ccsrMTgX.s:2961   .debug_str:00000000000003c0 .LASF109
     /tmp/ccsrMTgX.s:3035   .debug_str:00000000000005ca .LASF37
     /tmp/ccsrMTgX.s:2991   .debug_str:00000000000004a7 .LASF38
     /tmp/ccsrMTgX.s:2885   .debug_str:00000000000001cf .LASF39
     /tmp/ccsrMTgX.s:2979   .debug_str:0000000000000431 .LASF110
     /tmp/ccsrMTgX.s:2931   .debug_str:000000000000030e .LASF41
     /tmp/ccsrMTgX.s:2857   .debug_str:000000000000010b .LASF42
     /tmp/ccsrMTgX.s:2933   .debug_str:0000000000000313 .LASF43
     /tmp/ccsrMTgX.s:2977   .debug_str:0000000000000427 .LASF44
     /tmp/ccsrMTgX.s:2949   .debug_str:0000000000000386 .LASF45
     /tmp/ccsrMTgX.s:2999   .debug_str:00000000000004de .LASF46
     /tmp/ccsrMTgX.s:2819   .debug_str:0000000000000009 .LASF47
     /tmp/ccsrMTgX.s:2941   .debug_str:0000000000000348 .LASF48
     /tmp/ccsrMTgX.s:2911   .debug_str:0000000000000277 .LASF50
     /tmp/ccsrMTgX.s:3047   .debug_str:00000000000006d2 .LASF111
     /tmp/ccsrMTgX.s:2921   .debug_str:00000000000002bd .LASF112
     /tmp/ccsrMTgX.s:2971   .debug_str:0000000000000400 .LASF49
     /tmp/ccsrMTgX.s:2947   .debug_str:0000000000000373 .LASF51
     /tmp/ccsrMTgX.s:3021   .debug_str:0000000000000587 .LASF113
     /tmp/ccsrMTgX.s:2939   .debug_str:000000000000033d .LASF52
     /tmp/ccsrMTgX.s:2915   .debug_str:0000000000000295 .LASF53
     /tmp/ccsrMTgX.s:2883   .debug_str:00000000000001c9 .LASF54
     /tmp/ccsrMTgX.s:2923   .debug_str:00000000000002e5 .LASF114
     /tmp/ccsrMTgX.s:2893   .debug_str:0000000000000203 .LASF55
     /tmp/ccsrMTgX.s:2827   .debug_str:0000000000000038 .LASF115
     /tmp/ccsrMTgX.s:2913   .debug_str:0000000000000290 .LASF56
GAS LISTING /tmp/ccsrMTgX.s 			page 22


     /tmp/ccsrMTgX.s:3027   .debug_str:00000000000005ab .LASF57
     /tmp/ccsrMTgX.s:3011   .debug_str:000000000000052f .LASF58
     /tmp/ccsrMTgX.s:2973   .debug_str:0000000000000409 .LASF59
     /tmp/ccsrMTgX.s:2879   .debug_str:00000000000001b1 .LASF60
     /tmp/ccsrMTgX.s:2903   .debug_str:000000000000023c .LASF61
     /tmp/ccsrMTgX.s:3043   .debug_str:00000000000006b9 .LASF62
     /tmp/ccsrMTgX.s:2895   .debug_str:0000000000000208 .LASF63
     /tmp/ccsrMTgX.s:3025   .debug_str:00000000000005a2 .LASF64
     /tmp/ccsrMTgX.s:2849   .debug_str:00000000000000d7 .LASF65
     /tmp/ccsrMTgX.s:2957   .debug_str:00000000000003ae .LASF66
     /tmp/ccsrMTgX.s:2917   .debug_str:00000000000002a0 .LASF67
     /tmp/ccsrMTgX.s:2825   .debug_str:0000000000000032 .LASF68
     /tmp/ccsrMTgX.s:2963   .debug_str:00000000000003d0 .LASF69
     /tmp/ccsrMTgX.s:2897   .debug_str:0000000000000212 .LASF70
     /tmp/ccsrMTgX.s:624    .text:00000000000002d0 .LFB33
     /tmp/ccsrMTgX.s:662    .text:00000000000002f8 .LFE33
     /tmp/ccsrMTgX.s:2951   .debug_str:000000000000038f .LASF71
     /tmp/ccsrMTgX.s:2839   .debug_str:0000000000000090 .LASF73
     /tmp/ccsrMTgX.s:570    .text:0000000000000298 .LFB32
     /tmp/ccsrMTgX.s:618    .text:00000000000002d0 .LFE32
     /tmp/ccsrMTgX.s:2626   .debug_loc:0000000000000000 .LLST11
     /tmp/ccsrMTgX.s:2837   .debug_str:0000000000000085 .LASF72
     /tmp/ccsrMTgX.s:3005   .debug_str:000000000000050e .LASF74
     /tmp/ccsrMTgX.s:480    .text:0000000000000200 .LFB31
     /tmp/ccsrMTgX.s:564    .text:0000000000000298 .LFE31
     /tmp/ccsrMTgX.s:2909   .debug_str:0000000000000271 .LASF75
     /tmp/ccsrMTgX.s:2639   .debug_loc:0000000000000038 .LLST10
     /tmp/ccsrMTgX.s:506    .text:0000000000000234 .LBB8
     /tmp/ccsrMTgX.s:510    .text:0000000000000234 .LBE8
     /tmp/ccsrMTgX.s:500    .text:0000000000000228 .LVL25
     /tmp/ccsrMTgX.s:514    .text:0000000000000240 .LVL27
     /tmp/ccsrMTgX.s:519    .text:0000000000000250 .LVL28
     /tmp/ccsrMTgX.s:525    .text:0000000000000260 .LVL29
     /tmp/ccsrMTgX.s:530    .text:0000000000000270 .LVL30
     /tmp/ccsrMTgX.s:2869   .debug_str:0000000000000175 .LASF76
     /tmp/ccsrMTgX.s:2899   .debug_str:000000000000021b .LASF77
     /tmp/ccsrMTgX.s:422    .text:00000000000001d4 .LFB30
     /tmp/ccsrMTgX.s:463    .text:0000000000000200 .LFE30
     /tmp/ccsrMTgX.s:2657   .debug_loc:0000000000000084 .LLST9
     /tmp/ccsrMTgX.s:2859   .debug_str:0000000000000111 .LASF78
     /tmp/ccsrMTgX.s:2851   .debug_str:00000000000000e2 .LASF79
     /tmp/ccsrMTgX.s:375    .text:00000000000001a8 .LFB29
     /tmp/ccsrMTgX.s:416    .text:00000000000001d4 .LFE29
     /tmp/ccsrMTgX.s:2671   .debug_loc:00000000000000bd .LLST8
     /tmp/ccsrMTgX.s:3031   .debug_str:00000000000005bb .LASF80
     /tmp/ccsrMTgX.s:2995   .debug_str:00000000000004bc .LASF81
     /tmp/ccsrMTgX.s:328    .text:000000000000017c .LFB28
     /tmp/ccsrMTgX.s:369    .text:00000000000001a8 .LFE28
     /tmp/ccsrMTgX.s:2959   .debug_str:00000000000003b9 .LASF82
     /tmp/ccsrMTgX.s:2685   .debug_loc:00000000000000f6 .LLST7
     /tmp/ccsrMTgX.s:2889   .debug_str:00000000000001e3 .LASF83
     /tmp/ccsrMTgX.s:2863   .debug_str:0000000000000128 .LASF84
     /tmp/ccsrMTgX.s:276    .text:000000000000014c .LFB27
     /tmp/ccsrMTgX.s:322    .text:000000000000017c .LFE27
     /tmp/ccsrMTgX.s:2699   .debug_loc:000000000000012f .LLST6
     /tmp/ccsrMTgX.s:2993   .debug_str:00000000000004b7 .LASF85
     /tmp/ccsrMTgX.s:2943   .debug_str:0000000000000356 .LASF116
GAS LISTING /tmp/ccsrMTgX.s 			page 23


     /tmp/ccsrMTgX.s:3001   .debug_str:00000000000004e7 .LASF117
     /tmp/ccsrMTgX.s:240    .text:0000000000000128 .LFB26
     /tmp/ccsrMTgX.s:270    .text:000000000000014c .LFE26
     /tmp/ccsrMTgX.s:2835   .debug_str:0000000000000079 .LASF86
     /tmp/ccsrMTgX.s:2983   .debug_str:000000000000045b .LASF87
     /tmp/ccsrMTgX.s:173    .text:00000000000000c0 .LFB25
     /tmp/ccsrMTgX.s:234    .text:0000000000000128 .LFE25
     /tmp/ccsrMTgX.s:194    .text:00000000000000ec .LBB6
     /tmp/ccsrMTgX.s:199    .text:00000000000000ec .LBE6
     /tmp/ccsrMTgX.s:188    .text:00000000000000e0 .LVL11
     /tmp/ccsrMTgX.s:203    .text:00000000000000f8 .LVL13
     /tmp/ccsrMTgX.s:208    .text:0000000000000108 .LVL14
     /tmp/ccsrMTgX.s:2875   .debug_str:000000000000019e .LASF88
     /tmp/ccsrMTgX.s:3017   .debug_str:0000000000000554 .LASF89
     /tmp/ccsrMTgX.s:75     .text:0000000000000050 .LFB24
     /tmp/ccsrMTgX.s:159    .text:00000000000000c0 .LFE24
     /tmp/ccsrMTgX.s:2713   .debug_loc:0000000000000168 .LLST2
     /tmp/ccsrMTgX.s:2841   .debug_str:0000000000000099 .LASF90
     /tmp/ccsrMTgX.s:2731   .debug_loc:00000000000001b4 .LLST3
     /tmp/ccsrMTgX.s:2749   .debug_loc:0000000000000200 .LLST4
     /tmp/ccsrMTgX.s:2767   .debug_loc:000000000000024c .LLST5
     /tmp/ccsrMTgX.s:101    .text:0000000000000084 .LVL6
     /tmp/ccsrMTgX.s:3057   .debug_str:0000000000000713 .LASF91
     /tmp/ccsrMTgX.s:3053   .debug_str:00000000000006f2 .LASF92
     /tmp/ccsrMTgX.s:43     .text:0000000000000028 .LFB23
     /tmp/ccsrMTgX.s:69     .text:0000000000000050 .LFE23
     /tmp/ccsrMTgX.s:2774   .debug_loc:000000000000026f .LLST1
     /tmp/ccsrMTgX.s:58     .text:0000000000000040 .LVL3
     /tmp/ccsrMTgX.s:3023   .debug_str:0000000000000598 .LASF93
     /tmp/ccsrMTgX.s:2861   .debug_str:000000000000011a .LASF94
     /tmp/ccsrMTgX.s:10     .text:0000000000000000 .LFB22
     /tmp/ccsrMTgX.s:37     .text:0000000000000028 .LFE22
     /tmp/ccsrMTgX.s:3033   .debug_str:00000000000005c5 .LASF95
     /tmp/ccsrMTgX.s:2788   .debug_loc:00000000000002a8 .LLST0
     /tmp/ccsrMTgX.s:26     .text:0000000000000018 .LVL1
     /tmp/ccsrMTgX.s:3051   .debug_str:00000000000006ed .LASF118
     /tmp/ccsrMTgX.s:3055   .debug_str:0000000000000700 .LASF96
     /tmp/ccsrMTgX.s:2901   .debug_str:0000000000000230 .LASF98
     /tmp/ccsrMTgX.s:3003   .debug_str:00000000000004fc .LASF97
     /tmp/ccsrMTgX.s:3049   .debug_str:00000000000006e0 .LASF99
     /tmp/ccsrMTgX.s:3029   .debug_str:00000000000005b5 .LASF119
     /tmp/ccsrMTgX.s:2975   .debug_str:0000000000000417 .LASF120
     /tmp/ccsrMTgX.s:2853   .debug_str:00000000000000f4 .LASF100
     /tmp/ccsrMTgX.s:2887   .debug_str:00000000000001d7 .LASF101
     /tmp/ccsrMTgX.s:592    .text:00000000000002b4 .LVL32
     /tmp/ccsrMTgX.s:596    .text:00000000000002b8 .LVL33
     /tmp/ccsrMTgX.s:483    .text:0000000000000200 .LVL23
     /tmp/ccsrMTgX.s:498    .text:0000000000000220 .LVL24
     /tmp/ccsrMTgX.s:559    .text:0000000000000290 .LVL31
     /tmp/ccsrMTgX.s:425    .text:00000000000001d4 .LVL21
     /tmp/ccsrMTgX.s:455    .text:00000000000001f4 .LVL22
     /tmp/ccsrMTgX.s:378    .text:00000000000001a8 .LVL19
     /tmp/ccsrMTgX.s:408    .text:00000000000001c8 .LVL20
     /tmp/ccsrMTgX.s:331    .text:000000000000017c .LVL17
     /tmp/ccsrMTgX.s:361    .text:000000000000019c .LVL18
     /tmp/ccsrMTgX.s:279    .text:000000000000014c .LVL15
     /tmp/ccsrMTgX.s:314    .text:0000000000000170 .LVL16
GAS LISTING /tmp/ccsrMTgX.s 			page 24


     /tmp/ccsrMTgX.s:78     .text:0000000000000050 .LVL4
     /tmp/ccsrMTgX.s:99     .text:000000000000007c .LVL5
     /tmp/ccsrMTgX.s:148    .text:00000000000000b0 .LVL8
     /tmp/ccsrMTgX.s:151    .text:00000000000000b4 .LVL9
     /tmp/ccsrMTgX.s:154    .text:00000000000000b8 .LVL10
     /tmp/ccsrMTgX.s:140    .text:00000000000000a4 .LVL7
     /tmp/ccsrMTgX.s:46     .text:0000000000000028 .LVL2
     /tmp/ccsrMTgX.s:14     .text:0000000000000000 .LVL0
     /tmp/ccsrMTgX.s:671    .debug_info:0000000000000000 .Ldebug_info0

UNDEFINED SYMBOLS
__mem_alloc
__mem_free
_Znam
_Z11printStringPKc
_ZN3TCB7runningE
_Z12printIntegerm
