GAS LISTING /tmp/ccmucj5D.s 			page 1


   1              		.file	"tcb.cpp"
   2              		.option pic
   3              		.option norelax
   4              		.text
   5              	.Ltext0:
   6              		.section	.rodata.str1.8,"aMS",@progbits,1
   7              		.align	3
   8              	.LC0:
   9 0000 68616E64 		.string	"handle iz createThread "
   9      6C652069 
   9      7A206372 
   9      65617465 
   9      54687265 
  10              		.align	3
  11              	.LC1:
  12 0018 3A202020 		.string	":                "
  12      20202020 
  12      20202020 
  12      20202020 
  12      2000
  13 002a 00000000 		.align	3
  13      0000
  14              	.LC2:
  15 0030 0A00     		.string	"\n"
  16              		.text
  17              		.align	2
  18              		.globl	_ZN3TCB12createThreadEPPS_PFvvEPvPm
  20              	_ZN3TCB12createThreadEPPS_PFvvEPvPm:
  21              	.LFB46:
  22              		.file 1 "src/tcb.cpp"
   1:src/tcb.cpp   **** //
   2:src/tcb.cpp   **** // Created by marko on 20.4.22..
   3:src/tcb.cpp   **** //
   4:src/tcb.cpp   **** 
   5:src/tcb.cpp   **** #include "../h/tcb.hpp"
   6:src/tcb.cpp   **** #include "../h/riscv.hpp"
   7:src/tcb.cpp   **** 
   8:src/tcb.cpp   **** 
   9:src/tcb.cpp   **** TCB *TCB::running = nullptr;
  10:src/tcb.cpp   **** int TCB::x = 0;
  11:src/tcb.cpp   **** uint64 TCB::timeSliceCounter = 0;
  12:src/tcb.cpp   **** 
  13:src/tcb.cpp   **** TCB *TCB::createThread(TCB** handle, Body body, void* arg, uint64* stack_space)
  14:src/tcb.cpp   **** {
  23              		.loc 1 14 1
  24              		.cfi_startproc
  25              		.cfi_personality 0x9b,DW.ref.__gxx_personality_v0
  26              		.cfi_lsda 0x1b,.LLSDA46
  27              	.LVL0:
  28 0000 130101FC 		addi	sp,sp,-64
  29              		.cfi_def_cfa_offset 64
  30 0004 233C1102 		sd	ra,56(sp)
  31 0008 23388102 		sd	s0,48(sp)
  32 000c 23349102 		sd	s1,40(sp)
  33 0010 23302103 		sd	s2,32(sp)
  34 0014 233C3101 		sd	s3,24(sp)
  35 0018 23384101 		sd	s4,16(sp)
GAS LISTING /tmp/ccmucj5D.s 			page 2


  36 001c 23345101 		sd	s5,8(sp)
  37              		.cfi_offset 1, -8
  38              		.cfi_offset 8, -16
  39              		.cfi_offset 9, -24
  40              		.cfi_offset 18, -32
  41              		.cfi_offset 19, -40
  42              		.cfi_offset 20, -48
  43              		.cfi_offset 21, -56
  44 0020 13040104 		addi	s0,sp,64
  45              		.cfi_def_cfa 8, 0
  46 0024 93090500 		mv	s3,a0
  47 0028 138A0500 		mv	s4,a1
  48 002c 930A0600 		mv	s5,a2
  49 0030 13890600 		mv	s2,a3
  15:src/tcb.cpp   ****     *handle = new TCB(body, TIME_SLICE, arg, stack_space);
  50              		.loc 1 15 5
  51              		.loc 1 15 57 is_stmt 0
  52 0034 13058003 		li	a0,56
  53              	.LVL1:
  54              	.LEHB0:
  55 0038 97000000 		call	_Znwm@plt
  55      E7800000 
  56              	.LVL2:
  57              	.LEHE0:
  58 0040 93040500 		mv	s1,a0
  59              	.LVL3:
  60              	.LBB11:
  61              	.LBB12:
  62              		.file 2 "src/../h/tcb.hpp"
   1:src/../h/tcb.hpp **** //
   2:src/../h/tcb.hpp **** // Created by marko on 20.4.22..
   3:src/../h/tcb.hpp **** //
   4:src/../h/tcb.hpp **** 
   5:src/../h/tcb.hpp **** #ifndef OS1_VEZBE07_RISCV_CONTEXT_SWITCH_2_INTERRUPT_TCB_HPP
   6:src/../h/tcb.hpp **** #define OS1_VEZBE07_RISCV_CONTEXT_SWITCH_2_INTERRUPT_TCB_HPP
   7:src/../h/tcb.hpp **** 
   8:src/../h/tcb.hpp **** #include "../lib/hw.h"
   9:src/../h/tcb.hpp **** #include "scheduler.hpp"
  10:src/../h/tcb.hpp **** #include "../h/print.hpp"
  11:src/../h/tcb.hpp **** 
  12:src/../h/tcb.hpp **** // Thread Control Block
  13:src/../h/tcb.hpp **** class TCB
  14:src/../h/tcb.hpp **** {
  15:src/../h/tcb.hpp **** public:
  16:src/../h/tcb.hpp ****     ~TCB() {
  17:src/../h/tcb.hpp ****         delete[] stack;
  18:src/../h/tcb.hpp ****     }
  19:src/../h/tcb.hpp **** 
  20:src/../h/tcb.hpp ****     bool isFinished() const { return finished; }
  21:src/../h/tcb.hpp ****     void setFinished(bool value) { finished = value; }
  22:src/../h/tcb.hpp ****     void setSleeping(bool value) { sleeping = value; }
  23:src/../h/tcb.hpp ****     bool isSleeping() const { return sleeping; }
  24:src/../h/tcb.hpp ****     uint64 getTimeSlice() const { return timeSlice; }
  25:src/../h/tcb.hpp **** 
  26:src/../h/tcb.hpp ****     using Body = void (*)();
  27:src/../h/tcb.hpp ****     static TCB *createThread(TCB** handle, Body body, void* arg, uint64* stack_space);
  28:src/../h/tcb.hpp ****     static void yield();
GAS LISTING /tmp/ccmucj5D.s 			page 3


  29:src/../h/tcb.hpp ****     int getId() { return id; }
  30:src/../h/tcb.hpp **** 
  31:src/../h/tcb.hpp ****     static TCB *running;
  32:src/../h/tcb.hpp ****     static int x;
  33:src/../h/tcb.hpp **** 
  34:src/../h/tcb.hpp **** private:
  35:src/../h/tcb.hpp **** //    TCB(Body body, uint64 timeSlice) :
  36:src/../h/tcb.hpp **** //            body(body),
  37:src/../h/tcb.hpp **** //
  38:src/../h/tcb.hpp **** //            stack(body != nullptr ? new uint64[STACK_SIZE] : nullptr),
  39:src/../h/tcb.hpp **** //            context({(uint64) &threadWrapper,
  40:src/../h/tcb.hpp **** //                     stack != nullptr ? (uint64) &stack[STACK_SIZE] : 0
  41:src/../h/tcb.hpp **** //                    }),
  42:src/../h/tcb.hpp **** //            timeSlice(timeSlice),
  43:src/../h/tcb.hpp **** //
  44:src/../h/tcb.hpp **** //            finished(false)
  45:src/../h/tcb.hpp **** //    {
  46:src/../h/tcb.hpp **** //        if (body != nullptr) { Scheduler::put(this); }
  47:src/../h/tcb.hpp **** //    }
  48:src/../h/tcb.hpp **** 
  49:src/../h/tcb.hpp ****     TCB(Body body, uint64 timeSlice, void* arg, uint64* stack_space) :
  50:src/../h/tcb.hpp ****             arg(arg),
  51:src/../h/tcb.hpp ****             body(body),
  52:src/../h/tcb.hpp ****             stack(body != nullptr ? stack_space : nullptr),
  53:src/../h/tcb.hpp ****             context({(uint64) &threadWrapper,
  54:src/../h/tcb.hpp ****                      stack != nullptr ? (uint64) &stack[DEFAULT_STACK_SIZE] : 0
  55:src/../h/tcb.hpp ****                     }),
  56:src/../h/tcb.hpp ****             timeSlice(timeSlice),
  57:src/../h/tcb.hpp ****             id(x),
  58:src/../h/tcb.hpp ****             finished(false),
  59:src/../h/tcb.hpp ****             sleeping(false)
  63              		.loc 2 59 27
  64 0044 23305501 		sd	s5,0(a0)
  65 0048 23344501 		sd	s4,8(a0)
  52:src/../h/tcb.hpp ****             context({(uint64) &threadWrapper,
  66              		.loc 2 52 35
  67 004c 630A0A04 		beqz	s4,.L11
  68              	.LVL4:
  69              	.L2:
  70              		.loc 2 59 27
  71 0050 23B82401 		sd	s2,16(s1)
  72 0054 97070000 		lla	a5,_ZN3TCB13threadWrapperEv
  72      93870700 
  73 005c 23BCF400 		sd	a5,24(s1)
  54:src/../h/tcb.hpp ****                     }),
  74              		.loc 2 54 39
  75 0060 63040904 		beqz	s2,.L7
  54:src/../h/tcb.hpp ****                     }),
  76              		.loc 2 54 50
  77 0064 B7860000 		li	a3,32768
  78 0068 3309D900 		add	s2,s2,a3
  79              	.L3:
  80              		.loc 2 59 27
  81 006c 23B02403 		sd	s2,32(s1)
  82 0070 93072000 		li	a5,2
  83 0074 23B4F402 		sd	a5,40(s1)
  84 0078 97070000 		lw	a5,.LANCHOR0
GAS LISTING /tmp/ccmucj5D.s 			page 4


  84      83A70700 
  85 0080 23A8F402 		sw	a5,48(s1)
  86 0084 238A0402 		sb	zero,52(s1)
  87 0088 A38A0402 		sb	zero,53(s1)
  60:src/../h/tcb.hpp ****     {
  61:src/../h/tcb.hpp ****         if (body != nullptr) {
  88              		.loc 2 61 9 is_stmt 1
  89 008c 63020A02 		beqz	s4,.L4
  62:src/../h/tcb.hpp ****             Scheduler::put(this);
  90              		.loc 2 62 13
  91              		.loc 2 62 27 is_stmt 0
  92 0090 13850400 		mv	a0,s1
  93              	.LEHB1:
  94 0094 97000000 		call	_ZN9Scheduler3putEP3TCB@plt
  94      E7800000 
  95              	.LVL5:
  96              	.LEHE1:
  97 009c 6F004001 		j	.L4
  98              	.LVL6:
  99              	.L11:
  52:src/../h/tcb.hpp ****             context({(uint64) &threadWrapper,
 100              		.loc 2 52 35
 101 00a0 13090000 		li	s2,0
 102              	.LVL7:
 103 00a4 6FF0DFFA 		j	.L2
 104              	.L7:
  54:src/../h/tcb.hpp ****                     }),
 105              		.loc 2 54 39
 106 00a8 13090000 		li	s2,0
 107 00ac 6FF01FFC 		j	.L3
 108              	.L4:
 109              	.LVL8:
 110              	.LBE12:
 111              	.LBE11:
 112              		.loc 1 15 13
 113 00b0 23B09900 		sd	s1,0(s3)
  16:src/tcb.cpp   ****     printString("handle iz createThread ");
 114              		.loc 1 16 5 is_stmt 1
 115              		.loc 1 16 16 is_stmt 0
 116 00b4 17050000 		lla	a0,.LC0
 116      13050500 
 117              	.LEHB2:
 118 00bc 97000000 		call	_Z11printStringPKc@plt
 118      E7800000 
 119              	.LVL9:
  17:src/tcb.cpp   ****     printInteger(x);
 120              		.loc 1 17 5 is_stmt 1
 121              		.loc 1 17 17 is_stmt 0
 122 00c4 97040000 		lla	s1,.LANCHOR0
 122      93840400 
 123 00cc 03A50400 		lw	a0,0(s1)
 124 00d0 97000000 		call	_Z12printIntegerm@plt
 124      E7800000 
 125              	.LVL10:
  18:src/tcb.cpp   ****     x++;
 126              		.loc 1 18 5 is_stmt 1
 127              		.loc 1 18 6 is_stmt 0
GAS LISTING /tmp/ccmucj5D.s 			page 5


 128 00d8 83A70400 		lw	a5,0(s1)
 129 00dc 9B871700 		addiw	a5,a5,1
 130 00e0 23A0F400 		sw	a5,0(s1)
  19:src/tcb.cpp   ****     printString(":                ");
 131              		.loc 1 19 5 is_stmt 1
 132              		.loc 1 19 16 is_stmt 0
 133 00e4 17050000 		lla	a0,.LC1
 133      13050500 
 134 00ec 97000000 		call	_Z11printStringPKc@plt
 134      E7800000 
 135              	.LVL11:
  20:src/tcb.cpp   ****     printInteger((uint64)&(**handle));
 136              		.loc 1 20 5 is_stmt 1
 137              		.loc 1 20 17 is_stmt 0
 138 00f4 03B50900 		ld	a0,0(s3)
 139 00f8 97000000 		call	_Z12printIntegerm@plt
 139      E7800000 
 140              	.LVL12:
  21:src/tcb.cpp   ****     printString("\n");
 141              		.loc 1 21 5 is_stmt 1
 142              		.loc 1 21 16 is_stmt 0
 143 0100 17050000 		lla	a0,.LC2
 143      13050500 
 144 0108 97000000 		call	_Z11printStringPKc@plt
 144      E7800000 
 145              	.LVL13:
  22:src/tcb.cpp   ****     return *handle;
 146              		.loc 1 22 5 is_stmt 1
 147              		.loc 1 22 13 is_stmt 0
 148 0110 03B50900 		ld	a0,0(s3)
  23:src/tcb.cpp   **** }
 149              		.loc 1 23 1
 150 0114 83308103 		ld	ra,56(sp)
 151              		.cfi_remember_state
 152              		.cfi_restore 1
 153 0118 03340103 		ld	s0,48(sp)
 154              		.cfi_restore 8
 155              		.cfi_def_cfa 2, 64
 156 011c 83348102 		ld	s1,40(sp)
 157              		.cfi_restore 9
 158 0120 03390102 		ld	s2,32(sp)
 159              		.cfi_restore 18
 160 0124 83398101 		ld	s3,24(sp)
 161              		.cfi_restore 19
 162              	.LVL14:
 163 0128 033A0101 		ld	s4,16(sp)
 164              		.cfi_restore 20
 165              	.LVL15:
 166 012c 833A8100 		ld	s5,8(sp)
 167              		.cfi_restore 21
 168              	.LVL16:
 169 0130 13010104 		addi	sp,sp,64
 170              		.cfi_def_cfa_offset 0
 171 0134 67800000 		jr	ra
 172              	.LVL17:
 173              	.L8:
 174              		.cfi_restore_state
GAS LISTING /tmp/ccmucj5D.s 			page 6


 175 0138 13090500 		mv	s2,a0
  15:src/tcb.cpp   ****     printString("handle iz createThread ");
 176              		.loc 1 15 57
 177 013c 13850400 		mv	a0,s1
 178 0140 97000000 		call	_ZdlPv@plt
 178      E7800000 
 179              	.LVL18:
 180 0148 13050900 		mv	a0,s2
 181 014c 97000000 		call	_Unwind_Resume@plt
 181      E7800000 
 182              	.LVL19:
 183              	.LEHE2:
 184              		.cfi_endproc
 185              	.LFE46:
 186              		.globl	__gxx_personality_v0
 187              		.section	.gcc_except_table,"a",@progbits
 188              	.LLSDA46:
 189 0000 FF       		.byte	0xff
 190 0001 FF       		.byte	0xff
 191 0002 03       		.byte	0x3
 192 0003 27       		.byte	0x27
 193 0004 00000000 		.4byte	.LEHB0-.LFB46
 194 0008 00000000 		.4byte	.LEHE0-.LEHB0
 195 000c 00000000 		.4byte	0
 196 0010 00       		.byte	0
 197 0011 00000000 		.4byte	.LEHB1-.LFB46
 198 0015 00000000 		.4byte	.LEHE1-.LEHB1
 199 0019 00000000 		.4byte	.L8-.LFB46
 200 001d 00       		.byte	0
 201 001e 00000000 		.4byte	.LEHB2-.LFB46
 202 0022 00000000 		.4byte	.LEHE2-.LEHB2
 203 0026 00000000 		.4byte	0
 204 002a 00       		.byte	0
 205              		.text
 207              		.align	2
 208              		.globl	_ZN3TCB5yieldEv
 210              	_ZN3TCB5yieldEv:
 211              	.LFB47:
  24:src/tcb.cpp   **** 
  25:src/tcb.cpp   **** void TCB::yield()
  26:src/tcb.cpp   **** {
 212              		.loc 1 26 1 is_stmt 1
 213              		.cfi_startproc
 214 0154 130101FF 		addi	sp,sp,-16
 215              		.cfi_def_cfa_offset 16
 216 0158 23348100 		sd	s0,8(sp)
 217              		.cfi_offset 8, -8
 218 015c 13040101 		addi	s0,sp,16
 219              		.cfi_def_cfa 8, 0
  27:src/tcb.cpp   ****     __asm__ volatile ("ecall");
 220              		.loc 1 27 5
 221              		.loc 1 27 31 is_stmt 0
 222              	#APP
 223              	# 27 "src/tcb.cpp" 1
  28              	}
 224              		ecall
 225              	# 0 "" 2
GAS LISTING /tmp/ccmucj5D.s 			page 7


 226              		.loc 1 28 1
 227              	#NO_APP
 228 0164 03348100 		ld	s0,8(sp)
 229              		.cfi_restore 8
 230              		.cfi_def_cfa 2, 16
 231 0168 13010101 		addi	sp,sp,16
 232              		.cfi_def_cfa_offset 0
 233 016c 67800000 		jr	ra
 234              		.cfi_endproc
 235              	.LFE47:
 237              		.align	2
 238              		.globl	_ZN3TCB13threadWrapperEv
 240              	_ZN3TCB13threadWrapperEv:
 241              	.LFB49:
  29:src/tcb.cpp   **** 
  30:src/tcb.cpp   **** void TCB::dispatch()
  31:src/tcb.cpp   **** {
  32:src/tcb.cpp   ****     TCB *old = running;
  33:src/tcb.cpp   ****     if (!old->isFinished() && !old->isSleeping()) { Scheduler::put(old); }
  34:src/tcb.cpp   ****     running = Scheduler::get();
  35:src/tcb.cpp   **** 
  36:src/tcb.cpp   ****     TCB::contextSwitch(&old->context, &running->context);
  37:src/tcb.cpp   **** }
  38:src/tcb.cpp   **** 
  39:src/tcb.cpp   **** void TCB::threadWrapper()
  40:src/tcb.cpp   **** {
 242              		.loc 1 40 1 is_stmt 1
 243              		.cfi_startproc
 244 0170 130101FE 		addi	sp,sp,-32
 245              		.cfi_def_cfa_offset 32
 246 0174 233C1100 		sd	ra,24(sp)
 247 0178 23388100 		sd	s0,16(sp)
 248 017c 23349100 		sd	s1,8(sp)
 249              		.cfi_offset 1, -8
 250              		.cfi_offset 8, -16
 251              		.cfi_offset 9, -24
 252 0180 13040102 		addi	s0,sp,32
 253              		.cfi_def_cfa 8, 0
  41:src/tcb.cpp   ****     Riscv::popSppSpie();
 254              		.loc 1 41 5
 255              		.loc 1 41 22 is_stmt 0
 256 0184 97000000 		call	_ZN5Riscv10popSppSpieEv@plt
 256      E7800000 
 257              	.LVL20:
  42:src/tcb.cpp   ****     running->body();
 258              		.loc 1 42 5 is_stmt 1
 259              		.loc 1 42 14 is_stmt 0
 260 018c 97040000 		lla	s1,.LANCHOR0
 260      93840400 
 261 0194 83B78400 		ld	a5,8(s1)
 262 0198 83B78700 		ld	a5,8(a5)
 263              		.loc 1 42 18
 264 019c E7800700 		jalr	a5
 265              	.LVL21:
  43:src/tcb.cpp   ****     running->setFinished(true);
 266              		.loc 1 43 5 is_stmt 1
 267              		.loc 1 43 25 is_stmt 0
GAS LISTING /tmp/ccmucj5D.s 			page 8


 268 01a0 83B78400 		ld	a5,8(s1)
 269              	.LVL22:
 270              	.LBB13:
 271              	.LBB14:
  21:src/../h/tcb.hpp ****     void setSleeping(bool value) { sleeping = value; }
 272              		.loc 2 21 36 is_stmt 1
  21:src/../h/tcb.hpp ****     void setSleeping(bool value) { sleeping = value; }
 273              		.loc 2 21 45 is_stmt 0
 274 01a4 13071000 		li	a4,1
 275 01a8 238AE702 		sb	a4,52(a5)
 276              	.LVL23:
 277              	.LBE14:
 278              	.LBE13:
  44:src/tcb.cpp   ****     TCB::yield();
 279              		.loc 1 44 5 is_stmt 1
 280              		.loc 1 44 15 is_stmt 0
 281 01ac 97000000 		call	_ZN3TCB5yieldEv
 281      E7800000 
 282              	.LVL24:
  45:src/tcb.cpp   **** }
 283              		.loc 1 45 1
 284 01b4 83308101 		ld	ra,24(sp)
 285              		.cfi_restore 1
 286 01b8 03340101 		ld	s0,16(sp)
 287              		.cfi_restore 8
 288              		.cfi_def_cfa 2, 32
 289 01bc 83348100 		ld	s1,8(sp)
 290              		.cfi_restore 9
 291 01c0 13010102 		addi	sp,sp,32
 292              		.cfi_def_cfa_offset 0
 293 01c4 67800000 		jr	ra
 294              		.cfi_endproc
 295              	.LFE49:
 297              		.align	2
 298              		.globl	_ZN3TCB8dispatchEv
 300              	_ZN3TCB8dispatchEv:
 301              	.LFB48:
  31:src/tcb.cpp   ****     TCB *old = running;
 302              		.loc 1 31 1 is_stmt 1
 303              		.cfi_startproc
 304 01c8 130101FE 		addi	sp,sp,-32
 305              		.cfi_def_cfa_offset 32
 306 01cc 233C1100 		sd	ra,24(sp)
 307 01d0 23388100 		sd	s0,16(sp)
 308 01d4 23349100 		sd	s1,8(sp)
 309              		.cfi_offset 1, -8
 310              		.cfi_offset 8, -16
 311              		.cfi_offset 9, -24
 312 01d8 13040102 		addi	s0,sp,32
 313              		.cfi_def_cfa 8, 0
  32:src/tcb.cpp   ****     if (!old->isFinished() && !old->isSleeping()) { Scheduler::put(old); }
 314              		.loc 1 32 5
  32:src/tcb.cpp   ****     if (!old->isFinished() && !old->isSleeping()) { Scheduler::put(old); }
 315              		.loc 1 32 10 is_stmt 0
 316 01dc 97040000 		ld	s1,.LANCHOR0+8
 316      83B40400 
 317              	.LVL25:
GAS LISTING /tmp/ccmucj5D.s 			page 9


  33:src/tcb.cpp   ****     running = Scheduler::get();
 318              		.loc 1 33 5 is_stmt 1
 319              	.LBB15:
 320              	.LBB16:
  20:src/../h/tcb.hpp ****     void setFinished(bool value) { finished = value; }
 321              		.loc 2 20 31
  20:src/../h/tcb.hpp ****     void setFinished(bool value) { finished = value; }
 322              		.loc 2 20 38 is_stmt 0
 323 01e4 83C74403 		lbu	a5,52(s1)
 324              	.LVL26:
 325              	.LBE16:
 326              	.LBE15:
  33:src/tcb.cpp   ****     running = Scheduler::get();
 327              		.loc 1 33 28
 328 01e8 63960700 		bnez	a5,.L17
 329              	.LVL27:
 330              	.LBB17:
 331              	.LBB18:
  23:src/../h/tcb.hpp ****     uint64 getTimeSlice() const { return timeSlice; }
 332              		.loc 2 23 31 is_stmt 1
  23:src/../h/tcb.hpp ****     uint64 getTimeSlice() const { return timeSlice; }
 333              		.loc 2 23 38 is_stmt 0
 334 01ec 83C75403 		lbu	a5,53(s1)
 335              	.LVL28:
 336              	.LBE18:
 337              	.LBE17:
  33:src/tcb.cpp   ****     running = Scheduler::get();
 338              		.loc 1 33 28
 339 01f0 638C0702 		beqz	a5,.L19
 340              	.L17:
  34:src/tcb.cpp   **** 
 341              		.loc 1 34 5 is_stmt 1
  34:src/tcb.cpp   **** 
 342              		.loc 1 34 29 is_stmt 0
 343 01f4 97000000 		call	_ZN9Scheduler3getEv@plt
 343      E7800000 
 344              	.LVL29:
  34:src/tcb.cpp   **** 
 345              		.loc 1 34 13
 346 01fc 97070000 		sd	a0,.LANCHOR0+8,a5
 346      23B0A700 
  36:src/tcb.cpp   **** }
 347              		.loc 1 36 5 is_stmt 1
  36:src/tcb.cpp   **** }
 348              		.loc 1 36 23 is_stmt 0
 349 0204 93058501 		addi	a1,a0,24
 350 0208 13858401 		addi	a0,s1,24
 351 020c 97000000 		call	_ZN3TCB13contextSwitchEPNS_7ContextES1_@plt
 351      E7800000 
 352              	.LVL30:
  37:src/tcb.cpp   **** 
 353              		.loc 1 37 1
 354 0214 83308101 		ld	ra,24(sp)
 355              		.cfi_remember_state
 356              		.cfi_restore 1
 357 0218 03340101 		ld	s0,16(sp)
 358              		.cfi_restore 8
GAS LISTING /tmp/ccmucj5D.s 			page 10


 359              		.cfi_def_cfa 2, 32
 360 021c 83348100 		ld	s1,8(sp)
 361              		.cfi_restore 9
 362              	.LVL31:
 363 0220 13010102 		addi	sp,sp,32
 364              		.cfi_def_cfa_offset 0
 365 0224 67800000 		jr	ra
 366              	.LVL32:
 367              	.L19:
 368              		.cfi_restore_state
  33:src/tcb.cpp   ****     running = Scheduler::get();
 369              		.loc 1 33 53 is_stmt 1
  33:src/tcb.cpp   ****     running = Scheduler::get();
 370              		.loc 1 33 67 is_stmt 0
 371 0228 13850400 		mv	a0,s1
 372 022c 97000000 		call	_ZN9Scheduler3putEP3TCB@plt
 372      E7800000 
 373              	.LVL33:
 374 0234 6FF01FFC 		j	.L17
 375              		.cfi_endproc
 376              	.LFE48:
 378              		.globl	_ZN3TCB16timeSliceCounterE
 379              		.globl	_ZN3TCB1xE
 380              		.globl	_ZN3TCB7runningE
 381              		.bss
 382              		.align	3
 383              		.set	.LANCHOR0,. + 0
 386              	_ZN3TCB1xE:
 387 0000 00000000 		.zero	4
 388 0004 00000000 		.zero	4
 391              	_ZN3TCB7runningE:
 392 0008 00000000 		.zero	8
 392      00000000 
 395              	_ZN3TCB16timeSliceCounterE:
 396 0010 00000000 		.zero	8
 396      00000000 
 397              		.text
 398              	.Letext0:
 399              		.file 3 "src/../h/../lib/hw.h"
 400              		.file 4 "src/../h/scheduler.hpp"
 401              		.file 5 "src/../h/../h/sleepingThreadsList.h"
 402              		.file 6 "src/../h/riscv.hpp"
 403              		.file 7 "src/../h/../h/print.hpp"
 3199              		.align	3
 3202              	DW.ref.__gxx_personality_v0:
 3203 0000 00000000 		.dword	__gxx_personality_v0
 3203      00000000 
 3204              		.ident	"GCC: (Ubuntu 9.4.0-1ubuntu1~20.04) 9.4.0"
 3205              		.section	.note.GNU-stack,"",@progbits
GAS LISTING /tmp/ccmucj5D.s 			page 11

