GAS LISTING /tmp/ccCgyXx1.s 			page 1


   1              		.file	"userMain.cpp"
   2              		.option pic
   3              		.option norelax
   4              		.text
   5              	.Ltext0:
   6              		.section	.text._ZN19ConsumerProducerCPP8Consumer3runEv,"axG",@progbits,_ZN19ConsumerProducerCPP8Co
   7              		.align	2
   8              		.weak	_ZN19ConsumerProducerCPP8Consumer3runEv
  10              	_ZN19ConsumerProducerCPP8Consumer3runEv:
  11              	.LFB14:
  12              		.file 1 "test/../test/ConsumerProducer_CPP_API_test.hpp"
   1:test/../test/ConsumerProducer_CPP_API_test.hpp **** //
   2:test/../test/ConsumerProducer_CPP_API_test.hpp **** // Created by os on 4/17/22.
   3:test/../test/ConsumerProducer_CPP_API_test.hpp **** //
   4:test/../test/ConsumerProducer_CPP_API_test.hpp **** 
   5:test/../test/ConsumerProducer_CPP_API_test.hpp **** #ifndef XV6_CONSUMERPRODUCER_CPP_API_TEST_HPP
   6:test/../test/ConsumerProducer_CPP_API_test.hpp **** #define XV6_CONSUMERPRODUCER_CPP_API_TEST_HPP
   7:test/../test/ConsumerProducer_CPP_API_test.hpp **** 
   8:test/../test/ConsumerProducer_CPP_API_test.hpp **** #include "../h/syscall_cpp.hpp"
   9:test/../test/ConsumerProducer_CPP_API_test.hpp **** 
  10:test/../test/ConsumerProducer_CPP_API_test.hpp **** #include "buffer_CPP_API.hpp"
  11:test/../test/ConsumerProducer_CPP_API_test.hpp **** #include "printing.hpp"
  12:test/../test/ConsumerProducer_CPP_API_test.hpp **** 
  13:test/../test/ConsumerProducer_CPP_API_test.hpp **** namespace ConsumerProducerCPP {
  14:test/../test/ConsumerProducer_CPP_API_test.hpp **** 
  15:test/../test/ConsumerProducer_CPP_API_test.hpp ****     Semaphore *waitForAll;
  16:test/../test/ConsumerProducer_CPP_API_test.hpp **** 
  17:test/../test/ConsumerProducer_CPP_API_test.hpp ****     struct thread_data {
  18:test/../test/ConsumerProducer_CPP_API_test.hpp ****         int id;
  19:test/../test/ConsumerProducer_CPP_API_test.hpp ****         BufferCPP *buffer;
  20:test/../test/ConsumerProducer_CPP_API_test.hpp ****         Semaphore *sem;
  21:test/../test/ConsumerProducer_CPP_API_test.hpp ****     };
  22:test/../test/ConsumerProducer_CPP_API_test.hpp **** 
  23:test/../test/ConsumerProducer_CPP_API_test.hpp ****     volatile int threadEnd = 0;
  24:test/../test/ConsumerProducer_CPP_API_test.hpp **** 
  25:test/../test/ConsumerProducer_CPP_API_test.hpp ****     class ProducerKeyborad : public Thread {
  26:test/../test/ConsumerProducer_CPP_API_test.hpp ****         thread_data *td;
  27:test/../test/ConsumerProducer_CPP_API_test.hpp ****     public:
  28:test/../test/ConsumerProducer_CPP_API_test.hpp ****         ProducerKeyborad(thread_data *_td) : Thread(), td(_td) {}
  29:test/../test/ConsumerProducer_CPP_API_test.hpp **** 
  30:test/../test/ConsumerProducer_CPP_API_test.hpp ****         void run() override {
  31:test/../test/ConsumerProducer_CPP_API_test.hpp ****             int key;
  32:test/../test/ConsumerProducer_CPP_API_test.hpp ****             int i = 0;
  33:test/../test/ConsumerProducer_CPP_API_test.hpp ****             while ((key = getc()) != 0x1b) {
  34:test/../test/ConsumerProducer_CPP_API_test.hpp ****                 td->buffer->put(key);
  35:test/../test/ConsumerProducer_CPP_API_test.hpp ****                 i++;
  36:test/../test/ConsumerProducer_CPP_API_test.hpp ****             }
  37:test/../test/ConsumerProducer_CPP_API_test.hpp **** 
  38:test/../test/ConsumerProducer_CPP_API_test.hpp ****             threadEnd = 1;
  39:test/../test/ConsumerProducer_CPP_API_test.hpp ****             td->buffer->put('!');
  40:test/../test/ConsumerProducer_CPP_API_test.hpp **** 
  41:test/../test/ConsumerProducer_CPP_API_test.hpp ****             td->sem->signal();
  42:test/../test/ConsumerProducer_CPP_API_test.hpp ****         }
  43:test/../test/ConsumerProducer_CPP_API_test.hpp ****     };
  44:test/../test/ConsumerProducer_CPP_API_test.hpp **** 
  45:test/../test/ConsumerProducer_CPP_API_test.hpp ****     class Producer : public Thread {
  46:test/../test/ConsumerProducer_CPP_API_test.hpp ****         thread_data *td;
GAS LISTING /tmp/ccCgyXx1.s 			page 2


  47:test/../test/ConsumerProducer_CPP_API_test.hpp ****     public:
  48:test/../test/ConsumerProducer_CPP_API_test.hpp ****         Producer(thread_data *_td) : Thread(), td(_td) {}
  49:test/../test/ConsumerProducer_CPP_API_test.hpp **** 
  50:test/../test/ConsumerProducer_CPP_API_test.hpp ****         void run() override {
  51:test/../test/ConsumerProducer_CPP_API_test.hpp ****             int i = 0;
  52:test/../test/ConsumerProducer_CPP_API_test.hpp ****             while (!threadEnd) {
  53:test/../test/ConsumerProducer_CPP_API_test.hpp ****                 td->buffer->put(td->id + '0');
  54:test/../test/ConsumerProducer_CPP_API_test.hpp ****                 i++;
  55:test/../test/ConsumerProducer_CPP_API_test.hpp ****                 Thread::sleep((i+td->id)%5);
  56:test/../test/ConsumerProducer_CPP_API_test.hpp ****             }
  57:test/../test/ConsumerProducer_CPP_API_test.hpp **** 
  58:test/../test/ConsumerProducer_CPP_API_test.hpp ****             td->sem->signal();
  59:test/../test/ConsumerProducer_CPP_API_test.hpp ****         }
  60:test/../test/ConsumerProducer_CPP_API_test.hpp ****     };
  61:test/../test/ConsumerProducer_CPP_API_test.hpp **** 
  62:test/../test/ConsumerProducer_CPP_API_test.hpp ****     class Consumer : public Thread {
  63:test/../test/ConsumerProducer_CPP_API_test.hpp ****         thread_data *td;
  64:test/../test/ConsumerProducer_CPP_API_test.hpp ****     public:
  65:test/../test/ConsumerProducer_CPP_API_test.hpp ****         Consumer(thread_data *_td) : Thread(), td(_td) {}
  66:test/../test/ConsumerProducer_CPP_API_test.hpp **** 
  67:test/../test/ConsumerProducer_CPP_API_test.hpp ****         void run() override {
  13              		.loc 1 67 14
  14              		.cfi_startproc
  15              	.LVL0:
  16 0000 130101FD 		addi	sp,sp,-48
  17              		.cfi_def_cfa_offset 48
  18 0004 23341102 		sd	ra,40(sp)
  19 0008 23308102 		sd	s0,32(sp)
  20 000c 233C9100 		sd	s1,24(sp)
  21 0010 23382101 		sd	s2,16(sp)
  22 0014 23343101 		sd	s3,8(sp)
  23              		.cfi_offset 1, -8
  24              		.cfi_offset 8, -16
  25              		.cfi_offset 9, -24
  26              		.cfi_offset 18, -32
  27              		.cfi_offset 19, -40
  28 0018 13040103 		addi	s0,sp,48
  29              		.cfi_def_cfa 8, 0
  30 001c 13090500 		mv	s2,a0
  68:test/../test/ConsumerProducer_CPP_API_test.hpp ****             int i = 0;
  31              		.loc 1 68 13
  32              	.LVL1:
  33              		.loc 1 68 17 is_stmt 0
  34 0020 93090000 		li	s3,0
  35 0024 6F000001 		j	.L2
  36              	.LVL2:
  37              	.L7:
  38              	.LBB23:
  69:test/../test/ConsumerProducer_CPP_API_test.hpp ****             while (!threadEnd) {
  70:test/../test/ConsumerProducer_CPP_API_test.hpp ****                 int key = td->buffer->get();
  71:test/../test/ConsumerProducer_CPP_API_test.hpp ****                 i++;
  72:test/../test/ConsumerProducer_CPP_API_test.hpp **** 
  73:test/../test/ConsumerProducer_CPP_API_test.hpp ****                 Console::putc(key);
  74:test/../test/ConsumerProducer_CPP_API_test.hpp **** 
  75:test/../test/ConsumerProducer_CPP_API_test.hpp ****                 if (i % 80 == 0) {
  76:test/../test/ConsumerProducer_CPP_API_test.hpp ****                     Console::putc('\n');
  39              		.loc 1 76 21 is_stmt 1
GAS LISTING /tmp/ccCgyXx1.s 			page 3


  40              		.loc 1 76 34 is_stmt 0
  41 0028 1305A000 		li	a0,10
  42 002c 97000000 		call	_ZN7Console4putcEc@plt
  42      E7800000 
  43              	.LVL3:
  44              	.L2:
  45              	.LBE23:
  69:test/../test/ConsumerProducer_CPP_API_test.hpp ****             while (!threadEnd) {
  46              		.loc 1 69 13 is_stmt 1
  69:test/../test/ConsumerProducer_CPP_API_test.hpp ****             while (!threadEnd) {
  47              		.loc 1 69 20
  48 0034 97070000 		lw	a5,.LANCHOR0
  48      83A70700 
  49 003c 639A0704 		bnez	a5,.L3
  50              	.LBB24:
  70:test/../test/ConsumerProducer_CPP_API_test.hpp ****                 i++;
  51              		.loc 1 70 17
  70:test/../test/ConsumerProducer_CPP_API_test.hpp ****                 i++;
  52              		.loc 1 70 27 is_stmt 0
  53 0040 83370901 		ld	a5,16(s2)
  70:test/../test/ConsumerProducer_CPP_API_test.hpp ****                 i++;
  54              		.loc 1 70 42
  55 0044 03B58700 		ld	a0,8(a5)
  56 0048 97000000 		call	_ZN9BufferCPP3getEv@plt
  56      E7800000 
  57              	.LVL4:
  71:test/../test/ConsumerProducer_CPP_API_test.hpp **** 
  58              		.loc 1 71 17 is_stmt 1
  71:test/../test/ConsumerProducer_CPP_API_test.hpp **** 
  59              		.loc 1 71 18 is_stmt 0
  60 0050 9B841900 		addiw	s1,s3,1
  61 0054 9B890400 		sext.w	s3,s1
  62              	.LVL5:
  73:test/../test/ConsumerProducer_CPP_API_test.hpp **** 
  63              		.loc 1 73 17 is_stmt 1
  73:test/../test/ConsumerProducer_CPP_API_test.hpp **** 
  64              		.loc 1 73 30 is_stmt 0
  65 0058 1375F50F 		andi	a0,a0,0xff
  66              	.LVL6:
  67 005c 97000000 		call	_ZN7Console4putcEc@plt
  67      E7800000 
  68              	.LVL7:
  75:test/../test/ConsumerProducer_CPP_API_test.hpp ****                     Console::putc('\n');
  69              		.loc 1 75 17 is_stmt 1
  75:test/../test/ConsumerProducer_CPP_API_test.hpp ****                     Console::putc('\n');
  70              		.loc 1 75 23 is_stmt 0
  71 0064 93070005 		li	a5,80
  72 0068 BBE4F402 		remw	s1,s1,a5
  73              	.LVL8:
  75:test/../test/ConsumerProducer_CPP_API_test.hpp ****                     Console::putc('\n');
  74              		.loc 1 75 17
  75 006c E39404FC 		bnez	s1,.L2
  76 0070 6FF09FFB 		j	.L7
  77              	.L8:
  78              	.LBE24:
  79              	.LBB25:
  77:test/../test/ConsumerProducer_CPP_API_test.hpp ****                 }
GAS LISTING /tmp/ccCgyXx1.s 			page 4


  78:test/../test/ConsumerProducer_CPP_API_test.hpp ****             }
  79:test/../test/ConsumerProducer_CPP_API_test.hpp **** 
  80:test/../test/ConsumerProducer_CPP_API_test.hpp ****             while (td->buffer->getCnt() > 0) {
  81:test/../test/ConsumerProducer_CPP_API_test.hpp ****                 int key = td->buffer->get();
  80              		.loc 1 81 17 is_stmt 1
  81              		.loc 1 81 27 is_stmt 0
  82 0074 83370901 		ld	a5,16(s2)
  83              		.loc 1 81 42
  84 0078 03B58700 		ld	a0,8(a5)
  85 007c 97000000 		call	_ZN9BufferCPP3getEv@plt
  85      E7800000 
  86              	.LVL9:
  82:test/../test/ConsumerProducer_CPP_API_test.hpp ****                 Console::putc(key);
  87              		.loc 1 82 17 is_stmt 1
  88              		.loc 1 82 30 is_stmt 0
  89 0084 1375F50F 		andi	a0,a0,0xff
  90              	.LVL10:
  91 0088 97000000 		call	_ZN7Console4putcEc@plt
  91      E7800000 
  92              	.LVL11:
  93              	.L3:
  94              	.LBE25:
  80:test/../test/ConsumerProducer_CPP_API_test.hpp ****                 int key = td->buffer->get();
  95              		.loc 1 80 13 is_stmt 1
  80:test/../test/ConsumerProducer_CPP_API_test.hpp ****                 int key = td->buffer->get();
  96              		.loc 1 80 41
  80:test/../test/ConsumerProducer_CPP_API_test.hpp ****                 int key = td->buffer->get();
  97              		.loc 1 80 20 is_stmt 0
  98 0090 83370901 		ld	a5,16(s2)
  80:test/../test/ConsumerProducer_CPP_API_test.hpp ****                 int key = td->buffer->get();
  99              		.loc 1 80 38
 100 0094 03B58700 		ld	a0,8(a5)
 101 0098 97000000 		call	_ZN9BufferCPP6getCntEv@plt
 101      E7800000 
 102              	.LVL12:
  80:test/../test/ConsumerProducer_CPP_API_test.hpp ****                 int key = td->buffer->get();
 103              		.loc 1 80 41
 104 00a0 E34AA0FC 		bgtz	a0,.L8
  83:test/../test/ConsumerProducer_CPP_API_test.hpp ****             }
  84:test/../test/ConsumerProducer_CPP_API_test.hpp **** 
  85:test/../test/ConsumerProducer_CPP_API_test.hpp ****             td->sem->signal();
 105              		.loc 1 85 13 is_stmt 1
 106 00a4 83370901 		ld	a5,16(s2)
 107              		.loc 1 85 28 is_stmt 0
 108 00a8 03B50701 		ld	a0,16(a5)
 109 00ac 97000000 		call	_ZN9Semaphore6signalEv@plt
 109      E7800000 
 110              	.LVL13:
  86:test/../test/ConsumerProducer_CPP_API_test.hpp ****         }
 111              		.loc 1 86 9
 112 00b4 83308102 		ld	ra,40(sp)
 113              		.cfi_restore 1
 114 00b8 03340102 		ld	s0,32(sp)
 115              		.cfi_restore 8
 116              		.cfi_def_cfa 2, 48
 117 00bc 83348101 		ld	s1,24(sp)
 118              		.cfi_restore 9
GAS LISTING /tmp/ccCgyXx1.s 			page 5


 119 00c0 03390101 		ld	s2,16(sp)
 120              		.cfi_restore 18
 121              	.LVL14:
 122 00c4 83398100 		ld	s3,8(sp)
 123              		.cfi_restore 19
 124              	.LVL15:
 125 00c8 13010103 		addi	sp,sp,48
 126              		.cfi_def_cfa_offset 0
 127 00cc 67800000 		jr	ra
 128              		.cfi_endproc
 129              	.LFE14:
 131              		.section	.text._ZN19ConsumerProducerCPP8ConsumerD2Ev,"axG",@progbits,_ZN19ConsumerProducerCPP8Cons
 132              		.align	2
 133              		.weak	_ZN19ConsumerProducerCPP8ConsumerD2Ev
 135              	_ZN19ConsumerProducerCPP8ConsumerD2Ev:
 136              	.LFB18:
  62:test/../test/ConsumerProducer_CPP_API_test.hpp ****         thread_data *td;
 137              		.loc 1 62 11 is_stmt 1
 138              		.cfi_startproc
 139              	.LVL16:
 140 0000 130101FF 		addi	sp,sp,-16
 141              		.cfi_def_cfa_offset 16
 142 0004 23341100 		sd	ra,8(sp)
 143 0008 23308100 		sd	s0,0(sp)
 144              		.cfi_offset 1, -8
 145              		.cfi_offset 8, -16
 146 000c 13040101 		addi	s0,sp,16
 147              		.cfi_def_cfa 8, 0
 148              	.LBB26:
  62:test/../test/ConsumerProducer_CPP_API_test.hpp ****         thread_data *td;
 149              		.loc 1 62 11 is_stmt 0
 150 0010 97070000 		lla	a5,_ZTVN19ConsumerProducerCPP8ConsumerE+16
 150      93870700 
 151 0018 2330F500 		sd	a5,0(a0)
 152 001c 97000000 		call	_ZN6ThreadD2Ev@plt
 152      E7800000 
 153              	.LVL17:
 154              	.LBE26:
 155 0024 83308100 		ld	ra,8(sp)
 156              		.cfi_restore 1
 157 0028 03340100 		ld	s0,0(sp)
 158              		.cfi_restore 8
 159              		.cfi_def_cfa 2, 16
 160 002c 13010101 		addi	sp,sp,16
 161              		.cfi_def_cfa_offset 0
 162 0030 67800000 		jr	ra
 163              		.cfi_endproc
 164              	.LFE18:
 166              		.weak	_ZN19ConsumerProducerCPP8ConsumerD1Ev
 167              		.set	_ZN19ConsumerProducerCPP8ConsumerD1Ev,_ZN19ConsumerProducerCPP8ConsumerD2Ev
 168              		.section	.text._ZN19ConsumerProducerCPP8ConsumerD0Ev,"axG",@progbits,_ZN19ConsumerProducerCPP8Cons
 169              		.align	2
 170              		.weak	_ZN19ConsumerProducerCPP8ConsumerD0Ev
 172              	_ZN19ConsumerProducerCPP8ConsumerD0Ev:
 173              	.LFB20:
  62:test/../test/ConsumerProducer_CPP_API_test.hpp ****         thread_data *td;
 174              		.loc 1 62 11 is_stmt 1
GAS LISTING /tmp/ccCgyXx1.s 			page 6


 175              		.cfi_startproc
 176              	.LVL18:
 177 0000 130101FE 		addi	sp,sp,-32
 178              		.cfi_def_cfa_offset 32
 179 0004 233C1100 		sd	ra,24(sp)
 180 0008 23388100 		sd	s0,16(sp)
 181 000c 23349100 		sd	s1,8(sp)
 182              		.cfi_offset 1, -8
 183              		.cfi_offset 8, -16
 184              		.cfi_offset 9, -24
 185 0010 13040102 		addi	s0,sp,32
 186              		.cfi_def_cfa 8, 0
 187 0014 93040500 		mv	s1,a0
 188              	.LVL19:
 189              	.LBB27:
 190              	.LBB28:
  62:test/../test/ConsumerProducer_CPP_API_test.hpp ****         thread_data *td;
 191              		.loc 1 62 11 is_stmt 0
 192 0018 97070000 		lla	a5,_ZTVN19ConsumerProducerCPP8ConsumerE+16
 192      93870700 
 193 0020 2330F500 		sd	a5,0(a0)
 194 0024 97000000 		call	_ZN6ThreadD2Ev@plt
 194      E7800000 
 195              	.LVL20:
 196              	.LBE28:
 197              	.LBE27:
 198 002c 13850400 		mv	a0,s1
 199 0030 97000000 		call	_ZdlPv@plt
 199      E7800000 
 200              	.LVL21:
 201 0038 83308101 		ld	ra,24(sp)
 202              		.cfi_restore 1
 203 003c 03340101 		ld	s0,16(sp)
 204              		.cfi_restore 8
 205              		.cfi_def_cfa 2, 32
 206 0040 83348100 		ld	s1,8(sp)
 207              		.cfi_restore 9
 208              	.LVL22:
 209 0044 13010102 		addi	sp,sp,32
 210              		.cfi_def_cfa_offset 0
 211 0048 67800000 		jr	ra
 212              		.cfi_endproc
 213              	.LFE20:
 215              		.section	.text._ZN19ConsumerProducerCPP16ProducerKeyboradD2Ev,"axG",@progbits,_ZN19ConsumerProduce
 216              		.align	2
 217              		.weak	_ZN19ConsumerProducerCPP16ProducerKeyboradD2Ev
 219              	_ZN19ConsumerProducerCPP16ProducerKeyboradD2Ev:
 220              	.LFB26:
  25:test/../test/ConsumerProducer_CPP_API_test.hpp ****         thread_data *td;
 221              		.loc 1 25 11 is_stmt 1
 222              		.cfi_startproc
 223              	.LVL23:
 224 0000 130101FF 		addi	sp,sp,-16
 225              		.cfi_def_cfa_offset 16
 226 0004 23341100 		sd	ra,8(sp)
 227 0008 23308100 		sd	s0,0(sp)
 228              		.cfi_offset 1, -8
GAS LISTING /tmp/ccCgyXx1.s 			page 7


 229              		.cfi_offset 8, -16
 230 000c 13040101 		addi	s0,sp,16
 231              		.cfi_def_cfa 8, 0
 232              	.LBB29:
  25:test/../test/ConsumerProducer_CPP_API_test.hpp ****         thread_data *td;
 233              		.loc 1 25 11 is_stmt 0
 234 0010 97070000 		lla	a5,_ZTVN19ConsumerProducerCPP16ProducerKeyboradE+16
 234      93870700 
 235 0018 2330F500 		sd	a5,0(a0)
 236 001c 97000000 		call	_ZN6ThreadD2Ev@plt
 236      E7800000 
 237              	.LVL24:
 238              	.LBE29:
 239 0024 83308100 		ld	ra,8(sp)
 240              		.cfi_restore 1
 241 0028 03340100 		ld	s0,0(sp)
 242              		.cfi_restore 8
 243              		.cfi_def_cfa 2, 16
 244 002c 13010101 		addi	sp,sp,16
 245              		.cfi_def_cfa_offset 0
 246 0030 67800000 		jr	ra
 247              		.cfi_endproc
 248              	.LFE26:
 250              		.weak	_ZN19ConsumerProducerCPP16ProducerKeyboradD1Ev
 251              		.set	_ZN19ConsumerProducerCPP16ProducerKeyboradD1Ev,_ZN19ConsumerProducerCPP16ProducerKeyboradD2Ev
 252              		.section	.text._ZN19ConsumerProducerCPP16ProducerKeyboradD0Ev,"axG",@progbits,_ZN19ConsumerProduce
 253              		.align	2
 254              		.weak	_ZN19ConsumerProducerCPP16ProducerKeyboradD0Ev
 256              	_ZN19ConsumerProducerCPP16ProducerKeyboradD0Ev:
 257              	.LFB28:
  25:test/../test/ConsumerProducer_CPP_API_test.hpp ****         thread_data *td;
 258              		.loc 1 25 11 is_stmt 1
 259              		.cfi_startproc
 260              	.LVL25:
 261 0000 130101FE 		addi	sp,sp,-32
 262              		.cfi_def_cfa_offset 32
 263 0004 233C1100 		sd	ra,24(sp)
 264 0008 23388100 		sd	s0,16(sp)
 265 000c 23349100 		sd	s1,8(sp)
 266              		.cfi_offset 1, -8
 267              		.cfi_offset 8, -16
 268              		.cfi_offset 9, -24
 269 0010 13040102 		addi	s0,sp,32
 270              		.cfi_def_cfa 8, 0
 271 0014 93040500 		mv	s1,a0
 272              	.LVL26:
 273              	.LBB30:
 274              	.LBB31:
  25:test/../test/ConsumerProducer_CPP_API_test.hpp ****         thread_data *td;
 275              		.loc 1 25 11 is_stmt 0
 276 0018 97070000 		lla	a5,_ZTVN19ConsumerProducerCPP16ProducerKeyboradE+16
 276      93870700 
 277 0020 2330F500 		sd	a5,0(a0)
 278 0024 97000000 		call	_ZN6ThreadD2Ev@plt
 278      E7800000 
 279              	.LVL27:
 280              	.LBE31:
GAS LISTING /tmp/ccCgyXx1.s 			page 8


 281              	.LBE30:
 282 002c 13850400 		mv	a0,s1
 283 0030 97000000 		call	_ZdlPv@plt
 283      E7800000 
 284              	.LVL28:
 285 0038 83308101 		ld	ra,24(sp)
 286              		.cfi_restore 1
 287 003c 03340101 		ld	s0,16(sp)
 288              		.cfi_restore 8
 289              		.cfi_def_cfa 2, 32
 290 0040 83348100 		ld	s1,8(sp)
 291              		.cfi_restore 9
 292              	.LVL29:
 293 0044 13010102 		addi	sp,sp,32
 294              		.cfi_def_cfa_offset 0
 295 0048 67800000 		jr	ra
 296              		.cfi_endproc
 297              	.LFE28:
 299              		.section	.text._ZN19ConsumerProducerCPP8ProducerD2Ev,"axG",@progbits,_ZN19ConsumerProducerCPP8Prod
 300              		.align	2
 301              		.weak	_ZN19ConsumerProducerCPP8ProducerD2Ev
 303              	_ZN19ConsumerProducerCPP8ProducerD2Ev:
 304              	.LFB22:
  45:test/../test/ConsumerProducer_CPP_API_test.hpp ****         thread_data *td;
 305              		.loc 1 45 11 is_stmt 1
 306              		.cfi_startproc
 307              	.LVL30:
 308 0000 130101FF 		addi	sp,sp,-16
 309              		.cfi_def_cfa_offset 16
 310 0004 23341100 		sd	ra,8(sp)
 311 0008 23308100 		sd	s0,0(sp)
 312              		.cfi_offset 1, -8
 313              		.cfi_offset 8, -16
 314 000c 13040101 		addi	s0,sp,16
 315              		.cfi_def_cfa 8, 0
 316              	.LBB32:
  45:test/../test/ConsumerProducer_CPP_API_test.hpp ****         thread_data *td;
 317              		.loc 1 45 11 is_stmt 0
 318 0010 97070000 		lla	a5,_ZTVN19ConsumerProducerCPP8ProducerE+16
 318      93870700 
 319 0018 2330F500 		sd	a5,0(a0)
 320 001c 97000000 		call	_ZN6ThreadD2Ev@plt
 320      E7800000 
 321              	.LVL31:
 322              	.LBE32:
 323 0024 83308100 		ld	ra,8(sp)
 324              		.cfi_restore 1
 325 0028 03340100 		ld	s0,0(sp)
 326              		.cfi_restore 8
 327              		.cfi_def_cfa 2, 16
 328 002c 13010101 		addi	sp,sp,16
 329              		.cfi_def_cfa_offset 0
 330 0030 67800000 		jr	ra
 331              		.cfi_endproc
 332              	.LFE22:
 334              		.weak	_ZN19ConsumerProducerCPP8ProducerD1Ev
 335              		.set	_ZN19ConsumerProducerCPP8ProducerD1Ev,_ZN19ConsumerProducerCPP8ProducerD2Ev
GAS LISTING /tmp/ccCgyXx1.s 			page 9


 336              		.section	.text._ZN19ConsumerProducerCPP8ProducerD0Ev,"axG",@progbits,_ZN19ConsumerProducerCPP8Prod
 337              		.align	2
 338              		.weak	_ZN19ConsumerProducerCPP8ProducerD0Ev
 340              	_ZN19ConsumerProducerCPP8ProducerD0Ev:
 341              	.LFB24:
  45:test/../test/ConsumerProducer_CPP_API_test.hpp ****         thread_data *td;
 342              		.loc 1 45 11 is_stmt 1
 343              		.cfi_startproc
 344              	.LVL32:
 345 0000 130101FE 		addi	sp,sp,-32
 346              		.cfi_def_cfa_offset 32
 347 0004 233C1100 		sd	ra,24(sp)
 348 0008 23388100 		sd	s0,16(sp)
 349 000c 23349100 		sd	s1,8(sp)
 350              		.cfi_offset 1, -8
 351              		.cfi_offset 8, -16
 352              		.cfi_offset 9, -24
 353 0010 13040102 		addi	s0,sp,32
 354              		.cfi_def_cfa 8, 0
 355 0014 93040500 		mv	s1,a0
 356              	.LVL33:
 357              	.LBB33:
 358              	.LBB34:
  45:test/../test/ConsumerProducer_CPP_API_test.hpp ****         thread_data *td;
 359              		.loc 1 45 11 is_stmt 0
 360 0018 97070000 		lla	a5,_ZTVN19ConsumerProducerCPP8ProducerE+16
 360      93870700 
 361 0020 2330F500 		sd	a5,0(a0)
 362 0024 97000000 		call	_ZN6ThreadD2Ev@plt
 362      E7800000 
 363              	.LVL34:
 364              	.LBE34:
 365              	.LBE33:
 366 002c 13850400 		mv	a0,s1
 367 0030 97000000 		call	_ZdlPv@plt
 367      E7800000 
 368              	.LVL35:
 369 0038 83308101 		ld	ra,24(sp)
 370              		.cfi_restore 1
 371 003c 03340101 		ld	s0,16(sp)
 372              		.cfi_restore 8
 373              		.cfi_def_cfa 2, 32
 374 0040 83348100 		ld	s1,8(sp)
 375              		.cfi_restore 9
 376              	.LVL36:
 377 0044 13010102 		addi	sp,sp,32
 378              		.cfi_def_cfa_offset 0
 379 0048 67800000 		jr	ra
 380              		.cfi_endproc
 381              	.LFE24:
 383              		.section	.text._ZN19ConsumerProducerCPP16ProducerKeyborad3runEv,"axG",@progbits,_ZN19ConsumerProdu
 384              		.align	2
 385              		.weak	_ZN19ConsumerProducerCPP16ProducerKeyborad3runEv
 387              	_ZN19ConsumerProducerCPP16ProducerKeyborad3runEv:
 388              	.LFB6:
  30:test/../test/ConsumerProducer_CPP_API_test.hpp ****             int key;
 389              		.loc 1 30 14 is_stmt 1
GAS LISTING /tmp/ccCgyXx1.s 			page 10


 390              		.cfi_startproc
 391              	.LVL37:
 392 0000 130101FE 		addi	sp,sp,-32
 393              		.cfi_def_cfa_offset 32
 394 0004 233C1100 		sd	ra,24(sp)
 395 0008 23388100 		sd	s0,16(sp)
 396 000c 23349100 		sd	s1,8(sp)
 397              		.cfi_offset 1, -8
 398              		.cfi_offset 8, -16
 399              		.cfi_offset 9, -24
 400 0010 13040102 		addi	s0,sp,32
 401              		.cfi_def_cfa 8, 0
 402 0014 93040500 		mv	s1,a0
  31:test/../test/ConsumerProducer_CPP_API_test.hpp ****             int i = 0;
 403              		.loc 1 31 13
  32:test/../test/ConsumerProducer_CPP_API_test.hpp ****             while ((key = getc()) != 0x1b) {
 404              		.loc 1 32 13
 405              	.LVL38:
 406              	.L23:
  33:test/../test/ConsumerProducer_CPP_API_test.hpp ****                 td->buffer->put(key);
 407              		.loc 1 33 13
  33:test/../test/ConsumerProducer_CPP_API_test.hpp ****                 td->buffer->put(key);
 408              		.loc 1 33 35
  33:test/../test/ConsumerProducer_CPP_API_test.hpp ****                 td->buffer->put(key);
 409              		.loc 1 33 31 is_stmt 0
 410 0018 97000000 		call	_Z4getcv@plt
 410      E7800000 
 411              	.LVL39:
  33:test/../test/ConsumerProducer_CPP_API_test.hpp ****                 td->buffer->put(key);
 412              		.loc 1 33 25
 413 0020 9B050500 		sext.w	a1,a0
 414              	.LVL40:
  33:test/../test/ConsumerProducer_CPP_API_test.hpp ****                 td->buffer->put(key);
 415              		.loc 1 33 35
 416 0024 9307B001 		li	a5,27
 417 0028 638CF500 		beq	a1,a5,.L22
  34:test/../test/ConsumerProducer_CPP_API_test.hpp ****                 i++;
 418              		.loc 1 34 17 is_stmt 1
 419 002c 83B70401 		ld	a5,16(s1)
  34:test/../test/ConsumerProducer_CPP_API_test.hpp ****                 i++;
 420              		.loc 1 34 32 is_stmt 0
 421 0030 03B58700 		ld	a0,8(a5)
 422 0034 97000000 		call	_ZN9BufferCPP3putEi@plt
 422      E7800000 
 423              	.LVL41:
  35:test/../test/ConsumerProducer_CPP_API_test.hpp ****             }
 424              		.loc 1 35 17 is_stmt 1
  33:test/../test/ConsumerProducer_CPP_API_test.hpp ****                 td->buffer->put(key);
 425              		.loc 1 33 13 is_stmt 0
 426 003c 6FF0DFFD 		j	.L23
 427              	.LVL42:
 428              	.L22:
  38:test/../test/ConsumerProducer_CPP_API_test.hpp ****             td->buffer->put('!');
 429              		.loc 1 38 13 is_stmt 1
  38:test/../test/ConsumerProducer_CPP_API_test.hpp ****             td->buffer->put('!');
 430              		.loc 1 38 23 is_stmt 0
 431 0040 93071000 		li	a5,1
GAS LISTING /tmp/ccCgyXx1.s 			page 11


 432 0044 17070000 		sw	a5,.LANCHOR0,a4
 432      2320F700 
  39:test/../test/ConsumerProducer_CPP_API_test.hpp **** 
 433              		.loc 1 39 13 is_stmt 1
 434 004c 83B70401 		ld	a5,16(s1)
  39:test/../test/ConsumerProducer_CPP_API_test.hpp **** 
 435              		.loc 1 39 28 is_stmt 0
 436 0050 93051002 		li	a1,33
 437              	.LVL43:
 438 0054 03B58700 		ld	a0,8(a5)
 439              	.LVL44:
 440 0058 97000000 		call	_ZN9BufferCPP3putEi@plt
 440      E7800000 
 441              	.LVL45:
  41:test/../test/ConsumerProducer_CPP_API_test.hpp ****         }
 442              		.loc 1 41 13 is_stmt 1
 443 0060 83B70401 		ld	a5,16(s1)
  41:test/../test/ConsumerProducer_CPP_API_test.hpp ****         }
 444              		.loc 1 41 28 is_stmt 0
 445 0064 03B50701 		ld	a0,16(a5)
 446 0068 97000000 		call	_ZN9Semaphore6signalEv@plt
 446      E7800000 
 447              	.LVL46:
  42:test/../test/ConsumerProducer_CPP_API_test.hpp ****     };
 448              		.loc 1 42 9
 449 0070 83308101 		ld	ra,24(sp)
 450              		.cfi_restore 1
 451 0074 03340101 		ld	s0,16(sp)
 452              		.cfi_restore 8
 453              		.cfi_def_cfa 2, 32
 454 0078 83348100 		ld	s1,8(sp)
 455              		.cfi_restore 9
 456              	.LVL47:
 457 007c 13010102 		addi	sp,sp,32
 458              		.cfi_def_cfa_offset 0
 459 0080 67800000 		jr	ra
 460              		.cfi_endproc
 461              	.LFE6:
 463              		.section	.text._ZN19ConsumerProducerCPP8Producer3runEv,"axG",@progbits,_ZN19ConsumerProducerCPP8Pr
 464              		.align	2
 465              		.weak	_ZN19ConsumerProducerCPP8Producer3runEv
 467              	_ZN19ConsumerProducerCPP8Producer3runEv:
 468              	.LFB10:
  50:test/../test/ConsumerProducer_CPP_API_test.hpp ****             int i = 0;
 469              		.loc 1 50 14 is_stmt 1
 470              		.cfi_startproc
 471              	.LVL48:
 472 0000 130101FE 		addi	sp,sp,-32
 473              		.cfi_def_cfa_offset 32
 474 0004 233C1100 		sd	ra,24(sp)
 475 0008 23388100 		sd	s0,16(sp)
 476 000c 23349100 		sd	s1,8(sp)
 477 0010 23302101 		sd	s2,0(sp)
 478              		.cfi_offset 1, -8
 479              		.cfi_offset 8, -16
 480              		.cfi_offset 9, -24
 481              		.cfi_offset 18, -32
GAS LISTING /tmp/ccCgyXx1.s 			page 12


 482 0014 13040102 		addi	s0,sp,32
 483              		.cfi_def_cfa 8, 0
 484 0018 93040500 		mv	s1,a0
  51:test/../test/ConsumerProducer_CPP_API_test.hpp ****             while (!threadEnd) {
 485              		.loc 1 51 13
 486              	.LVL49:
  51:test/../test/ConsumerProducer_CPP_API_test.hpp ****             while (!threadEnd) {
 487              		.loc 1 51 17 is_stmt 0
 488 001c 13090000 		li	s2,0
 489              	.LVL50:
 490              	.L27:
  52:test/../test/ConsumerProducer_CPP_API_test.hpp ****                 td->buffer->put(td->id + '0');
 491              		.loc 1 52 13 is_stmt 1
  52:test/../test/ConsumerProducer_CPP_API_test.hpp ****                 td->buffer->put(td->id + '0');
 492              		.loc 1 52 20
 493 0020 97070000 		lw	a5,.LANCHOR0
 493      83A70700 
 494 0028 63920704 		bnez	a5,.L26
  53:test/../test/ConsumerProducer_CPP_API_test.hpp ****                 i++;
 495              		.loc 1 53 17
 496 002c 83B70401 		ld	a5,16(s1)
  53:test/../test/ConsumerProducer_CPP_API_test.hpp ****                 i++;
 497              		.loc 1 53 37 is_stmt 0
 498 0030 83A50700 		lw	a1,0(a5)
  53:test/../test/ConsumerProducer_CPP_API_test.hpp ****                 i++;
 499              		.loc 1 53 32
 500 0034 9B850503 		addiw	a1,a1,48
 501 0038 03B58700 		ld	a0,8(a5)
 502 003c 97000000 		call	_ZN9BufferCPP3putEi@plt
 502      E7800000 
 503              	.LVL51:
  54:test/../test/ConsumerProducer_CPP_API_test.hpp ****                 Thread::sleep((i+td->id)%5);
 504              		.loc 1 54 17 is_stmt 1
  54:test/../test/ConsumerProducer_CPP_API_test.hpp ****                 Thread::sleep((i+td->id)%5);
 505              		.loc 1 54 18 is_stmt 0
 506 0044 1B071900 		addiw	a4,s2,1
 507 0048 1B090700 		sext.w	s2,a4
 508              	.LVL52:
  55:test/../test/ConsumerProducer_CPP_API_test.hpp ****             }
 509              		.loc 1 55 17 is_stmt 1
  55:test/../test/ConsumerProducer_CPP_API_test.hpp ****             }
 510              		.loc 1 55 34 is_stmt 0
 511 004c 83B70401 		ld	a5,16(s1)
  55:test/../test/ConsumerProducer_CPP_API_test.hpp ****             }
 512              		.loc 1 55 38
 513 0050 83A70700 		lw	a5,0(a5)
  55:test/../test/ConsumerProducer_CPP_API_test.hpp ****             }
 514              		.loc 1 55 33
 515 0054 BB87E700 		addw	a5,a5,a4
  55:test/../test/ConsumerProducer_CPP_API_test.hpp ****             }
 516              		.loc 1 55 30
 517 0058 13055000 		li	a0,5
 518 005c 3BE5A702 		remw	a0,a5,a0
 519 0060 97000000 		call	_ZN6Thread5sleepEm@plt
 519      E7800000 
 520              	.LVL53:
  52:test/../test/ConsumerProducer_CPP_API_test.hpp ****                 td->buffer->put(td->id + '0');
GAS LISTING /tmp/ccCgyXx1.s 			page 13


 521              		.loc 1 52 13
 522 0068 6FF09FFB 		j	.L27
 523              	.L26:
  58:test/../test/ConsumerProducer_CPP_API_test.hpp ****         }
 524              		.loc 1 58 13 is_stmt 1
 525 006c 83B70401 		ld	a5,16(s1)
  58:test/../test/ConsumerProducer_CPP_API_test.hpp ****         }
 526              		.loc 1 58 28 is_stmt 0
 527 0070 03B50701 		ld	a0,16(a5)
 528 0074 97000000 		call	_ZN9Semaphore6signalEv@plt
 528      E7800000 
 529              	.LVL54:
  59:test/../test/ConsumerProducer_CPP_API_test.hpp ****     };
 530              		.loc 1 59 9
 531 007c 83308101 		ld	ra,24(sp)
 532              		.cfi_restore 1
 533 0080 03340101 		ld	s0,16(sp)
 534              		.cfi_restore 8
 535              		.cfi_def_cfa 2, 32
 536 0084 83348100 		ld	s1,8(sp)
 537              		.cfi_restore 9
 538              	.LVL55:
 539 0088 03390100 		ld	s2,0(sp)
 540              		.cfi_restore 18
 541              	.LVL56:
 542 008c 13010102 		addi	sp,sp,32
 543              		.cfi_def_cfa_offset 0
 544 0090 67800000 		jr	ra
 545              		.cfi_endproc
 546              	.LFE10:
 548              		.section	.rodata.str1.8,"aMS",@progbits,1
 549              		.align	3
 550              	.LC0:
 551 0000 556E6573 		.string	"Unesite broj proizvodjaca?\n"
 551      69746520 
 551      62726F6A 
 551      2070726F 
 551      697A766F 
 552 001c 00000000 		.align	3
 553              	.LC1:
 554 0020 556E6573 		.string	"Unesite velicinu bafera?\n"
 554      69746520 
 554      76656C69 
 554      63696E75 
 554      20626166 
 555 003a 00000000 		.align	3
 555      0000
 556              	.LC2:
 557 0040 42726F6A 		.string	"Broj proizvodjaca "
 557      2070726F 
 557      697A766F 
 557      646A6163 
 557      612000
 558 0053 00000000 		.align	3
 558      00
 559              	.LC3:
 560 0058 20692076 		.string	" i velicina bafera "
GAS LISTING /tmp/ccCgyXx1.s 			page 14


 560      656C6963 
 560      696E6120 
 560      62616665 
 560      72612000 
 561 006c 00000000 		.align	3
 562              	.LC4:
 563 0070 2E0A00   		.string	".\n"
 564 0073 00000000 		.align	3
 564      00
 565              	.LC5:
 566 0078 42726F6A 		.string	"Broj proizvodjaca ne sme biti manji od velicine bafera!\n"
 566      2070726F 
 566      697A766F 
 566      646A6163 
 566      61206E65 
 567 00b1 00000000 		.align	3
 567      000000
 568              	.LC6:
 569 00b8 42726F6A 		.string	"Broj proizvodjaca mora biti veci od nula!\n"
 569      2070726F 
 569      697A766F 
 569      646A6163 
 569      61206D6F 
 570              		.text
 571              		.align	2
 572              		.globl	_ZN19ConsumerProducerCPP20testConsumerProducerEv
 574              	_ZN19ConsumerProducerCPP20testConsumerProducerEv:
 575              	.LFB15:
  87:test/../test/ConsumerProducer_CPP_API_test.hpp ****     };
  88:test/../test/ConsumerProducer_CPP_API_test.hpp **** 
  89:test/../test/ConsumerProducer_CPP_API_test.hpp ****     void testConsumerProducer() {
 576              		.loc 1 89 33 is_stmt 1
 577              		.cfi_startproc
 578              		.cfi_personality 0x9b,DW.ref.__gxx_personality_v0
 579              		.cfi_lsda 0x1b,.LLSDA15
 580 0000 130101F8 		addi	sp,sp,-128
 581              		.cfi_def_cfa_offset 128
 582 0004 233C1106 		sd	ra,120(sp)
 583 0008 23388106 		sd	s0,112(sp)
 584 000c 23349106 		sd	s1,104(sp)
 585 0010 23302107 		sd	s2,96(sp)
 586 0014 233C3105 		sd	s3,88(sp)
 587 0018 23384105 		sd	s4,80(sp)
 588 001c 23345105 		sd	s5,72(sp)
 589 0020 23306105 		sd	s6,64(sp)
 590 0024 233C7103 		sd	s7,56(sp)
 591 0028 23388103 		sd	s8,48(sp)
 592 002c 23349103 		sd	s9,40(sp)
 593              		.cfi_offset 1, -8
 594              		.cfi_offset 8, -16
 595              		.cfi_offset 9, -24
 596              		.cfi_offset 18, -32
 597              		.cfi_offset 19, -40
 598              		.cfi_offset 20, -48
 599              		.cfi_offset 21, -56
 600              		.cfi_offset 22, -64
 601              		.cfi_offset 23, -72
GAS LISTING /tmp/ccCgyXx1.s 			page 15


 602              		.cfi_offset 24, -80
 603              		.cfi_offset 25, -88
 604 0030 13040108 		addi	s0,sp,128
 605              		.cfi_def_cfa 8, 0
  90:test/../test/ConsumerProducer_CPP_API_test.hpp ****         char input[30];
  91:test/../test/ConsumerProducer_CPP_API_test.hpp ****         int n, threadNum;
  92:test/../test/ConsumerProducer_CPP_API_test.hpp **** 
  93:test/../test/ConsumerProducer_CPP_API_test.hpp ****         printString("Unesite broj proizvodjaca?\n");
  94:test/../test/ConsumerProducer_CPP_API_test.hpp ****         getString(input, 30);
  95:test/../test/ConsumerProducer_CPP_API_test.hpp ****         threadNum = stringToInt(input);
  96:test/../test/ConsumerProducer_CPP_API_test.hpp **** 
  97:test/../test/ConsumerProducer_CPP_API_test.hpp ****         printString("Unesite velicinu bafera?\n");
  98:test/../test/ConsumerProducer_CPP_API_test.hpp ****         getString(input, 30);
  99:test/../test/ConsumerProducer_CPP_API_test.hpp ****         n = stringToInt(input);
 100:test/../test/ConsumerProducer_CPP_API_test.hpp **** 
 101:test/../test/ConsumerProducer_CPP_API_test.hpp ****         printString("Broj proizvodjaca "); printInt(threadNum);
 102:test/../test/ConsumerProducer_CPP_API_test.hpp ****         printString(" i velicina bafera "); printInt(n);
 103:test/../test/ConsumerProducer_CPP_API_test.hpp ****         printString(".\n");
 104:test/../test/ConsumerProducer_CPP_API_test.hpp **** 
 105:test/../test/ConsumerProducer_CPP_API_test.hpp ****         if(threadNum > n) {
 106:test/../test/ConsumerProducer_CPP_API_test.hpp ****             printString("Broj proizvodjaca ne sme biti manji od velicine bafera!\n");
 107:test/../test/ConsumerProducer_CPP_API_test.hpp ****             return;
 108:test/../test/ConsumerProducer_CPP_API_test.hpp ****         } else if (threadNum < 1) {
 109:test/../test/ConsumerProducer_CPP_API_test.hpp ****             printString("Broj proizvodjaca mora biti veci od nula!\n");
 110:test/../test/ConsumerProducer_CPP_API_test.hpp ****             return;
 111:test/../test/ConsumerProducer_CPP_API_test.hpp ****         }
 112:test/../test/ConsumerProducer_CPP_API_test.hpp **** 
 113:test/../test/ConsumerProducer_CPP_API_test.hpp ****         BufferCPP *buffer = new BufferCPP(n);
 114:test/../test/ConsumerProducer_CPP_API_test.hpp **** 
 115:test/../test/ConsumerProducer_CPP_API_test.hpp ****         waitForAll = new Semaphore(0);
 116:test/../test/ConsumerProducer_CPP_API_test.hpp ****         Thread *producers[threadNum];
 117:test/../test/ConsumerProducer_CPP_API_test.hpp ****         thread_data threadData[threadNum + 1];
 118:test/../test/ConsumerProducer_CPP_API_test.hpp **** 
 119:test/../test/ConsumerProducer_CPP_API_test.hpp ****         threadData[threadNum].id = threadNum;
 120:test/../test/ConsumerProducer_CPP_API_test.hpp ****         threadData[threadNum].buffer = buffer;
 121:test/../test/ConsumerProducer_CPP_API_test.hpp ****         threadData[threadNum].sem = waitForAll;
 122:test/../test/ConsumerProducer_CPP_API_test.hpp ****         Thread *consumer = new Consumer(&threadData[threadNum]);
 123:test/../test/ConsumerProducer_CPP_API_test.hpp ****         consumer->start();
 124:test/../test/ConsumerProducer_CPP_API_test.hpp **** 
 125:test/../test/ConsumerProducer_CPP_API_test.hpp ****         threadData[0].id = 0;
 126:test/../test/ConsumerProducer_CPP_API_test.hpp ****         threadData[0].buffer = buffer;
 127:test/../test/ConsumerProducer_CPP_API_test.hpp ****         threadData[0].sem = waitForAll;
 128:test/../test/ConsumerProducer_CPP_API_test.hpp ****         producers[0] = new ProducerKeyborad(&threadData[0]);
 129:test/../test/ConsumerProducer_CPP_API_test.hpp ****         producers[0]->start();
 130:test/../test/ConsumerProducer_CPP_API_test.hpp **** 
 131:test/../test/ConsumerProducer_CPP_API_test.hpp ****         for (int i = 1; i < threadNum; i++) {
 132:test/../test/ConsumerProducer_CPP_API_test.hpp ****             threadData[i].id = i;
 133:test/../test/ConsumerProducer_CPP_API_test.hpp ****             threadData[i].buffer = buffer;
 134:test/../test/ConsumerProducer_CPP_API_test.hpp ****             threadData[i].sem = waitForAll;
 135:test/../test/ConsumerProducer_CPP_API_test.hpp **** 
 136:test/../test/ConsumerProducer_CPP_API_test.hpp ****             producers[i] = new Producer(&threadData[i]);
 137:test/../test/ConsumerProducer_CPP_API_test.hpp ****             producers[i]->start();
 138:test/../test/ConsumerProducer_CPP_API_test.hpp **** 
 139:test/../test/ConsumerProducer_CPP_API_test.hpp ****         }
 140:test/../test/ConsumerProducer_CPP_API_test.hpp **** 
 141:test/../test/ConsumerProducer_CPP_API_test.hpp ****         Thread::dispatch();
 142:test/../test/ConsumerProducer_CPP_API_test.hpp **** 
GAS LISTING /tmp/ccCgyXx1.s 			page 16


 143:test/../test/ConsumerProducer_CPP_API_test.hpp ****         for (int i = 0; i <= threadNum; i++) {
 144:test/../test/ConsumerProducer_CPP_API_test.hpp ****             waitForAll->wait();
 145:test/../test/ConsumerProducer_CPP_API_test.hpp ****         }
 146:test/../test/ConsumerProducer_CPP_API_test.hpp **** 
 147:test/../test/ConsumerProducer_CPP_API_test.hpp ****         delete waitForAll;
 148:test/../test/ConsumerProducer_CPP_API_test.hpp ****         for (int i = 0; i < threadNum; i++) {
 149:test/../test/ConsumerProducer_CPP_API_test.hpp ****             delete producers[i];
 150:test/../test/ConsumerProducer_CPP_API_test.hpp ****         }
 151:test/../test/ConsumerProducer_CPP_API_test.hpp ****         delete consumer;
 152:test/../test/ConsumerProducer_CPP_API_test.hpp ****         delete buffer;
 606              		.loc 1 152 22 is_stmt 0
 607 0034 130C0100 		mv	s8,sp
  90:test/../test/ConsumerProducer_CPP_API_test.hpp ****         char input[30];
 608              		.loc 1 90 9 is_stmt 1
  91:test/../test/ConsumerProducer_CPP_API_test.hpp **** 
 609              		.loc 1 91 9
  93:test/../test/ConsumerProducer_CPP_API_test.hpp ****         getString(input, 30);
 610              		.loc 1 93 9
  93:test/../test/ConsumerProducer_CPP_API_test.hpp ****         getString(input, 30);
 611              		.loc 1 93 20 is_stmt 0
 612 0038 17050000 		lla	a0,.LC0
 612      13050500 
 613              	.LEHB0:
 614 0040 97000000 		call	_Z11printStringPKc@plt
 614      E7800000 
 615              	.LVL57:
  94:test/../test/ConsumerProducer_CPP_API_test.hpp ****         threadNum = stringToInt(input);
 616              		.loc 1 94 9 is_stmt 1
  94:test/../test/ConsumerProducer_CPP_API_test.hpp ****         threadNum = stringToInt(input);
 617              		.loc 1 94 18 is_stmt 0
 618 0048 9305E001 		li	a1,30
 619 004c 930404F8 		addi	s1,s0,-128
 620 0050 13850400 		mv	a0,s1
 621 0054 97000000 		call	_Z9getStringPci@plt
 621      E7800000 
 622              	.LVL58:
  95:test/../test/ConsumerProducer_CPP_API_test.hpp **** 
 623              		.loc 1 95 9 is_stmt 1
  95:test/../test/ConsumerProducer_CPP_API_test.hpp **** 
 624              		.loc 1 95 32 is_stmt 0
 625 005c 13850400 		mv	a0,s1
 626 0060 97000000 		call	_Z11stringToIntPKc@plt
 626      E7800000 
 627              	.LVL59:
 628 0068 93090500 		mv	s3,a0
 629              	.LVL60:
  97:test/../test/ConsumerProducer_CPP_API_test.hpp ****         getString(input, 30);
 630              		.loc 1 97 9 is_stmt 1
  97:test/../test/ConsumerProducer_CPP_API_test.hpp ****         getString(input, 30);
 631              		.loc 1 97 20 is_stmt 0
 632 006c 17050000 		lla	a0,.LC1
 632      13050500 
 633 0074 97000000 		call	_Z11printStringPKc@plt
 633      E7800000 
 634              	.LVL61:
  98:test/../test/ConsumerProducer_CPP_API_test.hpp ****         n = stringToInt(input);
 635              		.loc 1 98 9 is_stmt 1
GAS LISTING /tmp/ccCgyXx1.s 			page 17


  98:test/../test/ConsumerProducer_CPP_API_test.hpp ****         n = stringToInt(input);
 636              		.loc 1 98 18 is_stmt 0
 637 007c 9305E001 		li	a1,30
 638 0080 13850400 		mv	a0,s1
 639 0084 97000000 		call	_Z9getStringPci@plt
 639      E7800000 
 640              	.LVL62:
  99:test/../test/ConsumerProducer_CPP_API_test.hpp **** 
 641              		.loc 1 99 9 is_stmt 1
  99:test/../test/ConsumerProducer_CPP_API_test.hpp **** 
 642              		.loc 1 99 24 is_stmt 0
 643 008c 13850400 		mv	a0,s1
 644 0090 97000000 		call	_Z11stringToIntPKc@plt
 644      E7800000 
 645              	.LVL63:
 646 0098 93040500 		mv	s1,a0
 647              	.LVL64:
 101:test/../test/ConsumerProducer_CPP_API_test.hpp ****         printString(" i velicina bafera "); printInt(n);
 648              		.loc 1 101 9 is_stmt 1
 101:test/../test/ConsumerProducer_CPP_API_test.hpp ****         printString(" i velicina bafera "); printInt(n);
 649              		.loc 1 101 20 is_stmt 0
 650 009c 17050000 		lla	a0,.LC2
 650      13050500 
 651 00a4 97000000 		call	_Z11printStringPKc@plt
 651      E7800000 
 652              	.LVL65:
 101:test/../test/ConsumerProducer_CPP_API_test.hpp ****         printString(" i velicina bafera "); printInt(n);
 653              		.loc 1 101 44 is_stmt 1
 101:test/../test/ConsumerProducer_CPP_API_test.hpp ****         printString(" i velicina bafera "); printInt(n);
 654              		.loc 1 101 52 is_stmt 0
 655 00ac 13060000 		li	a2,0
 656 00b0 9305A000 		li	a1,10
 657 00b4 13850900 		mv	a0,s3
 658 00b8 97000000 		call	_Z8printIntiii@plt
 658      E7800000 
 659              	.LVL66:
 102:test/../test/ConsumerProducer_CPP_API_test.hpp ****         printString(".\n");
 660              		.loc 1 102 9 is_stmt 1
 102:test/../test/ConsumerProducer_CPP_API_test.hpp ****         printString(".\n");
 661              		.loc 1 102 20 is_stmt 0
 662 00c0 17050000 		lla	a0,.LC3
 662      13050500 
 663 00c8 97000000 		call	_Z11printStringPKc@plt
 663      E7800000 
 664              	.LVL67:
 102:test/../test/ConsumerProducer_CPP_API_test.hpp ****         printString(".\n");
 665              		.loc 1 102 45 is_stmt 1
 102:test/../test/ConsumerProducer_CPP_API_test.hpp ****         printString(".\n");
 666              		.loc 1 102 53 is_stmt 0
 667 00d0 13060000 		li	a2,0
 668 00d4 9305A000 		li	a1,10
 669 00d8 13850400 		mv	a0,s1
 670 00dc 97000000 		call	_Z8printIntiii@plt
 670      E7800000 
 671              	.LVL68:
 103:test/../test/ConsumerProducer_CPP_API_test.hpp **** 
 672              		.loc 1 103 9 is_stmt 1
GAS LISTING /tmp/ccCgyXx1.s 			page 18


 103:test/../test/ConsumerProducer_CPP_API_test.hpp **** 
 673              		.loc 1 103 20 is_stmt 0
 674 00e4 17050000 		lla	a0,.LC4
 674      13050500 
 675 00ec 97000000 		call	_Z11printStringPKc@plt
 675      E7800000 
 676              	.LVL69:
 105:test/../test/ConsumerProducer_CPP_API_test.hpp ****             printString("Broj proizvodjaca ne sme biti manji od velicine bafera!\n");
 677              		.loc 1 105 9 is_stmt 1
 678 00f4 63C43403 		bgt	s3,s1,.L55
 108:test/../test/ConsumerProducer_CPP_API_test.hpp ****             printString("Broj proizvodjaca mora biti veci od nula!\n");
 679              		.loc 1 108 16
 680 00f8 635C3003 		blez	s3,.L56
 113:test/../test/ConsumerProducer_CPP_API_test.hpp **** 
 681              		.loc 1 113 9
 113:test/../test/ConsumerProducer_CPP_API_test.hpp **** 
 682              		.loc 1 113 44 is_stmt 0
 683 00fc 13058003 		li	a0,56
 684 0100 97000000 		call	_Znwm@plt
 684      E7800000 
 685              	.LVL70:
 686              	.LEHE0:
 687 0108 930A0500 		mv	s5,a0
 688 010c 93850400 		mv	a1,s1
 689              	.LEHB1:
 690 0110 97000000 		call	_ZN9BufferCPPC1Ei@plt
 690      E7800000 
 691              	.LVL71:
 692              	.LEHE1:
 693 0118 6F000003 		j	.L57
 694              	.L55:
 106:test/../test/ConsumerProducer_CPP_API_test.hpp ****             return;
 695              		.loc 1 106 13 is_stmt 1
 106:test/../test/ConsumerProducer_CPP_API_test.hpp ****             return;
 696              		.loc 1 106 24 is_stmt 0
 697 011c 17050000 		lla	a0,.LC5
 697      13050500 
 698              	.LEHB2:
 699 0124 97000000 		call	_Z11printStringPKc@plt
 699      E7800000 
 700              	.LVL72:
 107:test/../test/ConsumerProducer_CPP_API_test.hpp ****         } else if (threadNum < 1) {
 701              		.loc 1 107 13 is_stmt 1
 702 012c 6F004001 		j	.L31
 703              	.L56:
 109:test/../test/ConsumerProducer_CPP_API_test.hpp ****             return;
 704              		.loc 1 109 13
 109:test/../test/ConsumerProducer_CPP_API_test.hpp ****             return;
 705              		.loc 1 109 24 is_stmt 0
 706 0130 17050000 		lla	a0,.LC6
 706      13050500 
 707 0138 97000000 		call	_Z11printStringPKc@plt
 707      E7800000 
 708              	.LVL73:
 110:test/../test/ConsumerProducer_CPP_API_test.hpp ****         }
 709              		.loc 1 110 13 is_stmt 1
 710              	.L31:
GAS LISTING /tmp/ccCgyXx1.s 			page 19


 711 0140 13010C00 		mv	sp,s8
 712 0144 6F00C021 		j	.L29
 713              	.L57:
 714              	.LVL74:
 115:test/../test/ConsumerProducer_CPP_API_test.hpp ****         Thread *producers[threadNum];
 715              		.loc 1 115 9 discriminator 3
 115:test/../test/ConsumerProducer_CPP_API_test.hpp ****         Thread *producers[threadNum];
 716              		.loc 1 115 37 is_stmt 0 discriminator 3
 717 0148 13050001 		li	a0,16
 718 014c 97000000 		call	_Znwm@plt
 718      E7800000 
 719              	.LVL75:
 720              	.LEHE2:
 721 0154 93040500 		mv	s1,a0
 722              	.LVL76:
 723 0158 93050000 		li	a1,0
 724              	.LEHB3:
 725 015c 97000000 		call	_ZN9SemaphoreC1Ej@plt
 725      E7800000 
 726              	.LVL77:
 727              	.LEHE3:
 115:test/../test/ConsumerProducer_CPP_API_test.hpp ****         Thread *producers[threadNum];
 728              		.loc 1 115 20 discriminator 3
 729 0164 17070000 		lla	a4,.LANCHOR0
 729      13070700 
 730 016c 23349700 		sd	s1,8(a4)
 116:test/../test/ConsumerProducer_CPP_API_test.hpp ****         thread_data threadData[threadNum + 1];
 731              		.loc 1 116 9 is_stmt 1 discriminator 3
 732              	.LVL78:
 116:test/../test/ConsumerProducer_CPP_API_test.hpp ****         thread_data threadData[threadNum + 1];
 733              		.loc 1 116 17 is_stmt 0 discriminator 3
 734 0170 93973900 		slli	a5,s3,3
 735 0174 9387F700 		addi	a5,a5,15
 736 0178 93F707FF 		andi	a5,a5,-16
 737 017c 3301F140 		sub	sp,sp,a5
 738 0180 130A0100 		mv	s4,sp
 739              	.LVL79:
 117:test/../test/ConsumerProducer_CPP_API_test.hpp **** 
 740              		.loc 1 117 9 is_stmt 1 discriminator 3
 117:test/../test/ConsumerProducer_CPP_API_test.hpp **** 
 741              		.loc 1 117 42 is_stmt 0 discriminator 3
 742 0184 9B861900 		addiw	a3,s3,1
 743              	.LVL80:
 117:test/../test/ConsumerProducer_CPP_API_test.hpp **** 
 744              		.loc 1 117 21 discriminator 3
 745 0188 93971600 		slli	a5,a3,1
 746 018c B387D700 		add	a5,a5,a3
 747 0190 93973700 		slli	a5,a5,3
 748 0194 9387F700 		addi	a5,a5,15
 749 0198 93F707FF 		andi	a5,a5,-16
 750 019c 3301F140 		sub	sp,sp,a5
 751              	.LVL81:
 752 01a0 130B0100 		mv	s6,sp
 753              	.LVL82:
 119:test/../test/ConsumerProducer_CPP_API_test.hpp ****         threadData[threadNum].buffer = buffer;
 754              		.loc 1 119 9 is_stmt 1 discriminator 3
 119:test/../test/ConsumerProducer_CPP_API_test.hpp ****         threadData[threadNum].buffer = buffer;
GAS LISTING /tmp/ccCgyXx1.s 			page 20


 755              		.loc 1 119 34 is_stmt 0 discriminator 3
 756 01a4 93941900 		slli	s1,s3,1
 757 01a8 B3843401 		add	s1,s1,s3
 758 01ac 93943400 		slli	s1,s1,3
 759 01b0 B3049B00 		add	s1,s6,s1
 760 01b4 23A03401 		sw	s3,0(s1)
 120:test/../test/ConsumerProducer_CPP_API_test.hpp ****         threadData[threadNum].sem = waitForAll;
 761              		.loc 1 120 9 is_stmt 1 discriminator 3
 120:test/../test/ConsumerProducer_CPP_API_test.hpp ****         threadData[threadNum].sem = waitForAll;
 762              		.loc 1 120 38 is_stmt 0 discriminator 3
 763 01b8 23B45401 		sd	s5,8(s1)
 121:test/../test/ConsumerProducer_CPP_API_test.hpp ****         Thread *consumer = new Consumer(&threadData[threadNum]);
 764              		.loc 1 121 9 is_stmt 1 discriminator 3
 121:test/../test/ConsumerProducer_CPP_API_test.hpp ****         Thread *consumer = new Consumer(&threadData[threadNum]);
 765              		.loc 1 121 35 is_stmt 0 discriminator 3
 766 01bc 83378700 		ld	a5,8(a4)
 767 01c0 23B8F400 		sd	a5,16(s1)
 122:test/../test/ConsumerProducer_CPP_API_test.hpp ****         consumer->start();
 768              		.loc 1 122 9 is_stmt 1 discriminator 3
 122:test/../test/ConsumerProducer_CPP_API_test.hpp ****         consumer->start();
 769              		.loc 1 122 63 is_stmt 0 discriminator 3
 770 01c4 13058001 		li	a0,24
 771              	.LEHB4:
 772 01c8 97000000 		call	_Znwm@plt
 772      E7800000 
 773              	.LVL83:
 774              	.LEHE4:
 775 01d0 930B0500 		mv	s7,a0
 776              	.LVL84:
 777              	.LEHB5:
 778              	.LBB35:
 779              	.LBB36:
  65:test/../test/ConsumerProducer_CPP_API_test.hpp **** 
 780              		.loc 1 65 54 discriminator 3
 781 01d4 97000000 		call	_ZN6ThreadC2Ev@plt
 781      E7800000 
 782              	.LVL85:
 783              	.LEHE5:
  65:test/../test/ConsumerProducer_CPP_API_test.hpp **** 
 784              		.loc 1 65 54
 785 01dc 97070000 		lla	a5,_ZTVN19ConsumerProducerCPP8ConsumerE+16
 785      93870700 
 786 01e4 23B0FB00 		sd	a5,0(s7)
 787 01e8 23B89B00 		sd	s1,16(s7)
 788              	.LVL86:
 789              	.LBE36:
 790              	.LBE35:
 123:test/../test/ConsumerProducer_CPP_API_test.hpp **** 
 791              		.loc 1 123 9 is_stmt 1
 123:test/../test/ConsumerProducer_CPP_API_test.hpp **** 
 792              		.loc 1 123 24 is_stmt 0
 793 01ec 13850B00 		mv	a0,s7
 794              	.LEHB6:
 795 01f0 97000000 		call	_ZN6Thread5startEv@plt
 795      E7800000 
 796              	.LVL87:
 125:test/../test/ConsumerProducer_CPP_API_test.hpp ****         threadData[0].buffer = buffer;
GAS LISTING /tmp/ccCgyXx1.s 			page 21


 797              		.loc 1 125 9 is_stmt 1
 125:test/../test/ConsumerProducer_CPP_API_test.hpp ****         threadData[0].buffer = buffer;
 798              		.loc 1 125 26 is_stmt 0
 799 01f8 23200B00 		sw	zero,0(s6)
 126:test/../test/ConsumerProducer_CPP_API_test.hpp ****         threadData[0].sem = waitForAll;
 800              		.loc 1 126 9 is_stmt 1
 126:test/../test/ConsumerProducer_CPP_API_test.hpp ****         threadData[0].sem = waitForAll;
 801              		.loc 1 126 30 is_stmt 0
 802 01fc 23345B01 		sd	s5,8(s6)
 127:test/../test/ConsumerProducer_CPP_API_test.hpp ****         producers[0] = new ProducerKeyborad(&threadData[0]);
 803              		.loc 1 127 9 is_stmt 1
 127:test/../test/ConsumerProducer_CPP_API_test.hpp ****         producers[0] = new ProducerKeyborad(&threadData[0]);
 804              		.loc 1 127 27 is_stmt 0
 805 0200 97070000 		ld	a5,.LANCHOR0+8
 805      83B70700 
 806 0208 2338FB00 		sd	a5,16(s6)
 128:test/../test/ConsumerProducer_CPP_API_test.hpp ****         producers[0]->start();
 807              		.loc 1 128 9 is_stmt 1
 128:test/../test/ConsumerProducer_CPP_API_test.hpp ****         producers[0]->start();
 808              		.loc 1 128 59 is_stmt 0
 809 020c 13058001 		li	a0,24
 810 0210 97000000 		call	_Znwm@plt
 810      E7800000 
 811              	.LVL88:
 812              	.LEHE6:
 813 0218 93040500 		mv	s1,a0
 814              	.LVL89:
 815              	.LEHB7:
 816              	.LBB37:
 817              	.LBB38:
  28:test/../test/ConsumerProducer_CPP_API_test.hpp **** 
 818              		.loc 1 28 62
 819 021c 97000000 		call	_ZN6ThreadC2Ev@plt
 819      E7800000 
 820              	.LVL90:
 821              	.LEHE7:
 822 0224 97070000 		lla	a5,_ZTVN19ConsumerProducerCPP16ProducerKeyboradE+16
 822      93870700 
 823 022c 23B0F400 		sd	a5,0(s1)
 824 0230 23B86401 		sd	s6,16(s1)
 825              	.LVL91:
 826              	.LBE38:
 827              	.LBE37:
 128:test/../test/ConsumerProducer_CPP_API_test.hpp ****         producers[0]->start();
 828              		.loc 1 128 22
 829 0234 23309A00 		sd	s1,0(s4)
 129:test/../test/ConsumerProducer_CPP_API_test.hpp **** 
 830              		.loc 1 129 9 is_stmt 1
 129:test/../test/ConsumerProducer_CPP_API_test.hpp **** 
 831              		.loc 1 129 28 is_stmt 0
 832 0238 13850400 		mv	a0,s1
 833              	.LEHB8:
 834 023c 97000000 		call	_ZN6Thread5startEv@plt
 834      E7800000 
 835              	.LVL92:
 836              	.LBB39:
 131:test/../test/ConsumerProducer_CPP_API_test.hpp ****             threadData[i].id = i;
GAS LISTING /tmp/ccCgyXx1.s 			page 22


 837              		.loc 1 131 18
 838 0244 13091000 		li	s2,1
 839 0248 6F000003 		j	.L34
 840              	.LVL93:
 841              	.L58:
 842              	.LBB40:
 843              	.LBB41:
  48:test/../test/ConsumerProducer_CPP_API_test.hpp **** 
 844              		.loc 1 48 54
 845 024c 97070000 		lla	a5,_ZTVN19ConsumerProducerCPP8ProducerE+16
 845      93870700 
 846 0254 23B0FC00 		sd	a5,0(s9)
 847 0258 23B89C00 		sd	s1,16(s9)
 848              	.LVL94:
 849              	.LBE41:
 850              	.LBE40:
 136:test/../test/ConsumerProducer_CPP_API_test.hpp ****             producers[i]->start();
 851              		.loc 1 136 26
 852 025c 93173900 		slli	a5,s2,3
 853 0260 B307FA00 		add	a5,s4,a5
 854 0264 23B09701 		sd	s9,0(a5)
 137:test/../test/ConsumerProducer_CPP_API_test.hpp **** 
 855              		.loc 1 137 13 is_stmt 1
 137:test/../test/ConsumerProducer_CPP_API_test.hpp **** 
 856              		.loc 1 137 32 is_stmt 0
 857 0268 13850C00 		mv	a0,s9
 858 026c 97000000 		call	_ZN6Thread5startEv@plt
 858      E7800000 
 859              	.LVL95:
 131:test/../test/ConsumerProducer_CPP_API_test.hpp ****             threadData[i].id = i;
 860              		.loc 1 131 9 is_stmt 1
 861 0274 1B091900 		addiw	s2,s2,1
 862              	.LVL96:
 863              	.L34:
 131:test/../test/ConsumerProducer_CPP_API_test.hpp ****             threadData[i].id = i;
 864              		.loc 1 131 27 discriminator 1
 865 0278 63523905 		bge	s2,s3,.L33
 132:test/../test/ConsumerProducer_CPP_API_test.hpp ****             threadData[i].buffer = buffer;
 866              		.loc 1 132 13
 132:test/../test/ConsumerProducer_CPP_API_test.hpp ****             threadData[i].buffer = buffer;
 867              		.loc 1 132 30 is_stmt 0
 868 027c 93141900 		slli	s1,s2,1
 869 0280 B3842401 		add	s1,s1,s2
 870 0284 93943400 		slli	s1,s1,3
 871 0288 B3049B00 		add	s1,s6,s1
 872 028c 23A02401 		sw	s2,0(s1)
 133:test/../test/ConsumerProducer_CPP_API_test.hpp ****             threadData[i].sem = waitForAll;
 873              		.loc 1 133 13 is_stmt 1
 133:test/../test/ConsumerProducer_CPP_API_test.hpp ****             threadData[i].sem = waitForAll;
 874              		.loc 1 133 34 is_stmt 0
 875 0290 23B45401 		sd	s5,8(s1)
 134:test/../test/ConsumerProducer_CPP_API_test.hpp **** 
 876              		.loc 1 134 13 is_stmt 1
 134:test/../test/ConsumerProducer_CPP_API_test.hpp **** 
 877              		.loc 1 134 31 is_stmt 0
 878 0294 97070000 		ld	a5,.LANCHOR0+8
 878      83B70700 
GAS LISTING /tmp/ccCgyXx1.s 			page 23


 879 029c 23B8F400 		sd	a5,16(s1)
 136:test/../test/ConsumerProducer_CPP_API_test.hpp ****             producers[i]->start();
 880              		.loc 1 136 13 is_stmt 1
 136:test/../test/ConsumerProducer_CPP_API_test.hpp ****             producers[i]->start();
 881              		.loc 1 136 55 is_stmt 0
 882 02a0 13058001 		li	a0,24
 883 02a4 97000000 		call	_Znwm@plt
 883      E7800000 
 884              	.LVL97:
 885              	.LEHE8:
 886 02ac 930C0500 		mv	s9,a0
 887              	.LVL98:
 888              	.LEHB9:
 889              	.LBB43:
 890              	.LBB42:
  48:test/../test/ConsumerProducer_CPP_API_test.hpp **** 
 891              		.loc 1 48 54
 892 02b0 97000000 		call	_ZN6ThreadC2Ev@plt
 892      E7800000 
 893              	.LVL99:
 894              	.LEHE9:
 895 02b8 6FF05FF9 		j	.L58
 896              	.LVL100:
 897              	.L33:
 898              	.LBE42:
 899              	.LBE43:
 900              	.LBE39:
 141:test/../test/ConsumerProducer_CPP_API_test.hpp **** 
 901              		.loc 1 141 9 is_stmt 1
 902              	.LEHB10:
 141:test/../test/ConsumerProducer_CPP_API_test.hpp **** 
 903              		.loc 1 141 25 is_stmt 0
 904 02bc 97000000 		call	_ZN6Thread8dispatchEv@plt
 904      E7800000 
 905              	.LVL101:
 906              	.LBB44:
 143:test/../test/ConsumerProducer_CPP_API_test.hpp ****             waitForAll->wait();
 907              		.loc 1 143 18
 908 02c4 93040000 		li	s1,0
 909              	.L36:
 910              	.LVL102:
 143:test/../test/ConsumerProducer_CPP_API_test.hpp ****             waitForAll->wait();
 911              		.loc 1 143 27 is_stmt 1 discriminator 1
 912 02c8 63CE9900 		bgt	s1,s3,.L35
 144:test/../test/ConsumerProducer_CPP_API_test.hpp ****         }
 913              		.loc 1 144 13
 144:test/../test/ConsumerProducer_CPP_API_test.hpp ****         }
 914              		.loc 1 144 29 is_stmt 0
 915 02cc 17050000 		ld	a0,.LANCHOR0+8
 915      03350500 
 916 02d4 97000000 		call	_ZN9Semaphore4waitEv@plt
 916      E7800000 
 917              	.LVL103:
 143:test/../test/ConsumerProducer_CPP_API_test.hpp ****             waitForAll->wait();
 918              		.loc 1 143 9 is_stmt 1
 919 02dc 9B841400 		addiw	s1,s1,1
 920              	.LVL104:
GAS LISTING /tmp/ccCgyXx1.s 			page 24


 921 02e0 6FF09FFE 		j	.L36
 922              	.LVL105:
 923              	.L35:
 924              	.LBE44:
 147:test/../test/ConsumerProducer_CPP_API_test.hpp ****         for (int i = 0; i < threadNum; i++) {
 925              		.loc 1 147 9
 147:test/../test/ConsumerProducer_CPP_API_test.hpp ****         for (int i = 0; i < threadNum; i++) {
 926              		.loc 1 147 16 is_stmt 0
 927 02e4 17050000 		ld	a0,.LANCHOR0+8
 927      03350500 
 147:test/../test/ConsumerProducer_CPP_API_test.hpp ****         for (int i = 0; i < threadNum; i++) {
 928              		.loc 1 147 26
 929 02ec 63080500 		beqz	a0,.L37
 147:test/../test/ConsumerProducer_CPP_API_test.hpp ****         for (int i = 0; i < threadNum; i++) {
 930              		.loc 1 147 16 discriminator 1
 931 02f0 83370500 		ld	a5,0(a0)
 932 02f4 83B78700 		ld	a5,8(a5)
 933 02f8 E7800700 		jalr	a5
 934              	.LVL106:
 935              	.L37:
 936              	.LBB45:
 143:test/../test/ConsumerProducer_CPP_API_test.hpp ****             waitForAll->wait();
 937              		.loc 1 143 18 discriminator 1
 938 02fc 93040000 		li	s1,0
 939              	.LVL107:
 940 0300 6F008000 		j	.L40
 941              	.LVL108:
 942              	.L39:
 943              	.LBE45:
 944              	.LBB46:
 148:test/../test/ConsumerProducer_CPP_API_test.hpp ****             delete producers[i];
 945              		.loc 1 148 9 is_stmt 1 discriminator 2
 946 0304 9B841400 		addiw	s1,s1,1
 947              	.LVL109:
 948              	.L40:
 148:test/../test/ConsumerProducer_CPP_API_test.hpp ****             delete producers[i];
 949              		.loc 1 148 27 discriminator 1
 950 0308 63D23403 		bge	s1,s3,.L38
 149:test/../test/ConsumerProducer_CPP_API_test.hpp ****         }
 951              		.loc 1 149 13
 149:test/../test/ConsumerProducer_CPP_API_test.hpp ****         }
 952              		.loc 1 149 31 is_stmt 0
 953 030c 93973400 		slli	a5,s1,3
 954 0310 B307FA00 		add	a5,s4,a5
 955 0314 03B50700 		ld	a0,0(a5)
 149:test/../test/ConsumerProducer_CPP_API_test.hpp ****         }
 956              		.loc 1 149 32
 957 0318 E30605FE 		beqz	a0,.L39
 149:test/../test/ConsumerProducer_CPP_API_test.hpp ****         }
 958              		.loc 1 149 31 discriminator 1
 959 031c 83370500 		ld	a5,0(a0)
 960 0320 83B78700 		ld	a5,8(a5)
 961 0324 E7800700 		jalr	a5
 962              	.LVL110:
 963 0328 6FF0DFFD 		j	.L39
 964              	.L38:
 965              	.LBE46:
GAS LISTING /tmp/ccCgyXx1.s 			page 25


 151:test/../test/ConsumerProducer_CPP_API_test.hpp ****         delete buffer;
 966              		.loc 1 151 9 is_stmt 1
 151:test/../test/ConsumerProducer_CPP_API_test.hpp ****         delete buffer;
 967              		.loc 1 151 24 is_stmt 0
 968 032c 638A0B00 		beqz	s7,.L41
 151:test/../test/ConsumerProducer_CPP_API_test.hpp ****         delete buffer;
 969              		.loc 1 151 16 discriminator 1
 970 0330 83B70B00 		ld	a5,0(s7)
 971 0334 83B78700 		ld	a5,8(a5)
 972 0338 13850B00 		mv	a0,s7
 973 033c E7800700 		jalr	a5
 974              	.LVL111:
 975              	.L41:
 976              		.loc 1 152 9 is_stmt 1
 977              		.loc 1 152 22 is_stmt 0
 978 0340 638E0A00 		beqz	s5,.L42
 979              		.loc 1 152 16 discriminator 1
 980 0344 13850A00 		mv	a0,s5
 981 0348 97000000 		call	_ZN9BufferCPPD1Ev@plt
 981      E7800000 
 982              	.LVL112:
 983 0350 13850A00 		mv	a0,s5
 984 0354 97000000 		call	_ZdlPv@plt
 984      E7800000 
 985              	.LVL113:
 986              	.L42:
 987 035c 13010C00 		mv	sp,s8
 988              	.LVL114:
 989              	.L29:
 153:test/../test/ConsumerProducer_CPP_API_test.hpp ****     }
 990              		.loc 1 153 5
 991 0360 130104F8 		addi	sp,s0,-128
 992              		.cfi_remember_state
 993              		.cfi_def_cfa 2, 128
 994 0364 83308107 		ld	ra,120(sp)
 995              		.cfi_restore 1
 996 0368 03340107 		ld	s0,112(sp)
 997              		.cfi_restore 8
 998 036c 83348106 		ld	s1,104(sp)
 999              		.cfi_restore 9
 1000 0370 03390106 		ld	s2,96(sp)
 1001              		.cfi_restore 18
 1002 0374 83398105 		ld	s3,88(sp)
 1003              		.cfi_restore 19
 1004              	.LVL115:
 1005 0378 033A0105 		ld	s4,80(sp)
 1006              		.cfi_restore 20
 1007 037c 833A8104 		ld	s5,72(sp)
 1008              		.cfi_restore 21
 1009 0380 033B0104 		ld	s6,64(sp)
 1010              		.cfi_restore 22
 1011 0384 833B8103 		ld	s7,56(sp)
 1012              		.cfi_restore 23
 1013 0388 033C0103 		ld	s8,48(sp)
 1014              		.cfi_restore 24
 1015 038c 833C8102 		ld	s9,40(sp)
 1016              		.cfi_restore 25
GAS LISTING /tmp/ccCgyXx1.s 			page 26


 1017 0390 13010108 		addi	sp,sp,128
 1018              		.cfi_def_cfa_offset 0
 1019 0394 67800000 		jr	ra
 1020              	.LVL116:
 1021              	.L49:
 1022              		.cfi_restore_state
 1023 0398 93040500 		mv	s1,a0
 1024              	.LVL117:
 113:test/../test/ConsumerProducer_CPP_API_test.hpp **** 
 1025              		.loc 1 113 44
 1026 039c 13850A00 		mv	a0,s5
 1027 03a0 97000000 		call	_ZdlPv@plt
 1027      E7800000 
 1028              	.LVL118:
 1029 03a8 13850400 		mv	a0,s1
 1030 03ac 97000000 		call	_Unwind_Resume@plt
 1030      E7800000 
 1031              	.LVL119:
 1032              	.L50:
 1033 03b4 13090500 		mv	s2,a0
 115:test/../test/ConsumerProducer_CPP_API_test.hpp ****         Thread *producers[threadNum];
 1034              		.loc 1 115 37
 1035 03b8 13850400 		mv	a0,s1
 1036 03bc 97000000 		call	_ZdlPv@plt
 1036      E7800000 
 1037              	.LVL120:
 1038 03c4 13050900 		mv	a0,s2
 1039 03c8 97000000 		call	_Unwind_Resume@plt
 1039      E7800000 
 1040              	.LVL121:
 1041              	.L51:
 1042 03d0 93040500 		mv	s1,a0
 1043              	.LVL122:
 122:test/../test/ConsumerProducer_CPP_API_test.hpp ****         consumer->start();
 1044              		.loc 1 122 63
 1045 03d4 13850B00 		mv	a0,s7
 1046 03d8 97000000 		call	_ZdlPv@plt
 1046      E7800000 
 1047              	.LVL123:
 1048 03e0 13850400 		mv	a0,s1
 1049 03e4 97000000 		call	_Unwind_Resume@plt
 1049      E7800000 
 1050              	.LVL124:
 1051              	.L52:
 1052 03ec 13090500 		mv	s2,a0
 128:test/../test/ConsumerProducer_CPP_API_test.hpp ****         producers[0]->start();
 1053              		.loc 1 128 59
 1054 03f0 13850400 		mv	a0,s1
 1055 03f4 97000000 		call	_ZdlPv@plt
 1055      E7800000 
 1056              	.LVL125:
 1057 03fc 13050900 		mv	a0,s2
 1058 0400 97000000 		call	_Unwind_Resume@plt
 1058      E7800000 
 1059              	.LVL126:
 1060              	.L53:
 1061 0408 93040500 		mv	s1,a0
GAS LISTING /tmp/ccCgyXx1.s 			page 27


 1062              	.LVL127:
 1063              	.LBB47:
 136:test/../test/ConsumerProducer_CPP_API_test.hpp ****             producers[i]->start();
 1064              		.loc 1 136 55
 1065 040c 13850C00 		mv	a0,s9
 1066 0410 97000000 		call	_ZdlPv@plt
 1066      E7800000 
 1067              	.LVL128:
 1068 0418 13850400 		mv	a0,s1
 1069 041c 97000000 		call	_Unwind_Resume@plt
 1069      E7800000 
 1070              	.LVL129:
 1071              	.LEHE10:
 1072              	.LBE47:
 1073              		.cfi_endproc
 1074              	.LFE15:
 1075              		.globl	__gxx_personality_v0
 1076              		.section	.gcc_except_table,"a",@progbits
 1077              	.LLSDA15:
 1078 0000 FF       		.byte	0xff
 1079 0001 FF       		.byte	0xff
 1080 0002 03       		.byte	0x3
 1081 0003 8F01     		.byte	0x8f,0x1
 1082 0005 00000000 		.4byte	.LEHB0-.LFB15
 1083 0009 00000000 		.4byte	.LEHE0-.LEHB0
 1084 000d 00000000 		.4byte	0
 1085 0011 00       		.byte	0
 1086 0012 00000000 		.4byte	.LEHB1-.LFB15
 1087 0016 00000000 		.4byte	.LEHE1-.LEHB1
 1088 001a 00000000 		.4byte	.L49-.LFB15
 1089 001e 00       		.byte	0
 1090 001f 00000000 		.4byte	.LEHB2-.LFB15
 1091 0023 00000000 		.4byte	.LEHE2-.LEHB2
 1092 0027 00000000 		.4byte	0
 1093 002b 00       		.byte	0
 1094 002c 00000000 		.4byte	.LEHB3-.LFB15
 1095 0030 00000000 		.4byte	.LEHE3-.LEHB3
 1096 0034 00000000 		.4byte	.L50-.LFB15
 1097 0038 00       		.byte	0
 1098 0039 00000000 		.4byte	.LEHB4-.LFB15
 1099 003d 00000000 		.4byte	.LEHE4-.LEHB4
 1100 0041 00000000 		.4byte	0
 1101 0045 00       		.byte	0
 1102 0046 00000000 		.4byte	.LEHB5-.LFB15
 1103 004a 00000000 		.4byte	.LEHE5-.LEHB5
 1104 004e 00000000 		.4byte	.L51-.LFB15
 1105 0052 00       		.byte	0
 1106 0053 00000000 		.4byte	.LEHB6-.LFB15
 1107 0057 00000000 		.4byte	.LEHE6-.LEHB6
 1108 005b 00000000 		.4byte	0
 1109 005f 00       		.byte	0
 1110 0060 00000000 		.4byte	.LEHB7-.LFB15
 1111 0064 00000000 		.4byte	.LEHE7-.LEHB7
 1112 0068 00000000 		.4byte	.L52-.LFB15
 1113 006c 00       		.byte	0
 1114 006d 00000000 		.4byte	.LEHB8-.LFB15
 1115 0071 00000000 		.4byte	.LEHE8-.LEHB8
GAS LISTING /tmp/ccCgyXx1.s 			page 28


 1116 0075 00000000 		.4byte	0
 1117 0079 00       		.byte	0
 1118 007a 00000000 		.4byte	.LEHB9-.LFB15
 1119 007e 00000000 		.4byte	.LEHE9-.LEHB9
 1120 0082 00000000 		.4byte	.L53-.LFB15
 1121 0086 00       		.byte	0
 1122 0087 00000000 		.4byte	.LEHB10-.LFB15
 1123 008b 00000000 		.4byte	.LEHE10-.LEHB10
 1124 008f 00000000 		.4byte	0
 1125 0093 00       		.byte	0
 1126              		.text
 1128              		.align	2
 1129              		.globl	_Z8userMainv
 1131              	_Z8userMainv:
 1132              	.LFB16:
 1133              		.file 2 "test/userMain.cpp"
   1:test/userMain.cpp **** //#include "../test/Threads_C_API_test.hpp" // zadatak 2, niti C API i sinhrona promena konteksta
   2:test/userMain.cpp **** //#include "../test/Threads_CPP_API_test.hpp" // zadatak 2., niti CPP API i sinhrona promena kontek
   3:test/userMain.cpp **** 
   4:test/userMain.cpp **** //#include "../test/ConsumerProducer_C_API_test.h" // zadatak 3., kompletan C API sa semaforima, si
   5:test/userMain.cpp **** //#include "../test/ConsumerProducer_CPP_Sync_API_test.hpp" // zadatak 3., kompletan CPP API sa sem
   6:test/userMain.cpp **** 
   7:test/userMain.cpp **** //#include "../test/ThreadSleep_C_API_test.hpp" // thread_sleep test C API
   8:test/userMain.cpp **** #include "../test/ConsumerProducer_CPP_API_test.hpp" // zadatak 4. CPP API i asinhrona promena kont
   9:test/userMain.cpp **** 
  10:test/userMain.cpp **** void userMain() {
 1134              		.loc 2 10 17 is_stmt 1
 1135              		.cfi_startproc
 1136 0424 130101FF 		addi	sp,sp,-16
 1137              		.cfi_def_cfa_offset 16
 1138 0428 23341100 		sd	ra,8(sp)
 1139 042c 23308100 		sd	s0,0(sp)
 1140              		.cfi_offset 1, -8
 1141              		.cfi_offset 8, -16
 1142 0430 13040101 		addi	s0,sp,16
 1143              		.cfi_def_cfa 8, 0
  11:test/userMain.cpp **** //    Threads_C_API_test(); // zadatak 2., niti C API i sinhrona promena konteksta
  12:test/userMain.cpp **** //    Threads_CPP_API_test(); // zadatak 2., niti CPP API i sinhrona promena konteksta
  13:test/userMain.cpp **** 
  14:test/userMain.cpp **** //    producerConsumer_C_API(); // zadatak 3., kompletan C API sa semaforima, sinhrona promena kont
  15:test/userMain.cpp **** //    producerConsumer_CPP_Sync_API(); // zadatak 3., kompletan CPP API sa semaforima, sinhrona pro
  16:test/userMain.cpp **** 
  17:test/userMain.cpp **** //    testSleeping(); // thread_sleep test C API
  18:test/userMain.cpp ****     ConsumerProducerCPP::testConsumerProducer(); // zadatak 4. CPP API i asinhrona promena kontekst
 1144              		.loc 2 18 5
 1145              		.loc 2 18 46 is_stmt 0
 1146 0434 97000000 		call	_ZN19ConsumerProducerCPP20testConsumerProducerEv
 1146      E7800000 
 1147              	.LVL130:
  19:test/userMain.cpp **** 
  20:test/userMain.cpp **** }...
 1148              		.loc 2 20 1
 1149 043c 83308100 		ld	ra,8(sp)
 1150              		.cfi_restore 1
 1151 0440 03340100 		ld	s0,0(sp)
 1152              		.cfi_restore 8
 1153              		.cfi_def_cfa 2, 16
GAS LISTING /tmp/ccCgyXx1.s 			page 29


 1154 0444 13010101 		addi	sp,sp,16
 1155              		.cfi_def_cfa_offset 0
 1156 0448 67800000 		jr	ra
 1157              		.cfi_endproc
 1158              	.LFE16:
 1160              		.weak	_ZTVN19ConsumerProducerCPP16ProducerKeyboradE
 1161              		.section	.data.rel.ro.local._ZTVN19ConsumerProducerCPP16ProducerKeyboradE,"awG",@progbits,_ZTVN19C
 1162              		.align	3
 1165              	_ZTVN19ConsumerProducerCPP16ProducerKeyboradE:
 1166 0000 00000000 		.dword	0
 1166      00000000 
 1167 0008 00000000 		.dword	0
 1167      00000000 
 1168 0010 00000000 		.dword	_ZN19ConsumerProducerCPP16ProducerKeyboradD1Ev
 1168      00000000 
 1169 0018 00000000 		.dword	_ZN19ConsumerProducerCPP16ProducerKeyboradD0Ev
 1169      00000000 
 1170 0020 00000000 		.dword	_ZN19ConsumerProducerCPP16ProducerKeyborad3runEv
 1170      00000000 
 1171              		.weak	_ZTVN19ConsumerProducerCPP8ProducerE
 1172              		.section	.data.rel.ro.local._ZTVN19ConsumerProducerCPP8ProducerE,"awG",@progbits,_ZTVN19ConsumerPr
 1173              		.align	3
 1176              	_ZTVN19ConsumerProducerCPP8ProducerE:
 1177 0000 00000000 		.dword	0
 1177      00000000 
 1178 0008 00000000 		.dword	0
 1178      00000000 
 1179 0010 00000000 		.dword	_ZN19ConsumerProducerCPP8ProducerD1Ev
 1179      00000000 
 1180 0018 00000000 		.dword	_ZN19ConsumerProducerCPP8ProducerD0Ev
 1180      00000000 
 1181 0020 00000000 		.dword	_ZN19ConsumerProducerCPP8Producer3runEv
 1181      00000000 
 1182              		.weak	_ZTVN19ConsumerProducerCPP8ConsumerE
 1183              		.section	.data.rel.ro.local._ZTVN19ConsumerProducerCPP8ConsumerE,"awG",@progbits,_ZTVN19ConsumerPr
 1184              		.align	3
 1187              	_ZTVN19ConsumerProducerCPP8ConsumerE:
 1188 0000 00000000 		.dword	0
 1188      00000000 
 1189 0008 00000000 		.dword	0
 1189      00000000 
 1190 0010 00000000 		.dword	_ZN19ConsumerProducerCPP8ConsumerD1Ev
 1190      00000000 
 1191 0018 00000000 		.dword	_ZN19ConsumerProducerCPP8ConsumerD0Ev
 1191      00000000 
 1192 0020 00000000 		.dword	_ZN19ConsumerProducerCPP8Consumer3runEv
 1192      00000000 
 1193              		.globl	_ZN19ConsumerProducerCPP9threadEndE
 1194              		.globl	_ZN19ConsumerProducerCPP10waitForAllE
 1195              		.bss
 1196              		.align	3
 1197              		.set	.LANCHOR0,. + 0
 1200              	_ZN19ConsumerProducerCPP9threadEndE:
 1201 0000 00000000 		.zero	4
 1202 0004 00000000 		.zero	4
 1205              	_ZN19ConsumerProducerCPP10waitForAllE:
 1206 0008 00000000 		.zero	8
GAS LISTING /tmp/ccCgyXx1.s 			page 30


 1206      00000000 
 1207              		.text
 1208              	.Letext0:
 1209              		.file 3 "test/../test/../h/../lib/hw.h"
 1210              		.file 4 "test/../test/../h/syscall_cpp.hpp"
 1211              		.file 5 "test/../test/buffer_CPP_API.hpp"
 1212              		.file 6 "test/../test/printing.hpp"
 1213              		.file 7 "test/../test/../h/syscall_c.h"
 4913              		.align	3
 4916              	DW.ref.__gxx_personality_v0:
 4917 0000 00000000 		.dword	__gxx_personality_v0
 4917      00000000 
 4918              		.ident	"GCC: (Ubuntu 9.4.0-1ubuntu1~20.04) 9.4.0"
 4919              		.section	.note.GNU-stack,"",@progbits
GAS LISTING /tmp/ccCgyXx1.s 			page 31

